(dp0
I1
(dp1
S'individually'
p2
F0.019838809671419714
sS'purchaser'
p3
F0.012399256044637322
sS'responsible'
p4
F0.03595784252944823
sS'required'
p5
F0.012399256044637322
sS'registered_#2'
p6
F0.012399256044637322
sS'For'
p7
F0.015499070055796652
sS'tribunals'
p8
F0.005579665220086794
sS'process'
p9
F0.006199628022318661
sS'national'
p10
F0.006199628022318661
sS'principles'
p11
F0.006199628022318661
sS'community'
p12
F0.006199628022318661
sS'including'
p13
F0.011779293242405457
sS'human'
p14
F0.02045877247365158
sS'committed'
p15
F0.018598884066955982
sS'proper'
p16
F0.012399256044637322
sS'surgeon'
p17
F0.012399256044637322
sS'genocide_#2'
p18
F0.018598884066955982
sS'pharmaceutical'
p19
F0.024798512089274645
sS'rights'
p20
F0.02045877247365158
sS'persons_#-2'
p21
F0.019838809671419714
sS'acts'
p22
F0.019838809671419714
sS'due'
p23
F0.005579665220086794
sS'particulars'
p24
F0.012399256044637322
sS'draft'
p25
F0.0006199628022318661
sS'authorized'
p26
F0.03347799132052077
sS'cooperation'
p27
F0.006199628022318661
sS'records'
p28
F0.012399256044637322
sS'medicine'
p29
F0.012399256044637322
sS'international'
p30
F0.0365778053316801
sS'violations'
p31
F0.047117172969621826
sS'sale_#-3'
p32
F0.012399256044637322
sS'administrative'
p33
F0.0006199628022318661
sS'practitioner'
p34
F0.012399256044637322
sS'veterinary'
p35
F0.012399256044637322
sS'committed_#-1'
p36
F0.018598884066955982
sS'acts_#1'
p37
F0.018598884066955982
sS'registered'
p38
F0.038437693738375696
sS'persons'
p39
F0.021078735275883446
sS'dentist'
p40
F0.012399256044637322
sS'purpose'
p41
F0.013639181649101054
sS'pharmaceutical_#-2'
p42
F0.012399256044637322
sS'address'
p43
F0.012399256044637322
sS'date'
p44
F0.012399256044637322
sS'The'
p45
F0.013639181649101054
sS'law'
p46
F0.019838809671419714
sS'products_#-1'
p47
F0.012399256044637322
sS'grave'
p48
F0.02727836329820211
sS'grave_#3'
p49
F0.018598884066955982
sS'Reaffirms_#-3'
p50
F0.018598884066955982
sS'prescription'
p51
F0.012399256044637322
sS'products'
p52
F0.024798512089274645
sS'accordance'
p53
F0.006199628022318661
sS'prescription_#1'
p54
F0.012399256044637322
sS'medical'
p55
F0.012399256044637322
sS'humanitarian'
p56
F0.019838809671419714
sS'Reaffirms'
p57
F0.018598884066955982
sS'sale'
p58
F0.037197768133911964
sS'accountable'
p59
F0.019838809671419714
sS'genocide'
p60
F0.018598884066955982
sS'medical_#3'
p61
F0.012399256044637322
sS'quantity'
p62
F0.012399256044637322
ssI2
(dp63
S'measures_#-3'
p64
F0.016474464579901153
sS'operations'
p65
F0.008237232289950576
sS'jurisdiction'
p66
F0.014827018121911038
sS'United'
p67
F0.047775947281713346
sS'set'
p68
F0.019769357495881382
sS'unilateral'
p69
F0.019769357495881382
sg7
F0.0008237232289950577
sg10
F0.012355848434925865
sS'States_#-2'
p70
F0.016474464579901153
sg11
F0.02800658978583196
sg12
F0.018121911037891267
sS'system'
p71
F0.01070840197693575
sS'competent'
p72
F0.007413509060955519
sS'State'
p73
F0.023064250411861616
sS'economic'
p74
F0.018945634266886325
sS'trading'
p75
F0.009884678747940691
sS'fishing'
p76
F0.019769357495881382
sS'Convention'
p77
F0.009060955518945634
sS'coercive'
p78
F0.015650741350906095
sS'organs'
p79
F0.018121911037891267
sg46
F0.01400329489291598
sS'Assembly'
p80
F0.004942339373970346
sS'Government'
p81
F0.002471169686985173
sS'provide'
p82
F0.0008237232289950577
sS'concerned'
p83
F0.008237232289950576
sS'jurisdiction_#-3'
p84
F0.009884678747940691
sS'vessels'
p85
F0.009884678747940691
sS'relevant_#1'
p86
F0.018121911037891267
sS'contained'
p87
F0.007413509060955519
sg26
F0.032948929159802305
sS'basic'
p88
F0.009884678747940691
sS'urgent'
p89
F0.016474464579901153
sg30
F0.036243822075782535
sS'countries'
p90
F0.026359143327841845
sS'conditions'
p91
F0.008237232289950576
sS'authorization'
p92
F0.008237232289950576
sS'eliminate'
p93
F0.016474464579901153
sS'relevant'
p94
F0.018945634266886325
sS'United_#3'
p95
F0.018121911037891267
sS'means'
p96
F0.008237232289950576
sS'duly'
p97
F0.009884678747940691
sS'measures'
p98
F0.047775947281713346
sS'authorities_#2'
p99
F0.008237232289950576
sS'countries_#-1'
p100
F0.016474464579901153
sS'authorities'
p101
F0.008237232289950576
sS'Urges'
p102
F0.011532125205930808
sg45
F0.004118616144975288
sS'Nations'
p103
F0.04695222405271829
sS'areas'
p104
F0.008237232289950576
sS'fly'
p105
F0.009884678747940691
sS'reflected'
p106
F0.004942339373970346
sS'Charter'
p107
F0.026359143327841845
sS'effective'
p108
F0.016474464579901153
sg53
F0.009060955518945634
sS'duly_#-1'
p109
F0.009884678747940691
sS'adopt'
p110
F0.018121911037891267
sS'organs_#2'
p111
F0.018121911037891267
sS'General'
p112
F0.0016474464579901153
sS'States'
p113
F0.03130148270181219
sS'ensure'
p114
F0.009884678747940691
sS'developing'
p115
F0.016474464579901153
sS'developing_#-2'
p116
F0.016474464579901153
sS'entitled'
p117
F0.01070840197693575
sS'resolution'
p118
F0.008237232289950576
sS'inconsistent'
p119
F0.019769357495881382
ssI3
(dp120
g8
F0.004219409282700422
sg94
F0.02109704641350211
sS'financial'
p121
F0.02531645569620253
sS'surplus'
p122
F0.012658227848101266
sS'proposed'
p123
F0.002109704641350211
sg10
F0.016877637130801686
sg23
F0.006329113924050633
sg101
F0.010548523206751054
sS'session'
p124
F0.002109704641350211
sg13
F0.004219409282700422
sg78
F0.002109704641350211
sS'statements'
p125
F0.04219409282700422
sS'programmes'
p126
F0.0189873417721519
sS'armed'
p127
F0.0189873417721519
sS'subject'
p128
F0.023206751054852322
sS'established'
p129
F0.012658227848101266
sS'functions'
p130
F0.004219409282700422
sS'documents'
p131
F0.04219409282700422
sS'police'
p132
F0.016877637130801686
sS'record'
p133
F0.023206751054852322
sg82
F0.002109704641350211
sg83
F0.02109704641350211
sg4
F0.014767932489451477
sS'informed'
p134
F0.002109704641350211
sS'arms'
p135
F0.0379746835443038
sS'legal'
p136
F0.014767932489451477
sS'weapons'
p137
F0.06751054852320675
sS'rules'
p138
F0.008438818565400843
sg25
F0.002109704641350211
sg26
F0.06329113924050633
sS'forces'
p139
F0.012658227848101266
sg91
F0.002109704641350211
sS'body'
p140
F0.05063291139240506
sS'provided'
p141
F0.016877637130801686
sg97
F0.012658227848101266
sg38
F0.012658227848101266
sg98
F0.008438818565400843
sS'management'
p142
F0.004219409282700422
sS'included'
p143
F0.023206751054852322
sS'separate'
p144
F0.02109704641350211
sg72
F0.014767932489451477
sS'requirements'
p145
F0.014767932489451477
sg46
F0.002109704641350211
sS'procedures'
p146
F0.004219409282700422
sS'stocks'
p147
F0.0379746835443038
sS'Decides'
p148
F0.02531645569620253
sg108
F0.014767932489451477
sg20
F0.002109704641350211
sS'considered'
p149
F0.006329113924050633
sS'light'
p150
F0.04219409282700422
sS'rule'
p151
F0.03375527426160337
sg113
F0.010548523206751054
sg109
F0.004219409282700422
sg114
F0.0189873417721519
sS'specific'
p152
F0.012658227848101266
sS'small'
p153
F0.035864978902953586
sS'review'
p154
F0.010548523206751054
ssI4
(dp155
g67
F0.033775633293124246
sg121
F0.007237635705669481
sg122
F0.007237635705669481
sg123
F0.0024125452352231603
sg134
F0.010856453558504222
sg10
F0.0024125452352231603
sS'pursuant'
p156
F0.019300361881785282
sS'number'
p157
F0.0048250904704463205
sS'authority'
p158
F0.0024125452352231603
sS'Commission'
p159
F0.014475271411338963
sS'Council_#-1'
p160
F0.019300361881785282
sg94
F0.009650180940892641
sg13
F0.010856453558504222
sg14
F0.016887816646562123
sS'article'
p161
F0.0012062726176115801
sS'force'
p162
F0.006031363088057901
sS'peacekeeping'
p163
F0.0012062726176115801
sg79
F0.006031363088057901
sg45
F0.008443908323281062
sg5
F0.0012062726176115801
sS'Secretary-General'
p164
F0.022919179734620022
sg130
F0.0024125452352231603
sg20
F0.019300361881785282
sg80
F0.033775633293124246
sS'additional'
p165
F0.0036188178528347406
sS'support'
p166
F0.0012062726176115801
sg124
F0.013268998793727383
sS'assistance'
p167
F0.016887816646562123
sg96
F0.0024125452352231603
sS'June'
p168
F0.013268998793727383
sg23
F0.009650180940892641
sg136
F0.0048250904704463205
sg56
F0.032569360675512665
sS'Fund'
p169
F0.014475271411338963
sg87
F0.0048250904704463205
sS'China'
p170
F0.0024125452352231603
sg26
F0.0856453558504222
sS'total'
p171
F0.009650180940892641
sg30
F0.022919179734620022
sg31
F0.009650180940892641
sg128
F0.0036188178528347406
sS'public'
p172
F0.0024125452352231603
sg140
F0.0012062726176115801
sS'activities'
p173
F0.0024125452352231603
sS'Committee'
p174
F0.030156815440289506
sS'civilian'
p175
F0.0036188178528347406
sg103
F0.03739445114595899
sS'construction'
p176
F0.0036188178528347406
sS'key'
p177
F0.0024125452352231603
sS'political'
p178
F0.0012062726176115801
sS'report'
p179
F0.013268998793727383
sg148
F0.007237635705669481
sS'Security'
p180
F0.031363088057901084
sg46
F0.0036188178528347406
sg146
F0.0036188178528347406
sS'circumstances'
p181
F0.012062726176115802
sS'period'
p182
F0.008443908323281062
sS'organizations'
p183
F0.019300361881785282
sS'level'
p184
F0.0012062726176115801
sS'1995'
p185
F0.016887816646562123
sg52
F0.0048250904704463205
sS'1997'
p186
F0.012062726176115802
sg53
F0.006031363088057901
sg149
F0.009650180940892641
sg129
F0.0036188178528347406
sg55
F0.0024125452352231603
sg90
F0.0024125452352231603
sS'organs_#-1'
p187
F0.006031363088057901
sS'budget'
p188
F0.019300361881785282
sg112
F0.04221954161640531
sg113
F0.010856453558504222
sS'information'
p189
F0.012062726176115802
sS'amount'
p190
F0.008443908323281062
sS'regular'
p191
F0.009650180940892641
sg114
F0.006031363088057901
sS'Council'
p192
F0.05066344993968637
sg152
F0.008443908323281062
sS'military'
p193
F0.0012062726176115801
sg118
F0.06031363088057901
sS'order'
p194
F0.0036188178528347406
sS'Special'
p195
F0.0036188178528347406
ssI5
(dp196
g65
F0.0014347202295552368
sg67
F0.0014347202295552368
sS'certification'
p197
F0.03156384505021521
sS'issued'
p198
F0.01721664275466284
sg13
F0.00860832137733142
sg15
F0.0028694404591104736
sS'staff'
p199
F0.0028694404591104736
sg83
F0.00860832137733142
sg33
F0.0028694404591104736
sg173
F0.007173601147776184
sg96
F0.00860832137733142
sg138
F0.011477761836441894
sg106
F0.0028694404591104736
sg179
F0.011477761836441894
sg146
F0.005738880918220947
sg104
F0.0014347202295552368
sg184
F0.01291248206599713
sg53
F0.005738880918220947
sg152
F0.00860832137733142
sg153
F0.0028694404591104736
sg68
F0.010043041606886656
sg158
F0.02295552367288379
sg73
F0.014347202295552367
sg74
F0.00860832137733142
sg126
F0.0028694404591104736
sg141
F0.0028694404591104736
sg81
F0.00430416068866571
sg144
F0.0028694404591104736
sg136
F0.015781922525107604
sS'current'
p200
F0.010043041606886656
sg87
F0.00430416068866571
sg170
F0.011477761836441894
sg27
F0.0028694404591104736
sg30
F0.00860832137733142
sg172
F0.03156384505021521
sg140
F0.0014347202295552368
sg177
F0.010043041606886656
sg43
F0.0028694404591104736
sg72
F0.00860832137733142
sg161
F0.018651362984218076
sS'foreign'
p201
F0.010043041606886656
sg190
F0.01291248206599713
sg182
F0.0014347202295552368
sg193
F0.0014347202295552368
sg94
F0.007173601147776184
sg134
F0.00430416068866571
sg157
F0.0014347202295552368
sS'private'
p202
F0.015781922525107604
sg101
F0.03299856527977044
sg171
F0.00430416068866571
sg127
F0.00430416068866571
sg142
F0.021520803443328552
sS'certificate'
p203
F0.01721664275466284
sS'illegal'
p204
F0.01721664275466284
sg166
F0.0014347202295552368
sg178
F0.010043041606886656
sg71
F0.007173601147776184
sg25
F0.011477761836441894
sg26
F0.15208034433285508
sg92
F0.00430416068866571
sg38
F0.0014347202295552368
sg176
F0.015781922525107604
sg20
F0.007173601147776184
sS'local'
p205
F0.0028694404591104736
sg195
F0.00860832137733142
sg9
F0.0028694404591104736
sg77
F0.007173601147776184
sg79
F0.00430416068866571
sg189
F0.01291248206599713
sg130
F0.005738880918220947
sg82
F0.01291248206599713
sS'personnel'
p206
F0.0028694404591104736
sg4
F0.0014347202295552368
sg163
F0.0014347202295552368
sg139
F0.007173601147776184
sS'units'
p207
F0.014347202295552367
sg114
F0.00860832137733142
sg117
F0.0014347202295552368
sg129
F0.015781922525107604
sg98
F0.005738880918220947
sg99
F0.0028694404591104736
sS'regulations'
p208
F0.01721664275466284
sg39
F0.00430416068866571
sg191
F0.00860832137733142
sg41
F0.0028694404591104736
sg143
F0.0028694404591104736
sg45
F0.08177905308464849
sg46
F0.01721664275466284
sg149
F0.0014347202295552368
sg5
F0.01721664275466284
sS'person'
p209
F0.010043041606886656
sg118
F0.0028694404591104736
ssI6
(dp210
g65
F0.0027816411682892906
sg8
F0.0013908205841446453
sg208
F0.0013908205841446453
sg67
F0.0027816411682892906
sg121
F0.009735744089012517
sS'Service'
p211
F0.030598052851182198
sg153
F0.0027816411682892906
sg199
F0.04172461752433936
sg134
F0.0013908205841446453
sg145
F0.006954102920723227
sg157
F0.015299026425591099
sg202
F0.0013908205841446453
sS'Field'
p212
F0.019471488178025034
sg162
F0.012517385257301807
sg171
F0.01808066759388039
sg127
F0.0027816411682892906
sg5
F0.0013908205841446453
sg189
F0.004172461752433936
sg130
F0.0013908205841446453
sg20
F0.0013908205841446453
sg132
F0.04172461752433936
sg165
F0.02086230876216968
sg81
F0.0027816411682892906
sg82
F0.006954102920723227
sg206
F0.030598052851182198
sg154
F0.004172461752433936
sg166
F0.02364394993045897
sg168
F0.009735744089012517
sg23
F0.0027816411682892906
sg200
F0.006954102920723227
sS'level_#1'
p213
F0.016689847009735744
sg26
F0.09040333796940195
sg139
F0.006954102920723227
sg207
F0.019471488178025034
sg30
F0.03477051460361613
sg104
F0.004172461752433936
sg33
F0.005563282336578581
sg92
F0.0013908205841446453
sg173
F0.0027816411682892906
sg175
F0.037552155771905425
sg38
F0.0013908205841446453
sg205
F0.03337969401947149
sg182
F0.008344923504867872
sS'observers'
p214
F0.027816411682892908
sg39
F0.0013908205841446453
sS'strength'
p215
F0.030598052851182198
sg143
F0.009735744089012517
sg177
F0.0027816411682892906
sg178
F0.0013908205841446453
sg101
F0.0013908205841446453
sg141
F0.0027816411682892906
sg45
F0.02364394993045897
sg146
F0.0027816411682892906
sS'approved'
p216
F0.013908205841446454
sg123
F0.012517385257301807
sg181
F0.0027816411682892906
sg106
F0.005563282336578581
sg185
F0.016689847009735744
sg186
F0.0027816411682892906
sg90
F0.0027816411682892906
sg149
F0.008344923504867872
sg91
F0.004172461752433936
sg55
F0.008344923504867872
sg184
F0.05285118219749652
sS'posts'
p217
F0.04728789986091794
sg112
F0.02364394993045897
sg164
F0.004172461752433936
sg209
F0.009735744089012517
sg114
F0.0013908205841446453
sg174
F0.0013908205841446453
sg150
F0.005563282336578581
sg179
F0.0013908205841446453
sg193
F0.05146036161335188
sg194
F0.013908205841446454
sg195
F0.006954102920723227
sS'view'
p218
F0.005563282336578581
ssI7
(dp219
g65
F0.04905660377358491
sg67
F0.033962264150943396
sg121
F0.0037735849056603774
sg7
F0.007547169811320755
sg10
F0.033962264150943396
sS'tax'
p220
F0.052830188679245285
sg74
F0.011320754716981131
sg14
F0.011320754716981131
sS'fees'
p221
F0.052830188679245285
sg166
F0.026415094339622643
sg126
F0.0037735849056603774
sg79
F0.03773584905660377
sg141
F0.01509433962264151
sg130
F0.011320754716981131
sg142
F0.0037735849056603774
sg80
F0.007547169811320755
sg165
F0.007547169811320755
sg206
F0.052830188679245285
sg154
F0.022641509433962263
sg4
F0.022641509433962263
sg178
F0.011320754716981131
sg136
F0.01509433962264151
sg163
F0.045283018867924525
sg200
F0.022641509433962263
sg25
F0.007547169811320755
sg26
F0.06792452830188679
sg30
F0.0037735849056603774
sg68
F0.0037735849056603774
sg33
F0.03018867924528302
sg173
F0.011320754716981131
sg98
F0.022641509433962263
sg103
F0.022641509433962263
sg208
F0.0037735849056603774
sg177
F0.0037735849056603774
sg43
F0.007547169811320755
sg101
F0.011320754716981131
sg152
F0.0037735849056603774
sg46
F0.04150943396226415
sg146
F0.0037735849056603774
sg216
F0.007547169811320755
sg20
F0.01509433962264151
sg183
F0.007547169811320755
sg184
F0.007547169811320755
sg108
F0.018867924528301886
sg53
F0.007547169811320755
sg205
F0.007547169811320755
sg56
F0.0037735849056603774
sg187
F0.026415094339622643
sg201
F0.026415094339622643
sg113
F0.007547169811320755
sg133
F0.0037735849056603774
sg114
F0.011320754716981131
sg153
F0.0037735849056603774
sg193
F0.0037735849056603774
sg194
F0.0037735849056603774
sg218
F0.03018867924528302
ss.