(dp0
I1
(dp1
S'control'
p2
F0.026865671641791045
sS'continues_#-3'
p3
F0.027860696517412936
sS'financial'
p4
F0.06368159203980099
sS'budgetary'
p5
F0.025870646766169153
sS'internal_#1'
p6
F0.027860696517412936
sS'tax'
p7
F0.027860696517412936
sS'high'
p8
F0.027860696517412936
sS'services'
p9
F0.029850746268656716
sS'Noting'
p10
F0.027860696517412936
sS'Territory'
p11
F0.045771144278606964
sS'disasters'
p12
F0.027860696517412936
sS'established'
p13
F0.001990049751243781
sS'limited'
p14
F0.029850746268656716
sS'Government'
p15
F0.03582089552238806
sS'significant_#-2'
p16
F0.027860696517412936
sS'internal'
p17
F0.027860696517412936
sS'deficit'
p18
F0.027860696517412936
sS'problems_#3'
p19
F0.027860696517412936
sS'recent'
p20
F0.027860696517412936
sS'compounded'
p21
F0.026865671641791045
sS'government'
p22
F0.027860696517412936
sS'continues'
p23
F0.028855721393034824
sS'problems'
p24
F0.029850746268656716
sS'control_#2'
p25
F0.027860696517412936
sS'base'
p26
F0.027860696517412936
sS'significant'
p27
F0.031840796019900496
sS'demand'
p28
F0.028855721393034824
sS'financial_#-1'
p29
F0.029850746268656716
sS'rapidly'
p30
F0.029850746268656716
sS'condition'
p31
F0.027860696517412936
sS'population'
p32
F0.028855721393034824
sS'organizations'
p33
F0.0009950248756218905
sS'natural'
p34
F0.027860696517412936
sS'country'
p35
F0.0009950248756218905
sS'economic'
p36
F0.029850746268656716
sS'growing'
p37
F0.027860696517412936
ssI2
(dp38
S'operations'
p39
F0.005654281098546042
sS'United'
p40
F0.05331179321486268
sS'existing'
p41
F0.013731825525040387
sS'planning'
p42
F0.0008077544426494346
sS'including'
p43
F0.007269789983844911
sS'staff'
p44
F0.0016155088852988692
sS'based'
p45
F0.004846526655896607
sS'Secretariat'
p46
F0.012924071082390954
sS'implementation'
p47
F0.004038772213247173
sS'concerned'
p48
F0.004846526655896607
sS'adequate'
p49
F0.006462035541195477
sS'administrative'
p50
F0.007269789983844911
sS'resources'
p51
F0.045234248788368334
sS'activities'
p52
F0.008885298869143781
sg22
F0.0008077544426494346
sg23
F0.0008077544426494346
sS'number'
p53
F0.004846526655896607
sS'report'
p54
F0.012924071082390954
sS'resources_#1'
p55
F0.0210016155088853
sS'procedures'
p56
F0.01615508885298869
sS'level'
p57
F0.009693053311793215
sS'fully'
p58
F0.008885298869143781
sS'1996'
p59
F0.004038772213247173
sS'specific'
p60
F0.004846526655896607
sS'session'
p61
F0.0210016155088853
sS'common'
p62
F0.0008077544426494346
sS'Advisory'
p63
F0.007269789983844911
sg4
F0.025848142164781908
sS'disaster'
p64
F0.011308562197092083
sS'national'
p65
F0.0024232633279483036
sS'revised'
p66
F0.0024232633279483036
sg36
F0.0008077544426494346
sS'programmes'
p67
F0.004846526655896607
sS'special'
p68
F0.0210016155088853
sS'living'
p69
F0.0008077544426494346
sS'funding'
p70
F0.005654281098546042
sS'reform'
p71
F0.006462035541195477
sS'assistance'
p72
F0.008077544426494346
sS'allocations_#1'
p73
F0.0016155088852988692
sS'current'
p74
F0.013731825525040387
sS'Fund'
p75
F0.004846526655896607
sS'cooperation'
p76
F0.008077544426494346
sS'international'
p77
F0.01050080775444265
sS'increasing'
p78
F0.0024232633279483036
sS'conditions'
p79
F0.0016155088852988692
sS'streamlined'
p80
F0.009693053311793215
sS'view'
p81
F0.0016155088852988692
sg26
F0.0008077544426494346
sS'situation'
p82
F0.009693053311793215
sS'process_#1'
p83
F0.0008077544426494346
sS'technical'
p84
F0.01050080775444265
sS'administrative_#-1'
p85
F0.0024232633279483036
sS'experience'
p86
F0.004846526655896607
sS'ensure'
p87
F0.005654281098546042
sS'Committee'
p88
F0.03877221324717286
sS'social'
p89
F0.0008077544426494346
sS'programme'
p90
F0.0016155088852988692
sS'constraints_#1'
p91
F0.004038772213247173
sg5
F0.07592891760904685
sS'primary'
p92
F0.0008077544426494346
sS'Member'
p93
F0.009693053311793215
sS'Assembly'
p94
F0.0210016155088853
sS'additional'
p95
F0.01615508885298869
sS'support'
p96
F0.008077544426494346
sS'political'
p97
F0.005654281098546042
sS'system'
p98
F0.012116316639741519
sS'reduction'
p99
F0.012116316639741519
sS'countries'
p100
F0.0024232633279483036
sS'meeting'
p101
F0.012924071082390954
sS'final'
p102
F0.0016155088852988692
sS'Governments'
p103
F0.004038772213247173
sS'sessions'
p104
F0.008077544426494346
sS'funds'
p105
F0.0016155088852988692
sS'sufficient'
p106
F0.0008077544426494346
sS'Nations'
p107
F0.04361873990306947
sg29
F0.005654281098546042
sS'promote'
p108
F0.0016155088852988692
sS'sound'
p109
F0.0024232633279483036
sg33
F0.022617124394184167
sS'financing'
p110
F0.006462035541195477
sS'developing'
p111
F0.004846526655896607
sS'local'
p112
F0.006462035541195477
sS'budget'
p113
F0.004038772213247173
sS'General'
p114
F0.024232633279483037
sS'future'
p115
F0.0008077544426494346
sS'meet'
p116
F0.01050080775444265
sS'give'
p117
F0.0016155088852988692
sS'process'
p118
F0.0008077544426494346
sS'minimum'
p119
F0.005654281098546042
sS'Secretary-General'
p120
F0.007269789983844911
sS'functions'
p121
F0.006462035541195477
sS'provide'
p122
F0.005654281098546042
sS'personnel'
p123
F0.015347334410339256
sS'responsible'
p124
F0.005654281098546042
sS'peacekeeping'
p125
F0.004846526655896607
sS'party'
p126
F0.0008077544426494346
sS'constraints'
p127
F0.004846526655896607
sS'development'
p128
F0.004846526655896607
sg13
F0.004038772213247173
sS'needs'
p129
F0.0008077544426494346
sS'allocation'
p130
F0.0032310177705977385
sg9
F0.0032310177705977385
sS'The'
p131
F0.007269789983844911
sg34
F0.005654281098546042
sS'effective'
p132
F0.004846526655896607
sS'considered'
p133
F0.011308562197092083
sS'required'
p134
F0.005654281098546042
sS'request'
p135
F0.015347334410339256
sS'States'
p136
F0.012924071082390954
sS'resolution'
p137
F0.012116316639741519
sS'order'
p138
F0.0008077544426494346
sS'bodies'
p139
F0.008885298869143781
ssI3
(dp140
g39
F0.007033997655334115
sg14
F0.0023446658851113715
sg41
F0.005861664712778429
sg43
F0.011723329425556858
sS'adjustment'
p141
F0.01875732708089097
sS'previous'
p142
F0.007033997655334115
sg45
F0.01406799531066823
sS'policy'
p143
F0.007033997655334115
sg50
F0.0011723329425556857
sg52
F0.009378663540445486
sS'period'
p144
F0.010550996483001172
sS'provision'
p145
F0.010550996483001172
sg57
F0.016412661195779603
sg58
F0.0011723329425556857
sg100
F0.0011723329425556857
sS'proposals'
p146
F0.010550996483001172
sg62
F0.008206330597889801
sS'backstopping'
p147
F0.016412661195779603
sS'trend'
p148
F0.021101992966002344
sS'estimates'
p149
F0.010550996483001172
sS'State'
p150
F0.0023446658851113715
sS'cost'
p151
F0.01406799531066823
sg67
F0.0035169988276670576
sg13
F0.009378663540445486
sg70
F0.0011723329425556857
sS'sector'
p152
F0.009378663540445486
sg15
F0.011723329425556858
sS'review'
p153
F0.007033997655334115
sg74
F0.0011723329425556857
sS'health'
p154
F0.0035169988276670576
sS'net'
p155
F0.016412661195779603
sg44
F0.0492379835873388
sg79
F0.005861664712778429
sS'public'
p156
F0.016412661195779603
sS'full'
p157
F0.007033997655334115
sg26
F0.010550996483001172
sS'advance'
p158
F0.021101992966002344
sS'actual'
p159
F0.011723329425556858
sS'involved'
p160
F0.009378663540445486
sS'taking'
p161
F0.015240328253223915
sS'factors'
p162
F0.011723329425556858
sg86
F0.009378663540445486
sS'amount'
p163
F0.01875732708089097
sg87
F0.0011723329425556857
sg88
F0.0011723329425556857
sS'major'
p164
F0.0023446658851113715
sS'relevant'
p165
F0.017584994138335287
sg5
F0.06096131301289566
sS'civil'
p166
F0.041031652989449004
sg53
F0.005861664712778429
sS'private'
p167
F0.009378663540445486
sS'total'
p168
F0.009378663540445486
sS'management'
p169
F0.0035169988276670576
sg95
F0.0011723329425556857
sS'service'
p170
F0.03985932004689332
sg96
F0.012895662368112544
sg98
F0.004689331770222743
sS'basic'
p171
F0.007033997655334115
sS'indicators'
p172
F0.01406799531066823
sg101
F0.0011723329425556857
sg105
F0.0011723329425556857
sg106
F0.0035169988276670576
sS'fund'
p173
F0.011723329425556858
sS'expenditure'
p174
F0.0035169988276670576
sS'proposals_#1'
p175
F0.010550996483001172
sS'account'
p176
F0.041031652989449004
sS'Office'
p177
F0.004689331770222743
sg59
F0.0035169988276670576
sg36
F0.0035169988276670576
sg82
F0.0011723329425556857
sg2
F0.0011723329425556857
sg117
F0.0023446658851113715
sg119
F0.0035169988276670576
sS'education'
p178
F0.010550996483001172
sg121
F0.004689331770222743
sS'requirements'
p179
F0.015240328253223915
sS'pay'
p180
F0.05509964830011723
sg124
F0.0035169988276670576
sg125
F0.008206330597889801
sg126
F0.0011723329425556857
sS'economy'
p181
F0.009378663540445486
sg69
F0.010550996483001172
sg129
F0.0011723329425556857
sg27
F0.0023446658851113715
sg9
F0.005861664712778429
sg131
F0.03634232121922626
sg20
F0.0023446658851113715
sg133
F0.0035169988276670576
sS'light'
p182
F0.005861664712778429
sg134
F0.011723329425556858
sg135
F0.0011723329425556857
sg120
F0.011723329425556858
sS'savings'
p183
F0.0011723329425556857
sS'costs'
p184
F0.016412661195779603
ssI4
(dp185
S'domestic'
p186
F0.009925558312655087
sg43
F0.017369727047146403
sS'human'
p187
F0.0008271298593879239
sS'innovative'
p188
F0.008271298593879239
sS'children'
p189
F0.023986765922249794
sg47
F0.0033085194375516956
sg48
F0.0033085194375516956
sg143
F0.0016542597187758478
sg49
F0.004962779156327543
sS'include'
p190
F0.004962779156327543
sg112
F0.0041356492969396195
sg51
F0.03391232423490488
sS'increased'
p191
F0.006617038875103391
sS'capacities'
p192
F0.004962779156327543
sS'framework'
p193
F0.011579818031430935
sS'ensure_#2'
p194
F0.009925558312655087
sS'reforms'
p195
F0.005789909015715467
sg55
F0.01240694789081886
sg100
F0.01488833746898263
sg57
F0.0016542597187758478
sg62
F0.0016542597187758478
sS'allocations'
p196
F0.013234077750206782
sg4
F0.0016542597187758478
sg65
F0.011579818031430935
sg149
F0.0008271298593879239
sg150
F0.008271298593879239
sg151
F0.0016542597187758478
sg67
F0.01240694789081886
sS'employment'
p197
F0.009925558312655087
sS'investment'
p198
F0.015715467328370553
sg68
F0.004962779156327543
sg69
F0.006617038875103391
sg70
F0.009925558312655087
sg73
F0.01240694789081886
sg74
F0.0008271298593879239
sg154
F0.0206782464846981
sg76
F0.0033085194375516956
sg77
F0.007444168734491315
sg78
F0.0033085194375516956
sg79
F0.005789909015715467
sg156
F0.014061207609594707
sg157
F0.004962779156327543
sS'transparency'
p199
F0.007444168734491315
sS'monetary'
p200
F0.007444168734491315
sS'poverty'
p201
F0.011579818031430935
sg82
F0.007444168734491315
sS'debt'
p202
F0.008271298593879239
sg83
F0.006617038875103391
sg84
F0.0016542597187758478
sg160
F0.0024813895781637717
sg36
F0.03556658395368073
sg88
F0.007444168734491315
sg89
F0.050454921422663356
sg165
F0.006617038875103391
sg5
F0.06617038875103391
sg166
F0.0033085194375516956
sS'allocation_#1'
p203
F0.010752688172043012
sg92
F0.01240694789081886
sg167
F0.006617038875103391
sg168
F0.0016542597187758478
sg170
F0.0016542597187758478
sg96
F0.0024813895781637717
sg97
F0.0008271298593879239
sS'strategy'
p204
F0.005789909015715467
sS'priority'
p205
F0.017369727047146403
sg99
F0.0008271298593879239
sS'growth'
p206
F0.011579818031430935
sg171
F0.01488833746898263
sg103
F0.004962779156327543
sg105
F0.0008271298593879239
sg106
F0.006617038875103391
sS'ensuring'
p207
F0.009925558312655087
sg174
F0.004962779156327543
sS'external'
p208
F0.008271298593879239
sg29
F0.0008271298593879239
sg108
F0.007444168734491315
sg109
F0.007444168734491315
sg110
F0.0033085194375516956
sS'rights'
p209
F0.006617038875103391
sS'transparency_#3'
p210
F0.007444168734491315
sg113
F0.0033085194375516956
sg115
F0.0016542597187758478
sS'policies'
p211
F0.021505376344086023
sg37
F0.0008271298593879239
sS'aid'
p212
F0.0016542597187758478
sS'providing'
p213
F0.011579818031430935
sg117
F0.009925558312655087
sg118
F0.008271298593879239
sg119
F0.0041356492969396195
sg178
F0.01488833746898263
sg129
F0.0008271298593879239
sS'productive'
p214
F0.016542597187758478
sS'develop'
p215
F0.011579818031430935
sS'efficient'
p216
F0.009925558312655087
sg123
F0.0008271298593879239
sg124
F0.0016542597187758478
sg126
F0.008271298593879239
sS'establishment'
p217
F0.0016542597187758478
sS'measures'
p218
F0.011579818031430935
sg130
F0.016542597187758478
sg87
F0.010752688172043012
sg9
F0.023986765922249794
sg131
F0.010752688172043012
sS'fiscal'
p219
F0.018196856906534328
sg132
F0.009098428453267164
sg182
F0.007444168734491315
sS'institutions'
p220
F0.0016542597187758478
sg136
F0.0008271298593879239
sg183
F0.011579818031430935
sS'rural'
p221
F0.009925558312655087
sg138
F0.004962779156327543
ssI5
(dp222
g14
F0.0011135857461024498
sg41
F0.0011135857461024498
sg42
F0.043429844097995544
sg187
F0.024498886414253896
sg142
F0.011135857461024499
sS'planning_#1'
p223
F0.031180400890868598
sg45
F0.005567928730512249
sg47
F0.0033407572383073497
sg48
F0.0022271714922048997
sg190
F0.005567928730512249
sg50
F0.01893095768374165
sg51
F0.025612472160356347
sg52
F0.008908685968819599
sg191
F0.015590200445434299
sg22
F0.01002227171492205
sS'reflected'
p224
F0.017817371937639197
sg54
F0.004454342984409799
sg55
F0.0066815144766146995
sg145
F0.004454342984409799
sg59
F0.004454342984409799
sg146
F0.01002227171492205
sS'NPC'
p225
F0.015590200445434299
sg60
F0.0066815144766146995
sg62
F0.0066815144766146995
sg196
F0.0033407572383073497
sg90
F0.034521158129175944
sg4
F0.0200445434298441
sS'Section'
p226
F0.017817371937639197
sg66
F0.005567928730512249
sg151
F0.0011135857461024498
sg198
F0.0011135857461024498
sg68
F0.004454342984409799
sg13
F0.0011135857461024498
sg71
F0.01893095768374165
sg153
F0.008908685968819599
sg74
F0.013363028953229399
sg75
F0.0022271714922048997
sS'China'
p227
F0.017817371937639197
sg18
F0.013363028953229399
sg76
F0.0077951002227171495
sg44
F0.0033407572383073497
sg156
F0.0011135857461024498
sg157
F0.0022271714922048997
sS'central'
p228
F0.031180400890868598
sg84
F0.01670378619153675
sg35
F0.0022271714922048997
sg85
F0.012249443207126948
sg163
F0.0011135857461024498
sg36
F0.004454342984409799
sg88
F0.0066815144766146995
sg89
F0.0022271714922048997
sg81
F0.005567928730512249
sg164
F0.0033407572383073497
sg165
F0.0011135857461024498
sg5
F0.09688195991091314
sg166
F0.0022271714922048997
sg144
F0.0022271714922048997
sg168
F0.004454342984409799
sg169
F0.01002227171492205
sg95
F0.0033407572383073497
sg97
F0.0033407572383073497
sg98
F0.015590200445434299
sg205
F0.0011135857461024498
sg101
F0.0011135857461024498
sg102
F0.011135857461024499
sg104
F0.0066815144766146995
sg174
F0.012249443207126948
sg28
F0.01002227171492205
sg175
F0.0077951002227171495
sg108
F0.0011135857461024498
sg109
F0.0022271714922048997
sg63
F0.005567928730512249
sg176
F0.0033407572383073497
sS'main'
p229
F0.0022271714922048997
sg177
F0.01002227171492205
sg209
F0.015590200445434299
sg210
F0.0033407572383073497
sg113
F0.066815144766147
sg114
F0.004454342984409799
sg115
F0.012249443207126948
sg199
F0.0033407572383073497
sg116
F0.0066815144766146995
sS'information'
p230
F0.01893095768374165
sg129
F0.0011135857461024498
sg216
F0.008908685968819599
sg180
F0.0033407572383073497
sg125
F0.0011135857461024498
sg128
F0.0011135857461024498
sg24
F0.004454342984409799
sS'biennium'
p231
F0.031180400890868598
sg27
F0.0022271714922048997
sg9
F0.012249443207126948
sg131
F0.024498886414253896
sg34
F0.0011135857461024498
sg134
F0.0011135857461024498
sg220
F0.0022271714922048997
sg122
F0.0011135857461024498
sg183
F0.0011135857461024498
sg138
F0.008908685968819599
ssI6
(dp232
g39
F0.0026064291920069507
sg14
F0.0008688097306689834
sg186
F0.0034752389226759338
sg41
F0.0008688097306689834
sg42
F0.005212858384013901
sg43
F0.0069504778453518675
sg187
F0.004344048653344918
sg188
F0.0017376194613379669
sg141
F0.005212858384013901
sg189
F0.0026064291920069507
sS'issues'
p233
F0.019113814074717638
sg44
F0.0008688097306689834
sg45
F0.0008688097306689834
sg47
F0.008688097306689836
sS'environment'
p234
F0.010425716768027803
sg143
F0.029539530842745437
sg49
F0.008688097306689836
sg229
F0.008688097306689836
sg50
F0.007819287576020852
sg51
F0.010425716768027803
sg52
F0.0008688097306689834
sg21
F0.0008688097306689834
sg22
F0.0017376194613379669
sg192
F0.005212858384013901
sg144
F0.004344048653344918
sg193
F0.005212858384013901
sg195
F0.004344048653344918
sg55
F0.011294526498696786
sg145
F0.0026064291920069507
sg57
F0.005212858384013901
sg100
F0.029539530842745437
sg60
F0.0017376194613379669
sg62
F0.0017376194613379669
sg196
F0.009556907037358819
sg71
F0.0026064291920069507
sg127
F0.01216333622936577
sg4
F0.026064291920069503
sg65
F0.007819287576020852
sg66
F0.0034752389226759338
sg149
F0.0017376194613379669
sg150
F0.015638575152041704
sg151
F0.0008688097306689834
sg67
F0.010425716768027803
sg198
F0.0034752389226759338
sg68
F0.0034752389226759338
sg82
F0.005212858384013901
sg13
F0.008688097306689836
sg152
F0.013900955690703735
sg162
F0.0034752389226759338
sg72
F0.008688097306689836
sg73
F0.007819287576020852
sg74
F0.0026064291920069507
sg75
F0.0017376194613379669
sg154
F0.0017376194613379669
sg76
F0.004344048653344918
sg77
F0.01737619461337967
sg78
F0.006081668114682885
sg79
F0.0034752389226759338
sg156
F0.0069504778453518675
sg81
F0.004344048653344918
sg200
F0.006081668114682885
sg116
F0.009556907037358819
sg202
F0.0034752389226759338
sg159
F0.0017376194613379669
sg84
F0.0017376194613379669
sg160
F0.0008688097306689834
sg161
F0.0008688097306689834
sg85
F0.008688097306689836
sg163
F0.0008688097306689834
sg87
F0.014769765421372719
sg89
F0.013900955690703735
sg90
F0.007819287576020852
sg91
F0.007819287576020852
sg164
F0.009556907037358819
sg5
F0.08601216333622937
sg166
F0.0008688097306689834
sg203
F0.0008688097306689834
sg53
F0.009556907037358819
sg167
F0.0034752389226759338
sg204
F0.004344048653344918
sg169
F0.0069504778453518675
sg96
F0.01737619461337967
sg97
F0.006081668114682885
sg98
F0.004344048653344918
sg153
F0.0017376194613379669
sg103
F0.0026064291920069507
sg105
F0.01216333622936577
sg106
F0.0017376194613379669
sg173
F0.0017376194613379669
sg208
F0.005212858384013901
sg28
F0.0017376194613379669
sg83
F0.006081668114682885
sg108
F0.005212858384013901
sg32
F0.004344048653344918
sg33
F0.004344048653344918
sg190
F0.006081668114682885
sS'sectors'
p235
F0.010425716768027803
sg177
F0.0026064291920069507
sg111
F0.010425716768027803
sg112
F0.006081668114682885
sg113
F0.0008688097306689834
sg36
F0.009556907037358819
sg211
F0.0069504778453518675
sg35
F0.007819287576020852
sg37
F0.006081668114682885
sg212
F0.010425716768027803
sg2
F0.0069504778453518675
sg134
F0.013900955690703735
sg118
F0.02519548218940052
sg7
F0.0034752389226759338
sg129
F0.008688097306689836
sg8
F0.0017376194613379669
sg119
F0.0008688097306689834
sg178
F0.0008688097306689834
sg136
F0.0008688097306689834
sS'educational'
p236
F0.010425716768027803
sg179
F0.006081668114682885
sg122
F0.008688097306689836
sg124
F0.0017376194613379669
sg17
F0.005212858384013901
sg217
F0.008688097306689836
sg181
F0.0069504778453518675
sg128
F0.023457862728062554
sg230
F0.006081668114682885
sg218
F0.015638575152041704
sg24
F0.0034752389226759338
sg121
F0.0017376194613379669
sg130
F0.005212858384013901
sg9
F0.0008688097306689834
sg131
F0.02519548218940052
sg20
F0.0017376194613379669
sg219
F0.005212858384013901
sg132
F0.007819287576020852
sg133
F0.0008688097306689834
sg182
F0.0017376194613379669
sg15
F0.0017376194613379669
sg135
F0.0017376194613379669
sg138
F0.007819287576020852
sg120
F0.0008688097306689834
sg137
F0.0008688097306689834
sg220
F0.01737619461337967
sg139
F0.0008688097306689834
ss.