(dp0
I1
(dp1
S'major'
p2
F0.0087890625
sS'United'
p3
F0.0009765625
sS'process'
p4
F0.0087890625
sS'global'
p5
F0.0244140625
sS'community'
p6
F0.0048828125
sS'development_#-2'
p7
F0.013671875
sS'stability'
p8
F0.01171875
sS'Action'
p9
F0.0048828125
sS'OAU'
p10
F0.0078125
sS'economic'
p11
F0.08203125
sS'Republic'
p12
F0.005859375
sS'relations'
p13
F0.0078125
sS'human'
p14
F0.0009765625
sS'need'
p15
F0.0029296875
sS'nations'
p16
F0.013671875
sS'continent'
p17
F0.103515625
sS'situation'
p18
F0.005859375
sS'promote'
p19
F0.005859375
sS'based'
p20
F0.005859375
sS'nuclear'
p21
F0.0078125
sS'assistance'
p22
F0.0009765625
sS'peace'
p23
F0.001953125
sS'political'
p24
F0.0263671875
sS'integration'
p25
F0.01171875
sS'cent'
p26
F0.009765625
sS'economic_#-3'
p27
F0.01171875
sS'environment'
p28
F0.001953125
sS'reduction'
p29
F0.0087890625
sS'growth'
p30
F0.021484375
sS'investment'
p31
F0.001953125
sS'cooperation'
p32
F0.0068359375
sS'peaceful'
p33
F0.013671875
sS'President'
p34
F0.013671875
sS'increasing'
p35
F0.0009765625
sS'conditions'
p36
F0.025390625
sS'today'
p37
F0.0068359375
sS'economy'
p38
F0.015625
sS'development'
p39
F0.064453125
sS'regional'
p40
F0.0068359375
sS'rich'
p41
F0.0029296875
sS'organizations'
p42
F0.0009765625
sS'peoples'
p43
F0.0078125
sS'problems'
p44
F0.0029296875
sS'African_#-1'
p45
F0.0224609375
sS'sustainable'
p46
F0.0224609375
sS'part'
p47
F0.013671875
sS'poverty'
p48
F0.0107421875
sS'Agenda'
p49
F0.015625
sS'African'
p50
F0.0673828125
sS'conflicts'
p51
F0.0009765625
sS'sustained'
p52
F0.01171875
sS'The'
p53
F0.001953125
sS'aware'
p54
F0.005859375
sS'areas'
p55
F0.0068359375
sS'entire'
p56
F0.001953125
sS'population'
p57
F0.01171875
sS'effective'
p58
F0.0087890625
sS'countries'
p59
F0.048828125
sS'country'
p60
F0.0126953125
sS'region'
p61
F0.0009765625
sS'developing'
p62
F0.0068359375
sS'Africa'
p63
F0.0546875
sS'foreign'
p64
F0.0009765625
sS'States'
p65
F0.0029296875
sS'future'
p66
F0.0029296875
sS'ensure'
p67
F0.0087890625
sS'international'
p68
F0.0029296875
sS'social'
p69
F0.05078125
sS'action'
p70
F0.0009765625
sS'instability'
p71
F0.0009765625
sS'efforts'
p72
F0.0048828125
sS'democratic'
p73
F0.00390625
ssI2
(dp74
g2
F0.00298804780876494
sg3
F0.04282868525896414
sS'financial'
p75
F0.0099601593625498
sg14
F0.03286852589641434
sg71
F0.012948207171314742
sS'national'
p76
F0.0099601593625498
sg5
F0.013944223107569721
sg6
F0.01593625498007968
sS'strategic'
p77
F0.00796812749003984
sg10
F0.00298804780876494
sg11
F0.035856573705179286
sg12
F0.00597609561752988
sS'enhanced'
p78
F0.00199203187250996
sS'support'
p79
F0.00199203187250996
sS'armed'
p80
F0.01195219123505976
sg17
F0.10159362549800798
sS'special'
p81
F0.01195219123505976
sg18
F0.01593625498007968
sS'trade'
p82
F0.00597609561752988
sS'needs'
p83
F0.01195219123505976
sg19
F0.00796812749003984
sg21
F0.00099601593625498
sg22
F0.00199203187250996
sg23
F0.012948207171314742
sg24
F0.0099601593625498
sg68
F0.044820717131474105
sg13
F0.00099601593625498
sg28
F0.0099601593625498
sS'role'
p84
F0.010956175298804782
sg41
F0.008964143426294821
sg43
F0.00099601593625498
sg34
F0.00099601593625498
sg36
F0.00398406374501992
sS'achieve'
p85
F0.014940239043824702
sg45
F0.0348605577689243
sg39
F0.02091633466135458
sg42
F0.012948207171314742
sS'This'
p86
F0.00398406374501992
sg40
F0.014940239043824702
sg44
F0.014940239043824702
sS'Nations'
p87
F0.025896414342629483
sg46
F0.00398406374501992
sg48
F0.010956175298804782
sS'external'
p88
F0.00099601593625498
sS'burden'
p89
F0.00199203187250996
sg50
F0.03187250996015936
sg51
F0.025896414342629483
sg53
F0.03187250996015936
sg54
F0.00199203187250996
sS'security'
p90
F0.0069721115537848604
sg56
F0.01195219123505976
sg37
F0.0069721115537848604
sS'natural'
p91
F0.035856573705179286
sS'especially'
p92
F0.008964143426294821
sg58
F0.00199203187250996
sg62
F0.00099601593625498
sg61
F0.00597609561752988
sS'level'
p93
F0.01593625498007968
sg63
F0.052788844621513946
sg64
F0.00099601593625498
sg65
F0.014940239043824702
sS'private'
p94
F0.00099601593625498
sg66
F0.00199203187250996
sg67
F0.00099601593625498
sS'resources'
p95
F0.04083665338645418
sg69
F0.02390438247011952
sg70
F0.00199203187250996
sS'including'
p96
F0.00597609561752988
sg72
F0.012948207171314742
sg73
F0.010956175298804782
sS'order'
p97
F0.008964143426294821
ssI3
(dp98
g2
F0.006666666666666667
sS'official'
p99
F0.04666666666666667
sg75
F0.013333333333333334
sS'century'
p100
F0.0033333333333333335
sg76
F0.02
sg5
F0.0033333333333333335
sg6
F0.016666666666666666
sg82
F0.0033333333333333335
sg96
F0.023333333333333334
sg13
F0.0033333333333333335
sg78
F0.03333333333333333
sg15
F0.013333333333333334
sg17
F0.06333333333333334
sg20
F0.0033333333333333335
sg22
F0.056666666666666664
sg79
F0.013333333333333334
sg26
F0.006666666666666667
sg31
F0.04666666666666667
sg29
F0.0033333333333333335
sg84
F0.016666666666666666
sg68
F0.05
sg35
F0.04
sg85
F0.013333333333333334
sg39
F0.056666666666666664
sg86
F0.0033333333333333335
sg44
F0.006666666666666667
sg54
F0.013333333333333334
sg48
F0.0033333333333333335
sg88
F0.043333333333333335
sg89
F0.05333333333333334
sg50
F0.016666666666666666
sg51
F0.0033333333333333335
sS'debt'
p101
F0.08
sg93
F0.006666666666666667
sg92
F0.0033333333333333335
sg62
F0.016666666666666666
sg60
F0.0033333333333333335
sg61
F0.0033333333333333335
sg59
F0.03333333333333333
sg64
F0.04666666666666667
sg94
F0.03
sg95
F0.023333333333333334
sg69
F0.0033333333333333335
sg70
F0.013333333333333334
sg18
F0.023333333333333334
sg72
F0.0033333333333333335
sg97
F0.01
ssI4
(dp102
g2
F0.011029411764705883
sg3
F0.003676470588235294
sg75
F0.014705882352941176
sg100
F0.016544117647058824
sg4
F0.0055147058823529415
sg76
F0.007352941176470588
sg5
F0.003676470588235294
sg6
F0.01838235294117647
sg77
F0.007352941176470588
sg8
F0.011029411764705883
sg10
F0.001838235294117647
sg37
F0.003676470588235294
sg96
F0.001838235294117647
sg15
F0.02022058823529412
sg17
F0.15625
sS'European'
p103
F0.022058823529411766
sS'Europe'
p104
F0.025735294117647058
sg82
F0.009191176470588236
sS'mutual'
p105
F0.022058823529411766
sg20
F0.012867647058823529
sg21
F0.0055147058823529415
sg22
F0.007352941176470588
sg23
F0.04595588235294118
sg24
F0.02389705882352941
sg13
F0.014705882352941176
sg28
F0.011029411764705883
sg29
F0.003676470588235294
sS'China'
p106
F0.025735294117647058
sg32
F0.04595588235294118
sg33
F0.003676470588235294
sg34
F0.0055147058823529415
sg35
F0.001838235294117647
sg85
F0.001838235294117647
sg39
F0.011029411764705883
sg86
F0.016544117647058824
sg84
F0.003676470588235294
sg43
F0.016544117647058824
sg44
F0.003676470588235294
sg45
F0.003676470588235294
sg46
F0.001838235294117647
sg48
F0.001838235294117647
sg94
F0.003676470588235294
sg68
F0.05698529411764706
sg9
F0.001838235294117647
sg53
F0.01838235294117647
sg87
F0.003676470588235294
sg90
F0.03860294117647059
sg55
F0.016544117647058824
sg92
F0.007352941176470588
sg58
F0.0055147058823529415
sg59
F0.03308823529411765
sg60
F0.007352941176470588
sg61
F0.011029411764705883
sg62
F0.0055147058823529415
sg63
F0.016544117647058824
sg65
F0.007352941176470588
sg66
F0.02022058823529412
sg67
F0.007352941176470588
sS'common'
p107
F0.025735294117647058
sg69
F0.001838235294117647
sg70
F0.009191176470588236
sg18
F0.009191176470588236
sg72
F0.012867647058823529
sg73
F0.0055147058823529415
sg79
F0.022058823529411766
sS'south'
p108
F0.022058823529411766
ss.