(dp0
I1
(dp1
S'national_#3'
p2
F0.026473099914602904
sS'effective_#2'
p3
F0.025619128949615714
sS'Group'
p4
F0.0017079419299743809
sS'hunger'
p5
F0.025619128949615714
sS'inadequate'
p6
F0.035866780529461996
sS'national'
p7
F0.026473099914602904
sS'displacement'
p8
F0.018787361229718188
sS'community'
p9
F0.0008539709649871904
sS'urgent'
p10
F0.027327070879590094
sS'economic'
p11
F0.030742954739538857
sS'migration'
p12
F0.013663535439795047
sS'protection_#-1'
p13
F0.010247651579846286
sS'armed'
p14
F0.028181041844577284
sS'disasters'
p15
F0.029035012809564473
sS'exploitation'
p16
F0.025619128949615714
sS'provide'
p17
F0.0017079419299743809
sS'legal_#-2'
p18
F0.010247651579846286
sS'concerned'
p19
F0.027327070879590094
sS'unemployment'
p20
F0.013663535439795047
sS'disability'
p21
F0.02220324508966695
sS'system'
p22
F0.0008539709649871904
sS'legal'
p23
F0.010247651579846286
sS'children'
p24
F0.027327070879590094
sS'critical'
p25
F0.027327070879590094
sS'international'
p26
F0.024765157984628524
sS'rural-to-urban'
p27
F0.013663535439795047
sS'conditions'
p28
F0.026473099914602904
sS'drug_#-2'
p29
F0.009393680614859094
sS'conflict'
p30
F0.0017079419299743809
sS'economy'
p31
F0.005123825789923143
sS'intolerance'
p32
F0.02391118701964133
sS'urgent_#1'
p33
F0.026473099914602904
sS'protection'
p34
F0.010247651579846286
sS'poverty'
p35
F0.02049530315969257
sS'inadequate_#-3'
p36
F0.010247651579846286
sS'conflicts'
p37
F0.027327070879590094
sS'The'
p38
F0.0008539709649871904
sS'convinced'
p39
F0.02391118701964133
sS'organizations'
p40
F0.0008539709649871904
sS'natural'
p41
F0.029035012809564473
sS'effective'
p42
F0.025619128949615714
sS'illiteracy'
p43
F0.025619128949615714
sS'parts'
p44
F0.028181041844577284
sS'drug'
p45
F0.009393680614859094
sS'Profoundly'
p46
F0.02391118701964133
sS'remains'
p47
F0.025619128949615714
sS'social'
p48
F0.029035012809564473
sS'action'
p49
F0.028181041844577284
sS'situation'
p50
F0.026473099914602904
sS'conclusion'
p51
F0.0008539709649871904
sS'called'
p52
F0.028181041844577284
sS'result'
p53
F0.027327070879590094
ssI2
(dp54
S'United'
p55
F0.028530670470756064
sS'point'
p56
F0.03138373751783167
sS'Deeply'
p57
F0.03138373751783167
sS'purposes'
p58
F0.03281027104136947
sS'outer'
p59
F0.03138373751783167
sS'space'
p60
F0.03138373751783167
sg17
F0.03138373751783167
sS'broad'
p61
F0.0014265335235378032
sS'common_#1'
p62
F0.029957203994293864
sS'field'
p63
F0.03138373751783167
sS'promoting'
p64
F0.03138373751783167
sS'interest'
p65
F0.03138373751783167
sS'peaceful'
p66
F0.03138373751783167
sS'objective'
p67
F0.0014265335235378032
sg26
F0.03281027104136947
sS'therefrom'
p68
F0.03138373751783167
sS'cooperation'
p69
F0.029957203994293864
sS'extend'
p70
F0.03138373751783167
sS'importance'
p71
F0.03281027104136947
sS'derived'
p72
F0.03281027104136947
sS'continuing'
p73
F0.03138373751783167
sS'Nations'
p74
F0.03138373751783167
sS'mankind'
p75
F0.034236804564907276
sg39
F0.02282453637660485
sS'interest_#2'
p76
F0.029957203994293864
sS'focal'
p77
F0.03138373751783167
sS'benefits'
p78
F0.029957203994293864
sS'Deeply_#-1'
p79
F0.03281027104136947
sS'States'
p80
F0.028530670470756064
sS'mankind_#3'
p81
F0.03138373751783167
sS'continue'
p82
F0.03138373751783167
sS'exploration'
p83
F0.03138373751783167
sS'common'
p84
F0.03138373751783167
sS'Council'
p85
F0.0014265335235378032
sS'efforts'
p86
F0.03281027104136947
ssI3
(dp87
S'universally'
p88
F0.010948905109489052
sg55
F0.025547445255474453
sg4
F0.0009124087591240876
sS'century'
p89
F0.0009124087591240876
sS'civil'
p90
F0.010948905109489052
sg57
F0.011861313868613138
sS'universal'
p91
F0.0009124087591240876
sS'encouraging'
p92
F0.012773722627737226
sS'existing'
p93
F0.01551094890510949
sS'social_#-2'
p94
F0.009124087591240875
sS'society'
p95
F0.005474452554744526
sS'necessity_#1'
p96
F0.009124087591240875
sg11
F0.028284671532846715
sS'human'
p97
F0.06934306569343066
sS'strengthen'
p98
F0.010036496350364963
sS'respect'
p99
F0.04470802919708029
sS'resolutions'
p100
F0.010948905109489052
sS'action_#3'
p101
F0.012773722627737226
sS'principles'
p102
F0.01551094890510949
sg65
F0.0072992700729927005
sS'His'
p103
F0.0009124087591240876
sS'based'
p104
F0.012773722627737226
sS'basis'
p105
F0.0009124087591240876
sg61
F0.012773722627737226
sS'political'
p106
F0.023722627737226276
sS'humanitarian'
p107
F0.0009124087591240876
sg63
F0.012773722627737226
sg44
F0.009124087591240875
sg64
F0.012773722627737226
sg69
F0.01551094890510949
sS'basic'
p108
F0.01551094890510949
sg26
F0.02281021897810219
sS'criminal'
p109
F0.005474452554744526
sS'strict'
p110
F0.012773722627737226
sS'United_#1'
p111
F0.013686131386861315
sS'full'
p112
F0.025547445255474453
sS'fundamental'
p113
F0.025547445255474453
sS'torture'
p114
F0.010948905109489052
sS'enjoyment'
p115
F0.010948905109489052
sS'regard'
p116
F0.020072992700729927
sS'problems'
p117
F0.012773722627737226
sg74
F0.024635036496350366
sS'cultural'
p118
F0.009124087591240875
sS'Reaffirming'
p119
F0.012773722627737226
sS'necessity'
p120
F0.010036496350364963
sg58
F0.012773722627737226
sS'Nations_#2'
p121
F0.014598540145985401
sS'understanding'
p122
F0.012773722627737226
sg39
F0.03102189781021898
sS'realities'
p123
F0.012773722627737226
sS'societies'
p124
F0.012773722627737226
sS'rights'
p125
F0.0666058394160584
sg40
F0.0009124087591240876
sS'Charter'
p126
F0.01916058394160584
sS'freedoms'
p127
F0.01824817518248175
sS'profound'
p128
F0.012773722627737226
sS'fully'
p129
F0.012773722627737226
sS'compliance'
p130
F0.012773722627737226
sg79
F0.010036496350364963
sS'range'
p131
F0.014598540145985401
sg82
F0.010036496350364963
sg85
F0.0018248175182481751
sg48
F0.02645985401459854
sg49
F0.013686131386861315
sg86
F0.010948905109489052
sg52
F0.0009124087591240876
sS'rights_#-1'
p132
F0.010948905109489052
sS'purpose'
p133
F0.012773722627737226
ssI4
(dp134
g55
F0.03514376996805112
sS'help'
p135
F0.011182108626198083
sS'global'
p136
F0.005591054313099041
sS'results'
p137
F0.0007987220447284345
sg93
F0.003993610223642172
sg96
F0.001597444089456869
sS'Republic'
p138
F0.004792332268370607
sS'weapons'
p139
F0.009584664536741214
sg103
F0.00878594249201278
sS'The_#-3'
p140
F0.006389776357827476
sg19
F0.006389776357827476
sS'instrument'
p141
F0.011182108626198083
sS'potential'
p142
F0.003194888178913738
sS'stable'
p143
F0.003194888178913738
sS'policy'
p144
F0.0007987220447284345
sS'achieve'
p145
F0.001597444089456869
sS'activities'
p146
F0.019968051118210862
sS'regional'
p147
F0.016773162939297124
sS'joint'
p148
F0.003194888178913738
sS'Organization'
p149
F0.010383386581469648
sS'level'
p150
F0.006389776357827476
sg82
F0.0023961661341853034
sg84
F0.00718849840255591
sg85
F0.003993610223642172
sS'sustainable'
p151
F0.003993610223642172
sS'security'
p152
F0.011182108626198083
sS'difficult'
p153
F0.001597444089456869
sg3
F0.003194888178913738
sS'financial'
p154
F0.006389776357827476
sg7
F0.00718849840255591
sS'delegation'
p155
F0.018370607028753993
sg95
F0.003993610223642172
sS'nuclear'
p156
F0.031150159744408944
sg23
F0.0007987220447284345
sS'current'
p157
F0.009584664536741214
sg25
F0.001597444089456869
sg69
F0.0231629392971246
sg26
F0.06869009584664537
sS'approach'
p158
F0.001597444089456869
sS'participation'
p159
F0.009584664536741214
sg112
F0.0007987220447284345
sg71
F0.0007987220447284345
sS'remains_#-1'
p160
F0.00878594249201278
sg104
F0.001597444089456869
sg121
F0.0023961661341853034
sS'strong'
p161
F0.001597444089456869
sg76
F0.0007987220447284345
sg78
F0.001597444089456869
sS'technical'
p162
F0.009584664536741214
sS'region'
p163
F0.003993610223642172
sS'equal'
p164
F0.0007987220447284345
sS'levels'
p165
F0.001597444089456869
sS'ensure'
p166
F0.009584664536741214
sg48
F0.0007987220447284345
sg49
F0.006389776357827476
sg86
F0.00718849840255591
sS'relevant'
p167
F0.0007987220447284345
sg4
F0.003993610223642172
sg90
F0.001597444089456869
sS'disarmament'
p168
F0.00878594249201278
sg9
F0.016773162939297124
sS'parties'
p169
F0.004792332268370607
sg99
F0.0007987220447284345
sg14
F0.001597444089456869
sS'Assembly'
p170
F0.01597444089456869
sg105
F0.018370607028753993
sg47
F0.009584664536741214
sS'create'
p171
F0.003194888178913738
sg22
F0.009584664536741214
sg98
F0.006389776357827476
sS'agreements'
p172
F0.00718849840255591
sg108
F0.003194888178913738
sg110
F0.0023961661341853034
sg66
F0.0023961661341853034
sg74
F0.031150159744408944
sS'representative'
p173
F0.011182108626198083
sS'promote'
p174
F0.007987220447284345
sg39
F0.1062300319488818
sg40
F0.004792332268370607
sS'consequences'
p175
F0.0007987220447284345
sS'General'
p176
F0.012779552715654952
sS'delegation_#-1'
p177
F0.01437699680511182
sS'future'
p178
F0.011980830670926517
sS'resources'
p179
F0.011980830670926517
sg89
F0.0023961661341853034
sS'process'
p180
F0.0007987220447284345
sg91
F0.015175718849840255
sg58
F0.0007987220447284345
sg101
F0.003194888178913738
sS'firmly'
p181
F0.0007987220447284345
sS'genuine'
p182
F0.001597444089456869
sg17
F0.001597444089456869
sS'peace'
p183
F0.006389776357827476
sg44
F0.0007987220447284345
sS'role'
p184
F0.006389776357827476
sg67
F0.00718849840255591
sS'effectiveness'
p185
F0.006389776357827476
sg30
F0.003993610223642172
sg51
F0.005591054313099041
sS'development'
p186
F0.013578274760383386
sg111
F0.003993610223642172
sg115
F0.001597444089456869
sS'comprehensive'
p187
F0.019169329073482427
sS'measures'
p188
F0.006389776357827476
sg117
F0.0023961661341853034
sS'important'
p189
F0.007987220447284345
sg75
F0.001597444089456869
sg38
F0.013578274760383386
sg41
F0.0007987220447284345
sS'bilateral'
p190
F0.00718849840255591
sg42
F0.022364217252396165
sS'considered'
p191
F0.0023961661341853034
sg107
F0.0007987220447284345
sS'treaty'
p192
F0.00878594249201278
sg80
F0.019169329073482427
sg113
F0.004792332268370607
sS'democratic'
p193
F0.006389776357827476
sS'resolution'
p194
F0.00718849840255591
sS'order'
p195
F0.011182108626198083
ssI5
(dp196
g2
F0.0016556291390728477
sg55
F0.004966887417218543
sg4
F0.006622516556291391
sS'leaders'
p197
F0.018211920529801324
sg89
F0.006622516556291391
sg42
F0.014900662251655629
sg7
F0.006622516556291391
sg137
F0.014900662251655629
sg122
F0.013245033112582781
sg95
F0.006622516556291391
sg96
F0.013245033112582781
sg11
F0.057947019867549666
sS'progress'
p198
F0.0016556291390728477
sg99
F0.0033112582781456954
sg154
F0.019867549668874173
sS'adjustment'
p199
F0.026490066225165563
sg14
F0.0033112582781456954
sS'law'
p200
F0.0016556291390728477
sg103
F0.0033112582781456954
sS'Government'
p201
F0.028145695364238412
sg47
F0.0016556291390728477
sg61
F0.0016556291390728477
sS'support'
p202
F0.018211920529801324
sg145
F0.018211920529801324
sS'relations'
p203
F0.014900662251655629
sg63
F0.0016556291390728477
sg25
F0.0033112582781456954
sS'growth'
p204
F0.016556291390728478
sg141
F0.0016556291390728477
sg69
F0.009933774834437087
sg66
F0.008278145695364239
sg144
F0.04304635761589404
sg26
F0.0033112582781456954
sg161
F0.0016556291390728477
sg28
F0.0016556291390728477
sg30
F0.0016556291390728477
sg186
F0.08774834437086093
sg146
F0.0016556291390728477
sS'dialogue'
p205
F0.0033112582781456954
sg112
F0.006622516556291391
sg34
F0.0033112582781456954
sg167
F0.006622516556291391
sg117
F0.0016556291390728477
sg184
F0.004966887417218543
sg188
F0.016556291390728478
sg73
F0.009933774834437087
sg183
F0.0016556291390728477
sS'required'
p206
F0.0016556291390728477
sg148
F0.013245033112582781
sg118
F0.006622516556291391
sg189
F0.004966887417218543
sg35
F0.006622516556291391
sg120
F0.013245033112582781
sS'party'
p207
F0.008278145695364239
sg38
F0.004966887417218543
sg178
F0.0033112582781456954
sg39
F0.07781456953642384
sg142
F0.011589403973509934
sg64
F0.0033112582781456954
sg48
F0.023178807947019868
sg150
F0.006622516556291391
sS'Chinese'
p208
F0.009933774834437087
sg175
F0.03145695364238411
sS'countries'
p209
F0.06622516556291391
sS'country'
p210
F0.023178807947019868
sS'developing'
p211
F0.009933774834437087
sg165
F0.006622516556291391
sg80
F0.004966887417218543
sg82
F0.0016556291390728477
sg84
F0.019867549668874173
sg113
F0.0016556291390728477
sS'development_#2'
p212
F0.013245033112582781
sg151
F0.02152317880794702
sg86
F0.008278145695364239
sS'programme'
p213
F0.026490066225165563
sg143
F0.0033112582781456954
sS'lasting'
p214
F0.02152317880794702
ssI6
(dp215
g136
F0.004780114722753346
sg93
F0.006692160611854685
sg138
F0.008604206500956023
sg97
F0.0057361376673040155
sg125
F0.0057361376673040155
sg104
F0.01338432122370937
sg64
F0.0019120458891013384
sg143
F0.0076481835564053535
sg144
F0.0019120458891013384
sg29
F0.0009560229445506692
sg145
F0.008604206500956023
sg147
F0.0028680688336520078
sg118
F0.0057361376673040155
sg198
F0.010516252390057362
sg149
F0.0009560229445506692
sg150
F0.0076481835564053535
sg28
F0.0057361376673040155
sg128
F0.0019120458891013384
sg82
F0.0028680688336520078
sg85
F0.0028680688336520078
sg129
F0.0009560229445506692
sg152
F0.01338432122370937
sg153
F0.0057361376673040155
sg214
F0.006692160611854685
sS'set'
p216
F0.011472275334608031
sg197
F0.0009560229445506692
sg7
F0.022944550669216062
sg102
F0.0057361376673040155
sg155
F0.010516252390057362
sS'Commission'
p217
F0.011472275334608031
sg11
F0.028680688336520075
sg53
F0.0019120458891013384
sg201
F0.008604206500956023
sg61
F0.0057361376673040155
sS'assistance'
p218
F0.0028680688336520078
sg23
F0.0057361376673040155
sg157
F0.0076481835564053535
sg69
F0.0038240917782026767
sg26
F0.029636711281070746
sg158
F0.011472275334608031
sg159
F0.0019120458891013384
sg112
F0.004780114722753346
sg70
F0.0019120458891013384
sg71
F0.0057361376673040155
sg117
F0.0019120458891013384
sS'leadership'
p219
F0.011472275334608031
sg37
F0.0009560229445506692
sg140
F0.0057361376673040155
sg121
F0.0009560229445506692
sg161
F0.008604206500956023
sg208
F0.004780114722753346
sg210
F0.014340344168260038
sg163
F0.018164435946462717
sg164
F0.0019120458891013384
sg165
F0.0057361376673040155
sS'Committee'
p220
F0.011472275334608031
sg212
F0.0019120458891013384
sS'military'
p221
F0.015296367112810707
sg86
F0.006692160611854685
sg202
F0.020076481835564052
sg167
F0.010516252390057362
sg60
F0.0009560229445506692
sg168
F0.0028680688336520078
sg92
F0.0019120458891013384
sg9
F0.011472275334608031
sg169
F0.004780114722753346
sg99
F0.0057361376673040155
sg14
F0.006692160611854685
sg170
F0.0019120458891013384
sg47
F0.0009560229445506692
sg171
F0.0038240917782026767
sg106
F0.033460803059273424
sg22
F0.004780114722753346
sg203
F0.0028680688336520078
sS'draft'
p222
F0.01338432122370937
sg172
F0.0019120458891013384
sg108
F0.0009560229445506692
sg205
F0.011472275334608031
sg204
F0.0057361376673040155
sg173
F0.0019120458891013384
sg174
F0.0019120458891013384
sg39
F0.11089866156787763
sg40
F0.0019120458891013384
sg211
F0.010516252390057362
sS'firmly_#-1'
p223
F0.0124282982791587
sg176
F0.0076481835564053535
sg178
F0.009560229445506692
sg179
F0.0028680688336520078
sg50
F0.018164435946462717
sg94
F0.0019120458891013384
sg206
F0.010516252390057362
sg89
F0.0028680688336520078
sg180
F0.0124282982791587
sg181
F0.011472275334608031
sg182
F0.009560229445506692
sg183
F0.014340344168260038
sg142
F0.0019120458891013384
sg184
F0.0028680688336520078
sg67
F0.0028680688336520078
sg207
F0.014340344168260038
sg30
F0.006692160611854685
sg51
F0.0038240917782026767
sg186
F0.014340344168260038
sg34
F0.0028680688336520078
sg48
F0.028680688336520075
sg72
F0.0009560229445506692
sg189
F0.004780114722753346
sg120
F0.0009560229445506692
sS'ethnic'
p224
F0.011472275334608031
sg38
F0.02581261950286807
sg200
F0.009560229445506692
sg41
F0.0028680688336520078
sg190
F0.0028680688336520078
sg191
F0.006692160611854685
sg107
F0.009560229445506692
sg192
F0.0009560229445506692
sg80
F0.0057361376673040155
sg113
F0.0019120458891013384
sg193
F0.008604206500956023
sg194
F0.014340344168260038
ssI7
(dp225
g55
F0.007159904534606206
sg154
F0.00954653937947494
sg60
F0.011933174224343675
sg89
F0.007159904534606206
sg90
F0.02386634844868735
sg57
F0.011933174224343675
sg7
F0.03818615751789976
sg136
F0.00477326968973747
sg102
F0.002386634844868735
sg164
F0.021479713603818614
sg155
F0.00477326968973747
sg10
F0.00477326968973747
sg98
F0.002386634844868735
sg138
F0.002386634844868735
sg97
F0.028639618138424822
sg169
F0.002386634844868735
sS'need'
p226
F0.081145584725537
sg202
F0.00954653937947494
sg59
F0.00954653937947494
sg100
F0.00477326968973747
sg150
F0.00954653937947494
sS'need_#1'
p227
F0.03818615751789976
sg200
F0.016706443914081145
sg140
F0.00477326968973747
sg63
F0.002386634844868735
sg17
F0.014319809069212411
sg156
F0.002386634844868735
sg218
F0.016706443914081145
sg62
F0.011933174224343675
sg106
F0.002386634844868735
sg23
F0.03579952267303103
sg31
F0.00477326968973747
sg133
F0.00954653937947494
sg172
F0.011933174224343675
sg69
F0.021479713603818614
sg67
F0.002386634844868735
sg26
F0.02386634844868735
sg109
F0.014319809069212411
sg179
F0.00477326968973747
sg51
F0.00477326968973747
sg147
F0.014319809069212411
sg33
F0.002386634844868735
sg160
F0.002386634844868735
sg184
F0.00954653937947494
sg116
F0.00477326968973747
sg117
F0.00477326968973747
sg161
F0.00954653937947494
sg74
F0.00477326968973747
sg144
F0.002386634844868735
sg118
F0.00954653937947494
sg165
F0.00477326968973747
sg153
F0.002386634844868735
sg37
F0.011933174224343675
sg104
F0.03341288782816229
sg93
F0.007159904534606206
sg39
F0.10023866348448687
sg124
F0.00477326968973747
sg125
F0.021479713603818614
sg40
F0.00954653937947494
sg126
F0.002386634844868735
sg78
F0.00954653937947494
sg208
F0.007159904534606206
sg209
F0.00954653937947494
sg191
F0.00477326968973747
sg210
F0.00954653937947494
sg211
F0.016706443914081145
sg48
F0.00954653937947494
sg79
F0.00954653937947494
sg45
F0.002386634844868735
sg195
F0.00477326968973747
sg80
F0.031026252983293555
sg34
F0.002386634844868735
sg84
F0.016706443914081145
sg85
F0.002386634844868735
sg129
F0.031026252983293555
sg221
F0.00477326968973747
sg193
F0.00477326968973747
sg171
F0.014319809069212411
sg214
F0.00477326968973747
ssI8
(dp228
g107
F0.032520325203252036
sg7
F0.016260162601626018
sg92
F0.016260162601626018
sg95
F0.024390243902439025
sg181
F0.056910569105691054
sg140
F0.016260162601626018
sS'service'
p229
F0.0975609756097561
sg201
F0.016260162601626018
sg218
F0.016260162601626018
sg91
F0.032520325203252036
sg22
F0.016260162601626018
sg23
F0.016260162601626018
sg141
F0.008130081300813009
sg142
F0.008130081300813009
sg198
F0.032520325203252036
sg185
F0.04878048780487805
sg110
F0.008130081300813009
sg30
F0.008130081300813009
sg31
F0.032520325203252036
sg186
F0.056910569105691054
sg147
F0.032520325203252036
sg188
F0.016260162601626018
sg137
F0.016260162601626018
sg102
F0.016260162601626018
sg153
F0.024390243902439025
sg38
F0.016260162601626018
sg174
F0.016260162601626018
sg39
F0.06504065040650407
sg78
F0.008130081300813009
sg190
F0.016260162601626018
sg42
F0.008130081300813009
sg150
F0.016260162601626018
sg210
F0.008130081300813009
sg223
F0.04065040650406504
sg60
F0.016260162601626018
sg178
F0.024390243902439025
sg179
F0.016260162601626018
sg113
F0.024390243902439025
sg212
F0.016260162601626018
sg221
F0.016260162601626018
sg193
F0.008130081300813009
sg195
F0.016260162601626018
ss.