(dp0
I1
(dp1
S'sound'
p2
F0.035398230088495575
sS'increase'
p3
F0.02654867256637168
sS'mutual'
p4
F0.07964601769911504
sS'rights'
p5
F0.07079646017699115
sS'human'
p6
F0.04424778761061947
sS'coupled'
p7
F0.04424778761061947
sS'process'
p8
F0.035398230088495575
sS'country'
p9
F0.07079646017699115
sS'lack'
p10
F0.035398230088495575
sS'costs'
p11
F0.008849557522123894
sS'environment'
p12
F0.035398230088495575
sS'women'
p13
F0.10619469026548672
sS'economic'
p14
F0.07964601769911504
sS'systems'
p15
F0.10619469026548672
sS'cooperation'
p16
F0.07079646017699115
sS'basic'
p17
F0.061946902654867256
sS'stable'
p18
F0.04424778761061947
sS'increasing'
p19
F0.008849557522123894
sS'judicial'
p20
F0.035398230088495575
ssI2
(dp21
S'emerging'
p22
F0.035842293906810034
sS'concerted'
p23
F0.035842293906810034
sg7
F0.03225806451612903
sS'national'
p24
F0.03942652329749104
sS'major'
p25
F0.035842293906810034
sS'Recognizing'
p26
F0.043010752688172046
sS'education'
p27
F0.10752688172043011
sS'quality'
p28
F0.035842293906810034
sS'quality_#3'
p29
F0.035842293906810034
sS'goal'
p30
F0.035842293906810034
sg3
F0.035842293906810034
sg17
F0.035842293906810034
sS'progress'
p31
F0.035842293906810034
sS'achieve'
p32
F0.035842293906810034
sS'continuing'
p33
F0.035842293906810034
sS'problems'
p34
F0.035842293906810034
sS'action'
p35
F0.053763440860215055
sS'levels'
p36
F0.035842293906810034
sS'significant'
p37
F0.035842293906810034
sS'despite'
p38
F0.035842293906810034
sS'especially'
p39
F0.035842293906810034
sS'require'
p40
F0.035842293906810034
sS'growing_#1'
p41
F0.035842293906810034
sS'growing'
p42
F0.035842293906810034
sS'international'
p43
F0.043010752688172046
ssI3
(dp44
g22
F0.0053475935828877
sS'financial'
p45
F0.01871657754010695
sg7
F0.20855614973262032
sg8
F0.00267379679144385
sS'caused'
p46
F0.0053475935828877
sg24
F0.00267379679144385
sS'global'
p47
F0.008021390374331552
sS'number'
p48
F0.00267379679144385
sg14
F0.0374331550802139
sg6
F0.008021390374331552
sg28
F0.0053475935828877
sS'investment'
p49
F0.034759358288770054
sS'market'
p50
F0.013368983957219251
sg4
F0.00267379679144385
sg30
F0.00267379679144385
sS'technology'
p51
F0.0106951871657754
sS'political'
p52
F0.013368983957219251
sg12
F0.026737967914438502
sg15
F0.016042780748663103
sg16
F0.00267379679144385
sg43
F0.008021390374331552
sg19
F0.045454545454545456
sS'conditions'
p53
F0.02406417112299465
sS'resources'
p54
F0.03208556149732621
sS'development'
p55
F0.058823529411764705
sS'activities'
p56
F0.00267379679144385
sg10
F0.008021390374331552
sS'increased'
p57
F0.03208556149732621
sg34
F0.008021390374331552
sg33
F0.0106951871657754
sg29
F0.0053475935828877
sg31
F0.00267379679144385
sS'The'
p58
F0.10695187165775401
sS'level'
p59
F0.0053475935828877
sS'areas'
p60
F0.029411764705882353
sg39
F0.0053475935828877
sS'effective'
p61
F0.00267379679144385
sS'developing'
p62
F0.0427807486631016
sS'countries'
p63
F0.08823529411764706
sg11
F0.0106951871657754
sg41
F0.0053475935828877
sS'social'
p64
F0.0106951871657754
sg42
F0.026737967914438502
ssI4
(dp65
g25
F0.005154639175257732
sg7
F0.15463917525773196
sg8
F0.02577319587628866
sg46
F0.020618556701030927
sg24
F0.03608247422680412
sg47
F0.04639175257731959
sg14
F0.10309278350515463
sg6
F0.005154639175257732
sg50
F0.05670103092783505
sS'implementation'
p66
F0.05670103092783505
sg18
F0.015463917525773196
sg43
F0.005154639175257732
sS'economy'
p67
F0.10309278350515463
sS'regional'
p68
F0.030927835051546393
sg34
F0.041237113402061855
sg36
F0.041237113402061855
sg38
F0.005154639175257732
sg58
F0.041237113402061855
sg59
F0.005154639175257732
sg9
F0.020618556701030927
sg64
F0.020618556701030927
sg35
F0.015463917525773196
sS'situation'
p69
F0.14432989690721648
ssI5
(dp70
S'control'
p71
F0.055793991416309016
sS'Hong'
p72
F0.034334763948497854
sS'set'
p73
F0.04291845493562232
sg45
F0.03862660944206009
sg7
F0.21030042918454936
sg25
F0.008583690987124463
sS'community'
p74
F0.034334763948497854
sg6
F0.004291845493562232
sg27
F0.030042918454935622
sg28
F0.008583690987124463
sg49
F0.012875536480686695
sg48
F0.04291845493562232
sg30
F0.004291845493562232
sg66
F0.02145922746781116
sg51
F0.017167381974248927
sS'system'
p75
F0.0815450643776824
sg3
F0.004291845493562232
sg17
F0.004291845493562232
sg43
F0.030042918454935622
sg32
F0.008583690987124463
sg55
F0.008583690987124463
sS'comprehensive'
p76
F0.012875536480686695
sg68
F0.034334763948497854
sS'Nations'
p77
F0.004291845493562232
sg37
F0.017167381974248927
sg38
F0.004291845493562232
sg58
F0.004291845493562232
sg18
F0.017167381974248927
sg2
F0.034334763948497854
sg39
F0.008583690987124463
sg61
F0.04721030042918455
sg59
F0.004291845493562232
sg9
F0.004291845493562232
sS'Kong'
p78
F0.05150214592274678
sg11
F0.004291845493562232
sg20
F0.04291845493562232
sg64
F0.004291845493562232
ssI6
(dp79
g71
F0.003787878787878788
sg25
F0.003787878787878788
sS'United'
p80
F0.05303030303030303
sg23
F0.007575757575757576
sg7
F0.1590909090909091
sg8
F0.007575757575757576
sg46
F0.022727272727272728
sg24
F0.03409090909090909
sg10
F0.026515151515151516
sg48
F0.003787878787878788
sg74
F0.015151515151515152
sg14
F0.056818181818181816
sg6
F0.022727272727272728
sg27
F0.003787878787878788
sg51
F0.007575757575757576
sg4
F0.007575757575757576
sg5
F0.03787878787878788
sg52
F0.041666666666666664
sg75
F0.003787878787878788
sg16
F0.01893939393939394
sg43
F0.0946969696969697
sg73
F0.007575757575757576
sg53
F0.003787878787878788
sg55
F0.007575757575757576
sg56
F0.06439393939393939
sg76
F0.026515151515151516
sg68
F0.007575757575757576
sg34
F0.01893939393939394
sg77
F0.041666666666666664
sg37
F0.007575757575757576
sg31
F0.003787878787878788
sg58
F0.01893939393939394
sg60
F0.015151515151515152
sg59
F0.06060606060606061
sg9
F0.007575757575757576
sg40
F0.015151515151515152
sg63
F0.003787878787878788
sg64
F0.056818181818181816
ssI7
(dp81
g55
F0.11764705882352941
sg7
F0.058823529411764705
sg9
F0.058823529411764705
sg12
F0.23529411764705882
sg26
F0.23529411764705882
sg51
F0.11764705882352941
sg53
F0.11764705882352941
sg60
F0.058823529411764705
ss.