(dp0
I1
(dp1
S'ethical'
p2
F0.04896907216494845
sS'major'
p3
F0.002577319587628866
sS'United'
p4
F0.001288659793814433
sS'national'
p5
F0.05154639175257732
sS'commitment'
p6
F0.024484536082474227
sS'actions'
p7
F0.05025773195876289
sS'State'
p8
F0.001288659793814433
sS'goal_#-3'
p9
F0.030927835051546393
sS'need'
p10
F0.002577319587628866
sS'action_#2'
p11
F0.002577319587628866
sS'poverty_#-1'
p12
F0.04639175257731959
sS'goal'
p13
F0.03350515463917526
sS'political'
p14
F0.04639175257731959
sS'humankind'
p15
F0.04381443298969072
sS'cooperation'
p16
F0.04768041237113402
sS'international'
p17
F0.05025773195876289
sS'decisive'
p18
F0.05025773195876289
sS'achieve'
p19
F0.005154639175257732
sS'national_#1'
p20
F0.04896907216494845
sS'eradicating_#-2'
p21
F0.03350515463917526
sS'poverty'
p22
F0.061855670103092786
sS'The'
p23
F0.011597938144329897
sS'international_#3'
p24
F0.05154639175257732
sS'Falungong'
p25
F0.001288659793814433
sS'eradicating'
p26
F0.041237113402061855
sS'imperative'
p27
F0.04639175257731959
sS'economic'
p28
F0.04896907216494845
sS'actions_#2'
p29
F0.04639175257731959
sS'policies'
p30
F0.001288659793814433
sS'social'
p31
F0.05412371134020619
sS'eradicate'
p32
F0.01288659793814433
ssI2
(dp33
S'science'
p34
F0.012987012987012988
sS'development'
p35
F0.0633116883116883
sg3
F0.00974025974025974
sS'force'
p36
F0.017857142857142856
sS'point'
p37
F0.00487012987012987
sS'developed'
p38
F0.012987012987012988
sg5
F0.024350649350649352
sg7
F0.0016233766233766235
sS'strategic'
p39
F0.011363636363636364
sS'technological'
p40
F0.04383116883116883
sg28
F0.037337662337662336
sS'including'
p41
F0.00974025974025974
sS'measures_#1'
p42
F0.012987012987012988
sS'Party'
p43
F0.003246753246753247
sS'establish'
p44
F0.003246753246753247
sS'trade'
p45
F0.021103896103896104
sS'scientific'
p46
F0.01461038961038961
sS'impact'
p47
F0.003246753246753247
sS'factors_#1'
p48
F0.003246753246753247
sS'productive'
p49
F0.017857142857142856
sS'plays'
p50
F0.01948051948051948
sS'technology'
p51
F0.024350649350649352
sS'factors'
p52
F0.006493506493506494
sS'thinking'
p53
F0.0016233766233766235
sS'role_#1'
p54
F0.011363636363636364
sS'nature'
p55
F0.006493506493506494
sS'system'
p56
F0.00974025974025974
sS'environment'
p57
F0.0016233766233766235
sS'China'
p58
F0.0633116883116883
sg16
F0.008116883116883116
sS'basic'
p59
F0.00487012987012987
sg17
F0.008116883116883116
sg18
F0.08928571428571429
sS'strong'
p60
F0.006493506493506494
sS'issue'
p61
F0.012987012987012988
sS'public'
p62
F0.0016233766233766235
sS'exercise'
p63
F0.0016233766233766235
sS'economy'
p64
F0.01948051948051948
sS'Chinese_#-3'
p65
F0.016233766233766232
sS'play'
p66
F0.0016233766233766235
sS'measures'
p67
F0.017857142857142856
sS'They'
p68
F0.00974025974025974
sS'information'
p69
F0.00487012987012987
sS'situation'
p70
F0.00974025974025974
sS'comprehensive'
p71
F0.011363636363636364
sS'role'
p72
F0.011363636363636364
sS'factor'
p73
F0.0016233766233766235
sS'enterprises'
p74
F0.01461038961038961
sS'cultural'
p75
F0.0016233766233766235
sg22
F0.006493506493506494
sS'struggle'
p76
F0.0016233766233766235
sS'progress'
p77
F0.027597402597402596
sS'authorities'
p78
F0.00974025974025974
sg23
F0.0016233766233766235
sS'level'
p79
F0.00974025974025974
sS'advanced'
p80
F0.006493506493506494
sS'areas'
p81
F0.008116883116883116
sS'center'
p82
F0.00974025974025974
sS'Chinese'
p83
F0.030844155844155844
sS'countries'
p84
F0.0016233766233766235
sS'country'
p85
F0.016233766233766232
sS'developing'
p86
F0.00974025974025974
sS'foreign'
p87
F0.022727272727272728
sS'capability'
p88
F0.003246753246753247
sS'future'
p89
F0.0016233766233766235
sS'resources'
p90
F0.003246753246753247
sS'historical'
p91
F0.01948051948051948
sS'forces'
p92
F0.016233766233766232
sS'Chen'
p93
F0.003246753246753247
sS'enhance'
p94
F0.008116883116883116
sS'Taiwan'
p95
F0.027597402597402596
sS'order'
p96
F0.006493506493506494
sg31
F0.021103896103896104
ssI3
(dp97
g3
F0.026490066225165563
sg4
F0.006622516556291391
sg5
F0.0033112582781456954
sS'modern'
p98
F0.016556291390728478
sg7
F0.023178807947019868
sg39
F0.009933774834437087
sg78
F0.0033112582781456954
sg87
F0.009933774834437087
sg51
F0.026490066225165563
sS'market'
p99
F0.0033112582781456954
sS'based'
p100
F0.013245033112582781
sS'troops'
p101
F0.006622516556291391
sS'Government'
p102
F0.023178807947019868
sg14
F0.013245033112582781
sg56
F0.0033112582781456954
sS'fight'
p103
F0.0033112582781456954
sS'weapons'
p104
F0.009933774834437087
sS'strategy'
p105
F0.0033112582781456954
sg25
F0.03642384105960265
sg68
F0.013245033112582781
sg17
F0.006622516556291391
sg18
F0.09933774834437085
sS'conditions'
p106
F0.029801324503311258
sS'war'
p107
F0.0033112582781456954
sg19
F0.013245033112582781
sg65
F0.013245033112582781
sg92
F0.019867549668874173
sg55
F0.006622516556291391
sS'This'
p108
F0.019867549668874173
sS'regional'
p109
F0.013245033112582781
sS'victory_#1'
p110
F0.033112582781456956
sg22
F0.0033112582781456954
sg76
F0.04304635761589404
sS'cult'
p111
F0.052980132450331126
sg23
F0.016556291390728478
sg60
F0.06291390728476821
sS'spirit'
p112
F0.026490066225165563
sS'change'
p113
F0.0033112582781456954
sS'enemy'
p114
F0.009933774834437087
sS'training'
p115
F0.019867549668874173
sg82
F0.006622516556291391
sg83
F0.059602649006622516
sg85
F0.009933774834437087
sg52
F0.0033112582781456954
sS'fighting'
p116
F0.006622516556291391
sS'air'
p117
F0.006622516556291391
sg88
F0.0033112582781456954
sg89
F0.04304635761589404
sS'victory'
p118
F0.039735099337748346
sg34
F0.019867549668874173
sS'action'
p119
F0.006622516556291391
sS'military'
p120
F0.03642384105960265
sS'battle_#1'
p121
F0.0033112582781456954
sg96
F0.0033112582781456954
ssI4
(dp122
g4
F0.019308943089430895
sg36
F0.009146341463414634
sS'offshore_#2'
p123
F0.026422764227642278
sg38
F0.0010162601626016261
sg5
F0.0010162601626016261
sS'global'
p124
F0.0010162601626016261
sS'idea'
p125
F0.014227642276422764
sg107
F0.027439024390243903
sg39
F0.022357723577235773
sg14
F0.006097560975609756
sS'defense'
p126
F0.012195121951219513
sS'security'
p127
F0.0010162601626016261
sS'battle'
p128
F0.06808943089430894
sg87
F0.003048780487804878
sS'armed'
p129
F0.011178861788617886
sg46
F0.0010162601626016261
sS'States'
p130
F0.021341463414634148
sg70
F0.0040650406504065045
sg100
F0.006097560975609756
sg101
F0.012195121951219513
sg102
F0.0010162601626016261
sg53
F0.01016260162601626
sS'action_#1'
p131
F0.0010162601626016261
sS'offensive'
p132
F0.012195121951219513
sS'arms'
p133
F0.01016260162601626
sg103
F0.008130081300813009
sg104
F0.037601626016260166
sg105
F0.023373983739837397
sS'attack'
p134
F0.012195121951219513
sg58
F0.003048780487804878
sg113
F0.00508130081300813
sg68
F0.0040650406504065045
sS'policy'
p135
F0.0020325203252032522
sg17
F0.0020325203252032522
sg18
F0.07317073170731707
sg96
F0.00508130081300813
sg61
F0.006097560975609756
sg62
F0.0040650406504065045
sg63
F0.011178861788617886
sg35
F0.00508130081300813
sg66
F0.0010162601626016261
sg98
F0.006097560975609756
sg92
F0.02032520325203252
sg69
F0.006097560975609756
sg108
F0.0020325203252032522
sg112
F0.0010162601626016261
sS'effective'
p136
F0.012195121951219513
sS'personnel'
p137
F0.0010162601626016261
sg44
F0.0040650406504065045
sg120
F0.046747967479674794
sg78
F0.012195121951219513
sg23
F0.031504065040650404
sS'offshore'
p138
F0.04065040650406504
sS'efforts'
p139
F0.0020325203252032522
sg80
F0.016260162601626018
sg114
F0.021341463414634148
sg115
F0.0020325203252032522
sS'mainland'
p140
F0.024390243902439025
sg82
F0.0040650406504065045
sg83
F0.003048780487804878
sg116
F0.04369918699186992
sg117
F0.009146341463414634
sg88
F0.00508130081300813
sg28
F0.0010162601626016261
sS'fighting_#-1'
p141
F0.036585365853658534
sS'nuclear'
p142
F0.0020325203252032522
sg93
F0.012195121951219513
sg94
F0.00508130081300813
sg95
F0.059959349593495935
sg121
F0.06097560975609756
sS'essential'
p143
F0.0010162601626016261
ssI5
(dp144
g4
F0.01772525849335303
sg38
F0.0051698670605613
sg124
F0.0103397341211226
sS'domestic'
p145
F0.0007385524372230429
sg7
F0.0007385524372230429
sg45
F0.0022156573116691287
sg41
F0.008862629246676515
sS'human'
p146
F0.028064992614475627
sg42
F0.005908419497784343
sg54
F0.028064992614475627
sg47
F0.004431314623338257
sg48
F0.0014771048744460858
sg100
F0.0022156573116691287
sg53
F0.0022156573116691287
sg57
F0.008862629246676515
sg73
F0.0066469719350073855
sg135
F0.004431314623338257
sg90
F0.005908419497784343
sg92
F0.005908419497784343
sg109
F0.007385524372230428
sg75
F0.00812407680945347
sg24
F0.007385524372230428
sg79
F0.01772525849335303
sg84
F0.02141802067946824
sg94
F0.0014771048744460858
sg127
F0.0155096011816839
sg143
F0.009601181683899557
sS'financial'
p147
F0.011816838995568686
sg5
F0.0155096011816839
sg125
F0.0014771048744460858
sg8
F0.011078286558345642
sg28
F0.019202363367799114
sg102
F0.011816838995568686
sg142
F0.008862629246676515
sS'legal'
p148
F0.008862629246676515
sg104
F0.0014771048744460858
sg16
F0.005908419497784343
sg17
F0.06351550960118169
sg106
F0.0014771048744460858
sg62
F0.0155096011816839
sg63
F0.0014771048744460858
sg91
F0.0014771048744460858
sg108
F0.0007385524372230429
sg22
F0.0022156573116691287
sg113
F0.003692762186115214
sg115
F0.0029542097488921715
sg85
F0.0051698670605613
sg87
F0.0022156573116691287
sg31
F0.0066469719350073855
sg119
F0.03545051698670606
sg120
F0.0066469719350073855
sg139
F0.005908419497784343
sg37
F0.0051698670605613
sg6
F0.003692762186115214
sS'community'
p149
F0.013293943870014771
sg56
F0.0051698670605613
sg129
F0.0066469719350073855
sg99
F0.008862629246676515
sg14
F0.0103397341211226
sg133
F0.0014771048744460858
sg103
F0.0022156573116691287
sg59
F0.011078286558345642
sg18
F0.1240768094534712
sg107
F0.0022156573116691287
sS'Nations'
p150
F0.014771048744460856
sg112
F0.003692762186115214
sS'rights'
p151
F0.026587887740029542
sS'growth'
p152
F0.012555391432791729
sg30
F0.0022156573116691287
sg70
F0.004431314623338257
sg86
F0.007385524372230428
sS'played'
p153
F0.011078286558345642
sg10
F0.005908419497784343
sg131
F0.016986706056129987
sg11
F0.005908419497784343
sg69
F0.0022156573116691287
sg49
F0.0007385524372230429
sg13
F0.004431314623338257
sg137
F0.011078286558345642
sS'peace'
p154
F0.011078286558345642
sg72
F0.04062038404726736
sg68
F0.0029542097488921715
sg64
F0.0029542097488921715
sg35
F0.014771048744460856
sg66
F0.011078286558345642
sg71
F0.0029542097488921715
sg67
F0.013293943870014771
sg44
F0.003692762186115214
sg23
F0.045051698670605614
sS'law'
p155
F0.00812407680945347
sg136
F0.004431314623338257
sg52
F0.0051698670605613
sg130
F0.0155096011816839
sg96
F0.004431314623338257
ssI6
(dp156
g36
F0.04054054054054054
sg153
F0.006756756756756757
sg104
F0.04054054054054054
sg39
F0.013513513513513514
sS'manner'
p157
F0.013513513513513514
sg43
F0.013513513513513514
sg54
F0.02027027027027027
sg48
F0.04054054054054054
sg100
F0.006756756756756757
sg52
F0.08108108108108109
sg53
F0.013513513513513514
sg142
F0.013513513513513514
sg37
F0.013513513513513514
sg14
F0.02702702702702703
sg57
F0.033783783783783786
sg72
F0.02027027027027027
sS'geographical'
p158
F0.0945945945945946
sg18
F0.0472972972972973
sg61
F0.013513513513513514
sg107
F0.07432432432432433
sg66
F0.0472972972972973
sg55
F0.04054054054054054
sg71
F0.006756756756756757
sg109
F0.013513513513513514
sg80
F0.06756756756756757
sg106
F0.04054054054054054
sg116
F0.006756756756756757
sg117
F0.060810810810810814
sg88
F0.02702702702702703
sg31
F0.013513513513513514
sg95
F0.02702702702702703
sg96
F0.02027027027027027
ssI7
(dp159
g40
F0.0034965034965034965
sg3
F0.013986013986013986
sg147
F0.03496503496503497
sg153
F0.006993006993006993
sg124
F0.017482517482517484
sg145
F0.05244755244755245
sg6
F0.013986013986013986
sg7
F0.013986013986013986
sg10
F0.006993006993006993
sg8
F0.013986013986013986
sg28
F0.06993006993006994
sg157
F0.03496503496503497
sg128
F0.01048951048951049
sg43
F0.02097902097902098
sg129
F0.006993006993006993
sS'crisis'
p160
F0.055944055944055944
sg99
F0.0034965034965034965
sg11
F0.006993006993006993
sg47
F0.02097902097902098
sg48
F0.006993006993006993
sg60
F0.0034965034965034965
sg13
F0.006993006993006993
sg51
F0.0034965034965034965
sg52
F0.006993006993006993
sg44
F0.0034965034965034965
sg154
F0.017482517482517484
sg132
F0.006993006993006993
sg56
F0.006993006993006993
sg104
F0.006993006993006993
sg152
F0.0034965034965034965
sg73
F0.006993006993006993
sg135
F0.02097902097902098
sg77
F0.03146853146853147
sg18
F0.08041958041958042
sg106
F0.01048951048951049
sg19
F0.006993006993006993
sg118
F0.013986013986013986
sg98
F0.0034965034965034965
sg46
F0.006993006993006993
sg108
F0.017482517482517484
sg72
F0.01048951048951049
sg67
F0.017482517482517484
sg74
F0.045454545454545456
sg110
F0.013986013986013986
sg76
F0.006993006993006993
sg78
F0.0034965034965034965
sg23
F0.024475524475524476
sg155
F0.0034965034965034965
sg113
F0.0034965034965034965
sg81
F0.03146853146853147
sg136
F0.013986013986013986
sg84
F0.013986013986013986
sg87
F0.01048951048951049
sg89
F0.006993006993006993
sg90
F0.006993006993006993
sg30
F0.03496503496503497
sg139
F0.04195804195804196
sg54
F0.006993006993006993
sg121
F0.0034965034965034965
sg96
F0.0034965034965034965
sg32
F0.013986013986013986
ss.