(dp0
I1
(dp1
S'Israeli'
p2
F0.02042360060514372
sS'composition_#1'
p3
F0.028744326777609682
sS'groups'
p4
F0.0007564296520423601
sS'Palestinian'
p5
F0.03177004538577912
sS'institutional'
p6
F0.0022692889561270802
sS'city_#2'
p7
F0.009077155824508321
sS'national'
p8
F0.0007564296520423601
sS'Palestinian_#3'
p9
F0.0030257186081694403
sS'territories'
p10
F0.015128593040847202
sS'major'
p11
F0.0030257186081694403
sS'actions'
p12
F0.009833585476550681
sS'political'
p13
F0.0007564296520423601
sS'relevant'
p14
F0.0030257186081694403
sS'including'
p15
F0.012859304084720122
sS'aimed'
p16
F0.012859304084720122
sS'East'
p17
F0.02723146747352496
sS'occupied'
p18
F0.0264750378214826
sS'considers'
p19
F0.01059001512859304
sS'issues'
p20
F0.0007564296520423601
sS'demographic'
p21
F0.038577912254160365
sS'legislative'
p22
F0.012102874432677761
sS'city'
p23
F0.0226928895612708
sS'Israel'
p24
F0.031013615733736764
sS'law'
p25
F0.01361573373676248
sS'change_#-2'
p26
F0.007564296520423601
sS'Power'
p27
F0.00832072617246596
sS'Government'
p28
F0.00529500756429652
sS'illegal'
p29
F0.01361573373676248
sS'decision'
p30
F0.0037821482602118004
sS'1967'
p31
F0.007564296520423601
sS'character'
p32
F0.024205748865355523
sS'settlement'
p33
F0.009077155824508321
sS'adopted'
p34
F0.00680786686838124
sS'occupying'
p35
F0.009077155824508321
sS'Arab'
p36
F0.01664145234493192
sS'process'
p37
F0.0022692889561270802
sS'null'
p38
F0.018154311649016642
sS'changing_#-1'
p39
F0.0045385779122541605
sS'geographical'
p40
F0.006051437216338881
sS'policy'
p41
F0.0037821482602118004
sS'international'
p42
F0.009833585476550681
sS'situation'
p43
F0.0113464447806354
sS'territory'
p44
F0.012102874432677761
sS'administrative'
p45
F0.01361573373676248
sS'alter'
p46
F0.01588502269288956
sS'status'
p47
F0.04462934947049924
sS'settlements'
p48
F0.0022692889561270802
sS'altered'
p49
F0.012102874432677761
sS'historical'
p50
F0.0030257186081694403
sS'This'
p51
F0.0015128593040847202
sS'January'
p52
F0.012102874432677761
sS'void'
p53
F0.025718608169440244
sS'measures'
p54
F0.0264750378214826
sS'continuing'
p55
F0.0022692889561270802
sS'character_#-3'
p56
F0.012102874432677761
sS'validity'
p57
F0.012102874432677761
sS'prepared'
p58
F0.0007564296520423601
sS'land'
p59
F0.00529500756429652
sS'Jerusalem_#2'
p60
F0.015128593040847202
sS'peace'
p61
F0.00680786686838124
sS'status_#-1'
p62
F0.02118003025718608
sS'changing'
p63
F0.012859304084720122
sS'The'
p64
F0.0007564296520423601
sS'East_#3'
p65
F0.009077155824508321
sS'change'
p66
F0.01361573373676248
sS'legal'
p67
F0.03555219364599092
sS'whatsoever'
p68
F0.012102874432677761
sS'geographic'
p69
F0.0015128593040847202
sS'war'
p70
F0.009077155824508321
sS'occupied_#2'
p71
F0.0045385779122541605
sS'1999'
p72
F0.006051437216338881
sS'composition'
p73
F0.028744326777609682
sS'prior'
p74
F0.009077155824508321
sS'part'
p75
F0.0045385779122541605
sS'resulting'
p76
F0.0015128593040847202
sS'Council'
p77
F0.006051437216338881
sS'legal_#-2'
p78
F0.0226928895612708
sS'policies'
p79
F0.0015128593040847202
sS'Jerusalem'
p80
F0.059001512859304085
sS'members'
p81
F0.0007564296520423601
sS'status_#1'
p82
F0.01059001512859304
ssI2
(dp83
g3
F0.027586206896551724
sg5
F0.05862068965517241
sS'violation'
p84
F0.02413793103448276
sS'characteristics'
p85
F0.0034482758620689655
sS'Concerned'
p86
F0.02413793103448276
sg9
F0.02413793103448276
sg12
F0.027586206896551724
sS'economic'
p87
F0.0017241379310344827
sg15
F0.01206896551724138
sS'human'
p88
F0.027586206896551724
sg44
F0.03103448275862069
sg18
F0.032758620689655175
sg24
F0.02586206896551724
sg27
F0.02586206896551724
sg21
F0.03103448275862069
sg67
F0.02586206896551724
sg35
F0.02413793103448276
sg10
F0.0034482758620689655
sg40
F0.02413793103448276
sS'population'
p89
F0.0017241379310344827
sS'establishment'
p90
F0.027586206896551724
sg73
F0.03103448275862069
sS'resources'
p91
F0.0034482758620689655
sg47
F0.02413793103448276
sg48
F0.03103448275862069
sS'nature'
p92
F0.02413793103448276
sg14
F0.0034482758620689655
sg55
F0.05862068965517241
sS'designed'
p93
F0.02413793103448276
sS'annexation'
p94
F0.02413793103448276
sg63
F0.0017241379310344827
sS'status_#-3'
p95
F0.02413793103448276
sg66
F0.02413793103448276
sS'areas'
p96
F0.02413793103448276
sS'closure'
p97
F0.02413793103448276
sS'nature_#-1'
p98
F0.02413793103448276
sS'natural'
p99
F0.0017241379310344827
sS'especially'
p100
F0.027586206896551724
sg71
F0.02413793103448276
sS'collective'
p101
F0.02413793103448276
sS'rights'
p102
F0.029310344827586206
sg80
F0.013793103448275862
sS'punishment'
p103
F0.02413793103448276
sS'geographical_#-2'
p104
F0.02413793103448276
ssI3
(dp105
g13
F0.041044776119402986
sg8
F0.03731343283582089
sS'Commission'
p106
F0.029850746268656716
sg87
F0.03731343283582089
sS'economic_#-2'
p107
F0.04477611940298507
sS'Development'
p108
F0.033582089552238806
sS'management'
p109
F0.05223880597014925
sS'political_#2'
p110
F0.04477611940298507
sg30
F0.055970149253731345
sg21
F0.041044776119402986
sS'draft'
p111
F0.04477611940298507
sg39
F0.0037313432835820895
sS'conditions'
p112
F0.007462686567164179
sS'cultural_#1'
p113
F0.03731343283582089
sS'regional'
p114
F0.0037313432835820895
sg79
F0.048507462686567165
sg92
F0.007462686567164179
sS'comprehensive'
p115
F0.04477611940298507
sg54
F0.0037313432835820895
sS'problems'
p116
F0.041044776119402986
sS'societal'
p117
F0.03731343283582089
sS'environmental'
p118
F0.041044776119402986
sS'cultural'
p119
F0.03731343283582089
sS'Social'
p120
F0.05223880597014925
sS'report'
p121
F0.03731343283582089
sg64
F0.0037313432835820895
sS'session'
p122
F0.04477611940298507
sg99
F0.0037313432835820895
sS'technical'
p123
F0.0037313432835820895
sS'Economic'
p124
F0.022388059701492536
sg76
F0.0037313432835820895
sg77
F0.026119402985074626
sS'social'
p125
F0.026119402985074626
ssI4
(dp126
g6
F0.007481296758104738
sS'developed'
p127
F0.011637572734829594
sg48
F0.0016625103906899418
sg12
F0.0024937655860349127
sg15
F0.00831255195344971
sg88
F0.02826267664172901
sg20
F0.007481296758104738
sg21
F0.12053200332502079
sS'social_#1'
p128
F0.0008312551953449709
sS'technological'
p129
F0.011637572734829594
sg89
F0.015793848711554447
sg91
F0.015793848711554447
sS'global'
p130
F0.01828761429758936
sg114
F0.0008312551953449709
sg119
F0.02493765586034913
sg121
F0.0016625103906899418
sg96
F0.0008312551953449709
sS'trends_#1'
p131
F0.014962593516209476
sS'countries'
p132
F0.034912718204488775
sS'ageing'
p133
F0.007481296758104738
sg101
F0.0016625103906899418
sS'developing'
p134
F0.032418952618453865
sS'sustainable'
p135
F0.013300083125519535
sg113
F0.0016625103906899418
sS'challenges'
p136
F0.01828761429758936
sS'trends'
p137
F0.013300083125519535
sg87
F0.0831255195344971
sg107
F0.011637572734829594
sS'economic_#-1'
p138
F0.013300083125519535
sS'factors'
p139
F0.01662510390689942
sS'assistance'
p140
F0.0033250207813798837
sg67
F0.0016625103906899418
sS'health'
p141
F0.0008312551953449709
sg42
F0.0024937655860349127
sg112
F0.0033250207813798837
sg50
F0.00831255195344971
sg51
F0.00831255195344971
sg81
F0.00831255195344971
sg66
F0.007481296758104738
sS'care'
p142
F0.0024937655860349127
sS'island'
p143
F0.00997506234413965
sg76
F0.004987531172069825
sg125
F0.049044056525353284
sS'action'
p144
F0.004987531172069825
sg11
F0.007481296758104738
sg14
F0.0016625103906899418
sg4
F0.0008312551953449709
sg109
F0.0016625103906899418
sg13
F0.021612635078969242
sg34
F0.0008312551953449709
sS'growth'
p145
F0.012468827930174564
sg39
F0.004156275976724855
sS'indicators'
p146
F0.0008312551953449709
sg8
F0.004987531172069825
sS'urban'
p147
F0.004156275976724855
sg117
F0.0016625103906899418
sg118
F0.015793848711554447
sg75
F0.0016625103906899418
sS'women'
p148
F0.00831255195344971
sg102
F0.012468827930174564
sS'social_#-1'
p149
F0.00914380714879468
sg79
F0.006650041562759767
sg43
F0.011637572734829594
sg2
F0.0008312551953449709
sg37
F0.010806317539484621
sg108
F0.0024937655860349127
sS'economic_#1'
p150
F0.011637572734829594
sS'economic_#3'
p151
F0.00914380714879468
sg26
F0.0008312551953449709
sS'provide'
p152
F0.0016625103906899418
sg61
F0.00914380714879468
sg36
F0.0024937655860349127
sg40
F0.0016625103906899418
sS'development'
p153
F0.06816292601828762
sg49
F0.004987531172069825
sg54
F0.006650041562759767
sg116
F0.0033250207813798837
sS'persons'
p154
F0.0016625103906899418
sg63
F0.006650041562759767
sg64
F0.023275145469659187
sg59
F0.007481296758104738
sg99
F0.012468827930174564
sS'age'
p155
F0.0033250207813798837
sS'States'
p156
F0.010806317539484621
sS'patterns'
p157
F0.005818786367414797
sg69
F0.00997506234413965
ssI5
(dp158
g47
F0.005279831045406547
sg11
F0.0031678986272439284
sS'United'
p159
F0.021119324181626188
sg81
F0.0031678986272439284
sg147
F0.009503695881731784
sg84
F0.006335797254487857
sg85
F0.021119324181626188
sg8
F0.026399155227032733
sg48
F0.0010559662090813093
sS'number'
p160
F0.01689545934530095
sg148
F0.014783526927138331
sS'services'
p161
F0.027455121436114043
sS'rate'
p162
F0.014783526927138331
sg87
F0.03273495248152059
sg15
F0.010559662090813094
sg16
F0.0010559662090813093
sg41
F0.009503695881731784
sg75
F0.008447729672650475
sg20
F0.004223864836325237
sg138
F0.012671594508975714
sS'information'
p163
F0.01689545934530095
sg43
F0.007391763463569166
sg151
F0.0010559662090813093
sg26
F0.0010559662090813093
sg28
F0.007391763463569166
sg152
F0.010559662090813094
sg140
F0.006335797254487857
sg21
F0.09186906019007392
sg128
F0.02006335797254488
sg34
F0.0021119324181626186
sg36
F0.0031678986272439284
sg112
F0.008447729672650475
sg145
F0.011615628299894404
sg40
F0.004223864836325237
sg127
F0.0021119324181626186
sg146
F0.011615628299894404
sg141
F0.01583949313621964
sg116
F0.0010559662090813093
sg96
F0.024287222808870117
sg45
F0.0021119324181626186
sg46
F0.0010559662090813093
sg91
F0.007391763463569166
sS'Population'
p164
F0.014783526927138331
sg153
F0.004223864836325237
sg135
F0.0021119324181626186
sg79
F0.0031678986272439284
sg14
F0.008447729672650475
sg115
F0.004223864836325237
sg114
F0.014783526927138331
sg55
F0.0010559662090813093
sS'Nations'
p165
F0.012671594508975714
sg118
F0.006335797254487857
sg109
F0.004223864836325237
sg149
F0.007391763463569166
sg93
F0.004223864836325237
sg4
F0.012671594508975714
sg120
F0.006335797254487857
sg121
F0.006335797254487857
sS'statistics'
p166
F0.03590285110876452
sg64
F0.023231256599788808
sg58
F0.011615628299894404
sS'data'
p167
F0.014783526927138331
sS'statistical'
p168
F0.014783526927138331
sg66
F0.0010559662090813093
sg142
F0.009503695881731784
sg99
F0.0010559662090813093
sg89
F0.06335797254487856
sg131
F0.006335797254487857
sg132
F0.01689545934530095
sg123
F0.013727560718057022
sg133
F0.007391763463569166
sg155
F0.004223864836325237
sg134
F0.0031678986272439284
sg137
F0.01900739176346357
sg156
F0.007391763463569166
sg157
F0.011615628299894404
sg154
F0.01689545934530095
sg124
F0.008447729672650475
sg76
F0.0031678986272439284
sg77
F0.0010559662090813093
sg125
F0.03590285110876452
sg144
F0.006335797254487857
sg42
F0.025343189017951427
sS'migration'
p169
F0.01689545934530095
ss.