(dp0
I1
(dp1
S'United'
p2
F0.024177949709864602
sS'violence'
p3
F0.027079303675048357
sS'developed'
p4
F0.0029013539651837525
sS'including'
p5
F0.0019342359767891683
sS'human'
p6
F0.014506769825918761
sS'integrity'
p7
F0.013539651837524178
sS'children'
p8
F0.007736943907156673
sS'based'
p9
F0.0019342359767891683
sS'implementation'
p10
F0.0019342359767891683
sS'crime'
p11
F0.0009671179883945841
sS'forms'
p12
F0.006769825918762089
sS'promoting'
p13
F0.0038684719535783366
sS'systems'
p14
F0.0029013539651837525
sS'policy'
p15
F0.006769825918762089
sS'violations'
p16
F0.0019342359767891683
sS'women'
p17
F0.008704061895551257
sS'activities'
p18
F0.0019342359767891683
sS'victims'
p19
F0.010638297872340425
sS'forces'
p20
F0.008704061895551257
sS'torture'
p21
F0.0019342359767891683
sS'acts_#-1'
p22
F0.007736943907156673
sS'cultural'
p23
F0.0019342359767891683
sS'areas'
p24
F0.0009671179883945841
sS'countries'
p25
F0.006769825918762089
sS'fully'
p26
F0.007736943907156673
sS'rights'
p27
F0.024177949709864602
sS'specific'
p28
F0.008704061895551257
sS'Council'
p29
F0.009671179883945842
sS'recommendations'
p30
F0.005802707930367505
sS'security'
p31
F0.009671179883945842
sS'national'
p32
F0.017408123791102514
sS'past'
p33
F0.007736943907156673
sS'Commission'
p34
F0.010638297872340425
sS'State'
p35
F0.02321083172147002
sS'economic'
p36
F0.005802707930367505
sS'sexual'
p37
F0.01160541586073501
sS'concern'
p38
F0.0029013539651837525
sS'established'
p39
F0.008704061895551257
sS'imposition'
p40
F0.005802707930367505
sS'Government'
p41
F0.017408123791102514
sS'religious'
p42
F0.0019342359767891683
sS'expressed'
p43
F0.012572533849129593
sS'research'
p44
F0.0019342359767891683
sS'capital'
p45
F0.0019342359767891683
sS'international'
p46
F0.045454545454545456
sS'increasing'
p47
F0.0019342359767891683
sS'public'
p48
F0.0038684719535783366
sS'independence'
p49
F0.01160541586073501
sS'continuing'
p50
F0.009671179883945842
sS'Greek'
p51
F0.004835589941972921
sS'groups'
p52
F0.004835589941972921
sS'September'
p53
F0.01160541586073501
sS'citizens'
p54
F0.005802707930367505
sS'foreign'
p55
F0.014506769825918761
sS'planned'
p56
F0.0009671179883945841
sS'Committee'
p57
F0.0029013539651837525
sS'illegal'
p58
F0.0019342359767891683
sS'action'
p59
F0.004835589941972921
sS'efforts'
p60
F0.0009671179883945841
sS'expression'
p61
F0.0019342359767891683
sS'relevant'
p62
F0.005802707930367505
sS'civil'
p63
F0.0038684719535783366
sS'community'
p64
F0.0009671179883945841
sS'respect'
p65
F0.01160541586073501
sS'armed'
p66
F0.019342359767891684
sS'basis'
p67
F0.005802707930367505
sS'discrimination'
p68
F0.012572533849129593
sS'support'
p69
F0.004835589941972921
sS'political'
p70
F0.030947775628626693
sS'relations'
p71
F0.004835589941972921
sS'basic'
p72
F0.0019342359767891683
sS'Iraq'
p73
F0.014506769825918761
sS'meeting'
p74
F0.0019342359767891683
sS'form'
p75
F0.0019342359767891683
sS'Nations'
p76
F0.009671179883945842
sS'part'
p77
F0.0009671179883945841
sS'systematic'
p78
F0.012572533849129593
sS'population'
p79
F0.0019342359767891683
sS'directed'
p80
F0.09187620889748549
sS'culture'
p81
F0.009671179883945842
sS'Taiwan'
p82
F0.0009671179883945841
sS'social'
p83
F0.0038684719535783366
sS'Conference'
p84
F0.0038684719535783366
sS'strengthening'
p85
F0.006769825918762089
sS'process'
p86
F0.010638297872340425
sS'organized'
p87
F0.0038684719535783366
sS'physical'
p88
F0.008704061895551257
sS'forced'
p89
F0.0009671179883945841
sS'mutual'
p90
F0.007736943907156673
sS'end'
p91
F0.009671179883945842
sS'provide'
p92
F0.004835589941972921
sS'acts'
p93
F0.02804642166344294
sS'role'
p94
F0.0019342359767891683
sS'They'
p95
F0.0009671179883945841
sS'peoples'
p96
F0.008704061895551257
sS'development'
p97
F0.0009671179883945841
sS'comprehensive'
p98
F0.004835589941972921
sS'measures'
p99
F0.0009671179883945841
sS'peace'
p100
F0.01160541586073501
sS'persons'
p101
F0.0009671179883945841
sS'ethnic'
p102
F0.012572533849129593
sS'services'
p103
F0.0009671179883945841
sS'The'
p104
F0.04932301740812379
sS'law'
p105
F0.025145067698259187
sS'recent'
p106
F0.006769825918762089
sS'Cuba'
p107
F0.006769825918762089
sS'States'
p108
F0.020309477756286266
sS'fundamental'
p109
F0.005802707930367505
sS'resolution'
p110
F0.007736943907156673
sS'order'
p111
F0.0038684719535783366
sS'fact'
p112
F0.0009671179883945841
ssI2
(dp113
S'poor'
p114
F0.005082592121982211
sS'members'
p115
F0.010165184243964422
sg86
F0.008894536213468869
sg32
F0.0012706480304955528
sS'parties'
p116
F0.0025412960609911056
sg87
F0.0025412960609911056
sg110
F0.0025412960609911056
sg64
F0.0012706480304955528
sS'migrant'
p117
F0.02795425667090216
sS'rural'
p118
F0.005082592121982211
sg5
F0.030495552731893267
sS'young'
p119
F0.0025412960609911056
sg6
F0.045743329097839895
sS'measures_#-1'
p120
F0.01905972045743329
sg65
F0.005082592121982211
sS'international_#-2'
p121
F0.0025412960609911056
sS'minorities'
p122
F0.02795425667090216
sg7
F0.0012706480304955528
sg8
F0.005082592121982211
sg38
F0.0025412960609911056
sg89
F0.043202033036848796
sS'workers'
p123
F0.025412960609911054
sg40
F0.015247776365946633
sg41
F0.0025412960609911056
sg10
F0.0012706480304955528
sg68
F0.007623888182973317
sS'concerned'
p124
F0.015247776365946633
sS'religious_#2'
p125
F0.015247776365946633
sg11
F0.0012706480304955528
sg12
F0.005082592121982211
sS'freedoms'
p126
F0.015247776365946633
sS'labour'
p127
F0.020330368487928845
sg45
F0.0012706480304955528
sg16
F0.02795425667090216
sg88
F0.0012706480304955528
sS'Rapporteur'
p128
F0.016518424396442185
sg97
F0.005082592121982211
sg99
F0.030495552731893267
sg78
F0.0025412960609911056
sS'policies'
p129
F0.0038119440914866584
sS'oppressive'
p130
F0.015247776365946633
sS'imposition_#-3'
p131
F0.015247776365946633
sg50
F0.0012706480304955528
sS'ethnic_#1'
p132
F0.015247776365946633
sg42
F0.029224904701397714
sS'indigenous'
p133
F0.016518424396442185
sg101
F0.010165184243964422
sg23
F0.007623888182973317
sg21
F0.017789072426937738
sg52
F0.03303684879288437
sg102
F0.03176620076238882
sS'improving'
p134
F0.0025412960609911056
sS'training'
p135
F0.0012706480304955528
sg105
F0.005082592121982211
sS'continued'
p136
F0.01905972045743329
sS'projects'
p137
F0.005082592121982211
sg24
F0.007623888182973317
sg80
F0.048284625158831
sS'restrictions'
p138
F0.017789072426937738
sg96
F0.0012706480304955528
sS'especially'
p139
F0.008894536213468869
sS'reported'
p140
F0.015247776365946633
sg26
F0.0012706480304955528
sg27
F0.052096569250317665
sS'oppressive_#-2'
p141
F0.015247776365946633
sg55
F0.0012706480304955528
sg17
F0.05590851334180432
sS'Special'
p142
F0.022871664548919948
sg109
F0.0025412960609911056
sS'arbitrary'
p143
F0.020330368487928845
sS'military'
p144
F0.016518424396442185
sg31
F0.0012706480304955528
sS'society'
p145
F0.0012706480304955528
sg61
F0.015247776365946633
sS'institutions'
p146
F0.0012706480304955528
sg112
F0.0012706480304955528
ssI3
(dp147
S'sector'
p148
F0.0023006134969325155
sg2
F0.01303680981595092
sg4
F0.004601226993865031
sS'global'
p149
F0.009202453987730062
sS'focus'
p150
F0.0023006134969325155
sS'trade'
p151
F0.006901840490797546
sg5
F0.004601226993865031
sg6
F0.009969325153374233
sg8
F0.006134969325153374
sg9
F0.006901840490797546
sg10
F0.01303680981595092
sg119
F0.0023006134969325155
sS'opportunities'
p152
F0.004601226993865031
sg11
F0.0007668711656441718
sS'environment'
p153
F0.0007668711656441718
sg13
F0.006901840490797546
sg14
F0.0015337423312883436
sg15
F0.003834355828220859
sS'criminal'
p154
F0.0007668711656441718
sS'local'
p155
F0.004601226993865031
sS'achieve'
p156
F0.0007668711656441718
sg18
F0.0015337423312883436
sS'increased'
p157
F0.006901840490797546
sS'regional'
p158
F0.009202453987730062
sg133
F0.003834355828220859
sg23
F0.0007668711656441718
sS'private'
p159
F0.004601226993865031
sg136
F0.0007668711656441718
sg137
F0.009202453987730062
sg24
F0.005368098159509203
sS'level'
p160
F0.004601226993865031
sg25
F0.029141104294478526
sg28
F0.00843558282208589
sg30
F0.006134969325153374
sS'sustainable'
p161
F0.007668711656441718
sg114
F0.005368098159509203
sS'set'
p162
F0.0007668711656441718
sS'financial'
p163
F0.02223926380368098
sg32
F0.037576687116564415
sg81
F0.003067484662576687
sg35
F0.003067484662576687
sg36
F0.01687116564417178
sS'programmes'
p164
F0.018404907975460124
sS'special'
p165
F0.0007668711656441718
sg38
F0.0007668711656441718
sg39
F0.003067484662576687
sg41
F0.0015337423312883436
sS'assistance'
p166
F0.009969325153374233
sS'legal'
p167
F0.003834355828220859
sg44
F0.007668711656441718
sS'access'
p168
F0.012269938650306749
sS'future'
p169
F0.006901840490797546
sS'safety'
p170
F0.0007668711656441718
sS'cooperation'
p171
F0.01303680981595092
sg45
F0.006901840490797546
sg46
F0.02607361963190184
sg47
F0.005368098159509203
sg48
F0.009969325153374233
sS'This'
p172
F0.005368098159509203
sS'understanding'
p173
F0.006901840490797546
sS'poverty'
p174
F0.009202453987730062
sg52
F0.0007668711656441718
sg135
F0.0015337423312883436
sS'country'
p175
F0.013803680981595092
sg55
F0.0023006134969325155
sg17
F0.012269938650306749
sg83
F0.024539877300613498
sg59
F0.011503067484662576
sg60
F0.027607361963190184
sS'major'
p176
F0.006134969325153374
sg63
F0.0007668711656441718
sg64
F0.007668711656441718
sg103
F0.01303680981595092
sg145
F0.004601226993865031
sg67
F0.0023006134969325155
sg69
F0.01303680981595092
sg70
F0.0015337423312883436
sg71
F0.0007668711656441718
sg72
F0.009969325153374233
sg106
F0.003834355828220859
sg74
F0.0007668711656441718
sS'Governments'
p177
F0.009202453987730062
sg76
F0.015337423312883436
sS'goals'
p178
F0.0007668711656441718
sS'raising'
p179
F0.004601226993865031
sg79
F0.0007668711656441718
sg80
F0.09815950920245399
sS'organizations'
p180
F0.009969325153374233
sS'developing'
p181
F0.020705521472392636
sS'growth'
p182
F0.007668711656441718
sS'resources'
p183
F0.023773006134969327
sg129
F0.006901840490797546
sg84
F0.003067484662576687
sg85
F0.005368098159509203
sS'modern'
p184
F0.0007668711656441718
sg87
F0.0007668711656441718
sS'efforts_#-1'
p185
F0.010736196319018405
sg121
F0.007668711656441718
sS'education'
p186
F0.032208588957055216
sg88
F0.0007668711656441718
sg90
F0.0015337423312883436
sg91
F0.0007668711656441718
sg92
F0.004601226993865031
sg100
F0.0015337423312883436
sg127
F0.0007668711656441718
sg94
F0.005368098159509203
sg95
F0.0007668711656441718
sg97
F0.03374233128834356
sg98
F0.005368098159509203
sg99
F0.0023006134969325155
sS'needs'
p187
F0.006134969325153374
sS'levels'
p188
F0.006134969325153374
sg134
F0.006901840490797546
sg104
F0.023006134969325152
sS'destruction'
p189
F0.0015337423312883436
sg139
F0.0015337423312883436
sS'effective'
p190
F0.009969325153374233
sS'light'
p191
F0.0007668711656441718
sg146
F0.00843558282208589
sg108
F0.0023006134969325155
sg109
F0.003067484662576687
sg118
F0.007668711656441718
sg110
F0.0007668711656441718
sg111
F0.005368098159509203
ssI4
(dp192
g148
F0.018571428571428572
sg4
F0.004285714285714286
sg183
F0.005714285714285714
sg5
F0.002857142857142857
sg43
F0.002857142857142857
sg7
F0.0014285714285714286
sS'weapons'
p193
F0.017142857142857144
sg9
F0.012857142857142857
sg124
F0.0014285714285714286
sg119
F0.002857142857142857
sg152
F0.0014285714285714286
sg153
F0.012857142857142857
sg13
F0.004285714285714286
sg15
F0.014285714285714285
sg154
F0.002857142857142857
sg156
F0.015714285714285715
sg18
F0.002857142857142857
sg19
F0.0014285714285714286
sg157
F0.007142857142857143
sS'government'
p194
F0.011428571428571429
sg23
F0.007142857142857143
sg26
F0.004285714285714286
sg29
F0.005714285714285714
sg20
F0.011428571428571429
sg161
F0.002857142857142857
sg31
F0.0014285714285714286
sg97
F0.002857142857142857
sg162
F0.014285714285714285
sg163
F0.007142857142857143
sg33
F0.011428571428571429
sg145
F0.005714285714285714
sg35
F0.002857142857142857
sg36
F0.03428571428571429
sg165
F0.008571428571428572
sg38
F0.008571428571428572
sg39
F0.0014285714285714286
sg41
F0.01
sg42
F0.0014285714285714286
sg167
F0.01
sg168
F0.0014285714285714286
sg169
F0.0014285714285714286
sg48
F0.002857142857142857
sg49
F0.002857142857142857
sS'power'
p195
F0.02
sg172
F0.012857142857142857
sg50
F0.004285714285714286
sg51
F0.004285714285714286
sg115
F0.017142857142857144
sg135
F0.004285714285714286
sS'Chinese'
p196
F0.011428571428571429
sS'attacks'
p197
F0.017142857142857144
sg55
F0.0014285714285714286
sg17
F0.01
sg56
F0.015714285714285715
sg57
F0.005714285714285714
sg83
F0.007142857142857143
sg59
F0.002857142857142857
sg144
F0.004285714285714286
sg60
F0.0014285714285714286
sg176
F0.002857142857142857
sg62
F0.011428571428571429
sg52
F0.004285714285714286
sg159
F0.008571428571428572
sg116
F0.014285714285714285
sg66
F0.002857142857142857
sg68
F0.004285714285714286
sg70
F0.032857142857142856
sg72
F0.0014285714285714286
sg73
F0.002857142857142857
sg74
F0.004285714285714286
sg75
F0.014285714285714285
sg77
F0.02142857142857143
sg178
F0.011428571428571429
sg78
F0.0014285714285714286
sg179
F0.008571428571428572
sg79
F0.02142857142857143
sg80
F0.13285714285714287
sg180
F0.007142857142857143
sg181
F0.005714285714285714
sg182
F0.002857142857142857
sg128
F0.004285714285714286
sg129
F0.002857142857142857
sg82
F0.022857142857142857
sg142
F0.008571428571428572
sg184
F0.015714285714285715
sg120
F0.01
sg88
F0.0014285714285714286
sg92
F0.0014285714285714286
sg127
F0.005714285714285714
sg94
F0.0014285714285714286
sg95
F0.03428571428571429
sS'economy'
p198
F0.02
sg114
F0.0014285714285714286
sg99
F0.02
sg101
F0.007142857142857143
sg134
F0.004285714285714286
sg104
F0.01
sg189
F0.014285714285714285
sS'so-called'
p199
F0.017142857142857144
sg107
F0.01
sg110
F0.002857142857142857
sg112
F0.022857142857142857
ssI5
(dp200
g84
F0.009478672985781991
sg176
F0.004739336492890996
sg162
F0.0071090047393364926
sg115
F0.009478672985781991
sg63
F0.016587677725118485
sg173
F0.011848341232227487
sg193
F0.004739336492890996
sg87
F0.030805687203791468
sS'activities_#-1'
p201
F0.02843601895734597
sg64
F0.004739336492890996
sg151
F0.004739336492890996
sg111
F0.0071090047393364926
sg34
F0.0071090047393364926
sg5
F0.009478672985781991
sg71
F0.004739336492890996
sg116
F0.004739336492890996
sg66
F0.004739336492890996
sg12
F0.011848341232227487
sg145
F0.002369668246445498
sg153
F0.014218009478672985
sg90
F0.009478672985781991
sg123
F0.004739336492890996
sg91
F0.002369668246445498
sg41
F0.002369668246445498
sg92
F0.004739336492890996
sg58
F0.02843601895734597
sg166
F0.002369668246445498
sg93
F0.011848341232227487
sg70
F0.002369668246445498
sg119
F0.0071090047393364926
sg43
F0.002369668246445498
sg11
F0.035545023696682464
sg168
F0.004739336492890996
sg127
F0.002369668246445498
sg170
F0.035545023696682464
sg14
F0.016587677725118485
sg95
F0.004739336492890996
sg72
F0.009478672985781991
sg15
F0.004739336492890996
sg46
F0.02132701421800948
sg73
F0.002369668246445498
sg155
F0.037914691943127965
sg48
F0.002369668246445498
sg183
F0.002369668246445498
sg97
F0.002369668246445498
sg18
F0.061611374407582936
sg171
F0.02132701421800948
sg89
F0.002369668246445498
sg99
F0.002369668246445498
sg150
F0.009478672985781991
sg135
F0.04028436018957346
sg22
F0.014218009478672985
sg23
F0.009478672985781991
sg188
F0.018957345971563982
sg178
F0.0071090047393364926
sg52
F0.011848341232227487
sg134
F0.004739336492890996
sg104
F0.030805687203791468
sg105
F0.009478672985781991
sg17
F0.004739336492890996
sg80
F0.06635071090047394
sg180
F0.02132701421800948
sg160
F0.018957345971563982
sg154
F0.035545023696682464
sg139
F0.0071090047393364926
sg190
F0.002369668246445498
sg181
F0.011848341232227487
sS'schools'
p202
F0.03317535545023697
sg175
F0.014218009478672985
sg67
F0.0071090047393364926
sg146
F0.014218009478672985
sg57
F0.002369668246445498
sg20
F0.004739336492890996
sg144
F0.04265402843601896
sg82
F0.002369668246445498
sg110
F0.002369668246445498
sg124
F0.002369668246445498
sg83
F0.002369668246445498
ssI6
(dp203
g176
F0.014705882352941176
sg41
F0.014705882352941176
sg151
F0.007352941176470588
sg71
F0.029411764705882353
sg65
F0.014705882352941176
sg165
F0.03676470588235294
sg187
F0.04411764705882353
sg67
F0.029411764705882353
sg58
F0.04411764705882353
sg119
F0.014705882352941176
sg152
F0.03676470588235294
sg168
F0.007352941176470588
sg94
F0.029411764705882353
sg20
F0.007352941176470588
sg96
F0.014705882352941176
sg47
F0.022058823529411766
sg74
F0.04411764705882353
sg158
F0.014705882352941176
sg157
F0.014705882352941176
sg194
F0.029411764705882353
sg99
F0.007352941176470588
sg150
F0.03676470588235294
sg24
F0.014705882352941176
sg80
F0.08823529411764706
sg180
F0.022058823529411766
sg135
F0.007352941176470588
sg25
F0.051470588235294115
sg191
F0.08088235294117647
sg54
F0.04411764705882353
sS'resettlement'
p204
F0.08823529411764706
sg55
F0.014705882352941176
sg169
F0.04411764705882353
sg82
F0.029411764705882353
ss.