(dp0
I1
(dp1
S'strong'
p2
F0.002554278416347382
sS'major'
p3
F0.001277139208173691
sS'United'
p4
F0.0140485312899106
sS'force'
p5
F0.008939974457215836
sS'consider'
p6
F0.005108556832694764
sS'large-scale'
p7
F0.005108556832694764
sS'national'
p8
F0.002554278416347382
sS'civilians'
p9
F0.019157088122605363
sS'number'
p10
F0.002554278416347382
sS'community'
p11
F0.005108556832694764
sS'challenges'
p12
F0.005108556832694764
sS'Committee'
p13
F0.006385696040868455
sS'Republic'
p14
F0.03959131545338442
sS'human'
p15
F0.02554278416347382
sS'International'
p16
F0.010217113665389528
sS'open'
p17
F0.001277139208173691
sS'risk'
p18
F0.01532567049808429
sS'help'
p19
F0.010217113665389528
sS'established'
p20
F0.0038314176245210726
sS'provinces'
p21
F0.008939974457215836
sS'law'
p22
F0.01532567049808429
sS'end'
p23
F0.005108556832694764
sS'level'
p24
F0.0038314176245210726
sS'Government'
p25
F0.011494252873563218
sS'implementation'
p26
F0.0038314176245210726
sS'large'
p27
F0.002554278416347382
sS'concerned'
p28
F0.010217113665389528
sS'After'
p29
F0.005108556832694764
sS'including'
p30
F0.005108556832694764
sS'humanitarian'
p31
F0.05491698595146871
sS'current'
p32
F0.011494252873563218
sS'held'
p33
F0.010217113665389528
sS'parts'
p34
F0.007662835249042145
sS'special'
p35
F0.005108556832694764
sS'cooperation'
p36
F0.008939974457215836
sS'technological'
p37
F0.001277139208173691
sS'international'
p38
F0.022988505747126436
sS'situation'
p39
F0.02554278416347382
sS'criminal'
p40
F0.0038314176245210726
sS'conditions'
p41
F0.007662835249042145
sS'conflict'
p42
F0.016602809706257982
sS'activities'
p43
F0.001277139208173691
sS'Central'
p44
F0.006385696040868455
sS'Zaire_#1'
p45
F0.035759897828863345
sS'eastern'
p46
F0.07535121328224777
sS'military'
p47
F0.0038314176245210726
sS'social'
p48
F0.001277139208173691
sS'return'
p49
F0.020434227330779056
sS'growing'
p50
F0.001277139208173691
sS'support'
p51
F0.001277139208173691
sS'part'
p52
F0.0140485312899106
sS'rural'
p53
F0.002554278416347382
sS'groups'
p54
F0.008939974457215836
sS'African'
p55
F0.005108556832694764
sS'authorities'
p56
F0.005108556832694764
sS'The'
p57
F0.011494252873563218
sS'Democratic'
p58
F0.0280970625798212
sS'continued'
p59
F0.010217113665389528
sS'violations'
p60
F0.017879948914431672
sS'areas'
p61
F0.001277139208173691
sS'rights'
p62
F0.033205619412515965
sS'organizations'
p63
F0.02937420178799489
sS'displaced'
p64
F0.01532567049808429
sS'zones'
p65
F0.002554278416347382
sS'joint'
p66
F0.005108556832694764
sS'1996'
p67
F0.021711366538952746
sS'country'
p68
F0.005108556832694764
sS'region'
p69
F0.002554278416347382
sS'countries'
p70
F0.006385696040868455
sS'foreign'
p71
F0.008939974457215836
sS'States'
p72
F0.0140485312899106
sS'information'
p73
F0.002554278416347382
sS'persons'
p74
F0.01532567049808429
sS'Congo'
p75
F0.0280970625798212
sS'part_#1'
p76
F0.01532567049808429
sS'Council'
p77
F0.011494252873563218
sS'forces'
p78
F0.01277139208173691
sS'central_#1'
p79
F0.001277139208173691
sS'aid'
p80
F0.010217113665389528
sS'Zaire'
p81
F0.04342273307790549
sS'refugees'
p82
F0.0280970625798212
sS'order'
p83
F0.0038314176245210726
ssI2
(dp84
g19
F0.002347417840375587
sS'development_#-1'
p85
F0.0035211267605633804
sS'development_#-2'
p86
F0.008215962441314555
sS'bring'
p87
F0.004694835680751174
sg30
F0.0035211267605633804
sg15
F0.0017605633802816902
sS'speed'
p88
F0.0035211267605633804
sS'European'
p89
F0.0005868544600938967
sS'rapid'
p90
F0.00528169014084507
sg26
F0.002347417840375587
sg28
F0.0011737089201877935
sS'modernization'
p91
F0.004694835680751174
sg37
F0.0011737089201877935
sS'policy'
p92
F0.008215962441314555
sS'east'
p93
F0.007042253521126761
sS'resources'
p94
F0.007629107981220657
sS'greater'
p95
F0.002347417840375587
sS'domestic'
p96
F0.0035211267605633804
sS'regional'
p97
F0.007629107981220657
sg66
F0.002347417840375587
sg59
F0.0017605633802816902
sS'projects'
p98
F0.0035211267605633804
sg33
F0.0011737089201877935
sg24
F0.007629107981220657
sS'accelerating'
p99
F0.007042253521126761
sS'common'
p100
F0.00528169014084507
sg77
F0.0005868544600938967
sS'Chongqing'
p101
F0.002347417840375587
sg5
F0.0017605633802816902
sS'For'
p102
F0.0029342723004694834
sg8
F0.01056338028169014
sg65
F0.0005868544600938967
sS'rate'
p103
F0.0011737089201877935
sS'economic'
p104
F0.03814553990610329
sS'meters'
p105
F0.0011737089201877935
sS'economic_#-3'
p106
F0.0029342723004694834
sg35
F0.0011737089201877935
sg20
F0.0005868544600938967
sS'power'
p107
F0.020539906103286387
sS'decision'
p108
F0.014084507042253521
sS'future'
p109
F0.0011737089201877935
sS'China'
p110
F0.04929577464788732
sg36
F0.004694835680751174
sS'capital'
p111
F0.0017605633802816902
sg38
F0.0017605633802816902
sS'America'
p112
F0.0005868544600938967
sg41
F0.0005868544600938967
sg44
F0.006455399061032864
sS'scientific'
p113
F0.0035211267605633804
sS'business'
p114
F0.0029342723004694834
sS'opening'
p115
F0.004107981220657277
sS'This'
p116
F0.0017605633802816902
sS'China_#-1'
p117
F0.005868544600938967
sg79
F0.007042253521126761
sS'advantages'
p118
F0.002347417840375587
sg54
F0.0017605633802816902
sg2
F0.0005868544600938967
sS'regions_#1'
p119
F0.011737089201877934
sS'regions_#2'
p120
F0.017605633802816902
sS'training'
p121
F0.0011737089201877935
sS'central'
p122
F0.0357981220657277
sS'Chinese'
p123
F0.0017605633802816902
sg68
F0.018192488262910797
sg69
F0.012910798122065728
sS'China_#1'
p124
F0.007042253521126761
sS'levels'
p125
F0.0011737089201877935
sg13
F0.007042253521126761
sg48
F0.011737089201877934
sg47
F0.0005868544600938967
sS'efforts'
p126
F0.0035211267605633804
sS'Guangdong'
p127
F0.002347417840375587
sg3
F0.014084507042253521
sS'industrial'
p128
F0.0029342723004694834
sS'western_#-2'
p129
F0.0029342723004694834
sg7
F0.005868544600938967
sg10
F0.0011737089201877935
sS'strategic'
p130
F0.014084507042253521
sS'coastal'
p131
F0.007042253521126761
sS'market'
p132
F0.004107981220657277
sg21
F0.005868544600938967
sS'west'
p133
F0.011150234741784037
sg51
F0.008215962441314555
sS'political'
p134
F0.004694835680751174
sS'strategy'
p135
F0.011737089201877934
sg46
F0.06866197183098592
sS'enterprises'
p136
F0.0011737089201877935
sg52
F0.0017605633802816902
sS'western'
p137
F0.07570422535211267
sS'benefits'
p138
F0.0011737089201877935
sS'promote'
p139
F0.009976525821596244
sS'present'
p140
F0.0029342723004694834
sS'developing'
p141
F0.00528169014084507
sS'growth'
p142
F0.008215962441314555
sg50
F0.0029342723004694834
sg39
F0.00528169014084507
sS'century'
p143
F0.006455399061032864
sS'coastal_#1'
p144
F0.004107981220657277
sS'technology'
p145
F0.0017605633802816902
sS'prosperity'
p146
F0.008215962441314555
sS'mutual'
p147
F0.004694835680751174
sS'economic_#3'
p148
F0.004107981220657277
sS'provide'
p149
F0.0029342723004694834
sS'personnel'
p150
F0.0029342723004694834
sg29
F0.002347417840375587
sS'region_#1'
p151
F0.0017605633802816902
sS'regions'
p152
F0.07511737089201878
sS'located'
p153
F0.0029342723004694834
sS'western_#1'
p154
F0.020539906103286387
sS'role'
p155
F0.0005868544600938967
sg78
F0.0035211267605633804
sS'economy'
p156
F0.004694835680751174
sS'development'
p157
F0.0715962441314554
sS'southern'
p158
F0.0005868544600938967
sS'country_#-1'
p159
F0.002347417840375587
sS'important'
p160
F0.007629107981220657
sg56
F0.0029342723004694834
sg57
F0.02640845070422535
sg22
F0.0011737089201877935
sS'structure'
p161
F0.0035211267605633804
sS'recent'
p162
F0.0005868544600938967
sS'building'
p163
F0.007042253521126761
sS'western_#2'
p164
F0.002347417840375587
sS'gap'
p165
F0.009976525821596244
sS'construction'
p166
F0.002347417840375587
sg53
F0.0005868544600938967
sg83
F0.0017605633802816902
ssI3
(dp167
g6
F0.0035971223021582736
sS'developed'
p168
F0.008992805755395683
sg96
F0.0017985611510791368
sg87
F0.0008992805755395684
sS'southern_#-1'
p169
F0.008992805755395683
sS'fishing'
p170
F0.012589928057553957
sg15
F0.006294964028776978
sS'coast_#1'
p171
F0.012589928057553957
sg88
F0.0017985611510791368
sg89
F0.0008992805755395684
sg32
F0.0035971223021582736
sg90
F0.0017985611510791368
sS'northern'
p172
F0.03147482014388489
sg76
F0.008992805755395683
sg26
F0.0008992805755395684
sg19
F0.0035971223021582736
sg92
F0.0017985611510791368
sS'main'
p173
F0.013489208633093525
sS'local'
p174
F0.0044964028776978415
sg94
F0.0035971223021582736
sg43
F0.002697841726618705
sg95
F0.0017985611510791368
sS'coast'
p175
F0.018884892086330936
sS'River'
p176
F0.00539568345323741
sg61
F0.011690647482014389
sg24
F0.002697841726618705
sg27
F0.012589928057553957
sg100
F0.0008992805755395684
sg77
F0.0008992805755395684
sS'set'
p177
F0.006294964028776978
sg102
F0.007194244604316547
sg12
F0.0017985611510791368
sg105
F0.008992805755395683
sS'northern_#-1'
p178
F0.012589928057553957
sg114
F0.0008992805755395684
sg25
F0.011690647482014389
sS'increase'
p179
F0.002697841726618705
sg110
F0.00539568345323741
sg112
F0.0017985611510791368
sg44
F0.0035971223021582736
sg107
F0.002697841726618705
sg116
F0.011690647482014389
sS'water'
p180
F0.023381294964028777
sg79
F0.013489208633093525
sg54
F0.00539568345323741
sg9
F0.0008992805755395684
sS'cities'
p181
F0.0017985611510791368
sg122
F0.023381294964028777
sg123
F0.007194244604316547
sg68
F0.0008992805755395684
sg69
F0.0008992805755395684
sg71
F0.0008992805755395684
sS'planned'
p182
F0.0044964028776978415
sg48
F0.002697841726618705
sg47
F0.008992805755395683
sg126
F0.0035971223021582736
sg127
F0.00539568345323741
sS'road'
p183
F0.002697841726618705
sS'pollution'
p184
F0.0035971223021582736
sg3
F0.008093525179856115
sg128
F0.01079136690647482
sg7
F0.0017985611510791368
sg65
F0.0017985611510791368
sg10
F0.0035971223021582736
sg11
F0.0008992805755395684
sg131
F0.009892086330935251
sg17
F0.0044964028776978415
sg132
F0.0008992805755395684
sg21
F0.0017985611510791368
sg2
F0.015287769784172662
sS'area'
p185
F0.014388489208633094
sg133
F0.01618705035971223
sg134
F0.0017985611510791368
sS'southern_#1'
p186
F0.0044964028776978415
sS'low'
p187
F0.002697841726618705
sS'north'
p188
F0.02068345323741007
sg46
F0.11690647482014388
sg136
F0.0008992805755395684
sS'environmental'
p189
F0.0008992805755395684
sg52
F0.02787769784172662
sg137
F0.024280575539568347
sg140
F0.002697841726618705
sS'women'
p190
F0.006294964028776978
sg63
F0.0008992805755395684
sg93
F0.00539568345323741
sS'Pacific'
p191
F0.006294964028776978
sS'project'
p192
F0.008093525179856115
sg109
F0.007194244604316547
sg50
F0.0017985611510791368
sg39
F0.0008992805755395684
sS'Taiwan'
p193
F0.05485611510791367
sg33
F0.0017985611510791368
sg145
F0.0044964028776978415
sS'Taiwan_#1'
p194
F0.02068345323741007
sg73
F0.008093525179856115
sg23
F0.006294964028776978
sg149
F0.0017985611510791368
sg150
F0.0008992805755395684
sg29
F0.0044964028776978415
sg152
F0.0008992805755395684
sg153
F0.0035971223021582736
sg34
F0.015287769784172662
sg158
F0.0368705035971223
sg125
F0.0008992805755395684
sg57
F0.06205035971223022
sg161
F0.002697841726618705
sg162
F0.0044964028776978415
sS'land'
p195
F0.017985611510791366
sS'center'
p196
F0.0035971223021582736
sg31
F0.0008992805755395684
sS'traditional'
p197
F0.0170863309352518
sg154
F0.0044964028776978415
sS'south'
p198
F0.013489208633093525
sg53
F0.00539568345323741
ssI4
(dp199
g4
F0.002105263157894737
sg168
F0.008421052631578947
sS'global'
p200
F0.009473684210526316
sg96
F0.008421052631578947
sS'trade'
p201
F0.008421052631578947
sg33
F0.002105263157894737
sg14
F0.0010526315789473684
sg89
F0.014736842105263158
sg90
F0.005263157894736842
sg26
F0.01263157894736842
sg28
F0.002105263157894737
sg173
F0.0010526315789473684
sg174
F0.004210526315789474
sg94
F0.003157894736842105
sg43
F0.01263157894736842
sg97
F0.024210526315789474
sg66
F0.003157894736842105
sg59
F0.0010526315789473684
sg98
F0.007368421052631579
sg70
F0.07157894736842105
sg67
F0.0010526315789473684
sg169
F0.0010526315789473684
sg27
F0.004210526315789474
sg100
F0.0010526315789473684
sg77
F0.003157894736842105
sg30
F0.002105263157894737
sg102
F0.004210526315789474
sg8
F0.008421052631578947
sg12
F0.00631578947368421
sg103
F0.00631578947368421
sg104
F0.016842105263157894
sg16
F0.004210526315789474
sg106
F0.003157894736842105
sS'transport'
p202
F0.01263157894736842
sg20
F0.005263157894736842
sS'reform'
p203
F0.002105263157894737
sg36
F0.004210526315789474
sg38
F0.008421052631578947
sg112
F0.008421052631578947
sg41
F0.0010526315789473684
sg114
F0.0010526315789473684
sS'understanding'
p204
F0.002105263157894737
sg55
F0.010526315789473684
sg121
F0.004210526315789474
sg122
F0.045263157894736845
sg123
F0.0010526315789473684
sg69
F0.003157894736842105
sS'transition'
p205
F0.021052631578947368
sg71
F0.009473684210526316
sg182
F0.01368421052631579
sg13
F0.003157894736842105
sg48
F0.016842105263157894
sg183
F0.011578947368421053
sg184
F0.005263157894736842
sg3
F0.015789473684210527
sS'Asia'
p206
F0.021052631578947368
sS'Europe_#1'
p207
F0.049473684210526316
sg131
F0.0010526315789473684
sg132
F0.002105263157894737
sS'Europe'
p208
F0.06315789473684211
sg21
F0.0010526315789473684
sg133
F0.0010526315789473684
sg51
F0.010526315789473684
sg134
F0.010526315789473684
sg135
F0.00631578947368421
sg186
F0.011578947368421053
sg187
F0.003157894736842105
sg46
F0.06842105263157895
sg136
F0.002105263157894737
sg189
F0.002105263157894737
sg52
F0.004210526315789474
sg138
F0.004210526315789474
sg58
F0.002105263157894737
sg140
F0.003157894736842105
sg190
F0.005263157894736842
sg40
F0.009473684210526316
sg141
F0.010526315789473684
sS'Africa'
p209
F0.017894736842105262
sS'economies'
p210
F0.008421052631578947
sg191
F0.002105263157894737
sg192
F0.0010526315789473684
sg142
F0.014736842105263158
sS'policies'
p211
F0.0010526315789473684
sg50
F0.005263157894736842
sg80
F0.004210526315789474
sS'study'
p212
F0.00631578947368421
sg143
F0.0010526315789473684
sg144
F0.0010526315789473684
sg72
F0.005263157894736842
sg149
F0.00631578947368421
sg29
F0.0010526315789473684
sS'investment'
p213
F0.015789473684210527
sg152
F0.0010526315789473684
sg153
F0.005263157894736842
sg155
F0.007368421052631579
sg42
F0.0010526315789473684
sg156
F0.004210526315789474
sg157
F0.023157894736842106
sg73
F0.0010526315789473684
sg158
F0.016842105263157894
sg160
F0.004210526315789474
sg57
F0.011578947368421053
sg22
F0.002105263157894737
sg162
F0.00631578947368421
sg163
F0.004210526315789474
sS'central_#-1'
p214
F0.037894736842105266
sg53
F0.010526315789473684
sg83
F0.007368421052631579
ssI5
(dp215
g168
F0.014094432699083862
sg85
F0.007751937984496124
sg86
F0.004228329809725159
sg87
F0.0021141649048625794
sg30
F0.0035236081747709656
sg15
F0.005637773079633545
sg88
F0.0014094432699083862
sg179
F0.006342494714587738
sg174
F0.004933051444679351
sg94
F0.007751937984496124
sg49
F0.0028188865398167725
sg95
F0.01127554615926709
sg66
F0.0007047216349541931
sg201
F0.004933051444679351
sg98
F0.011980267794221282
sg61
F0.015503875968992248
sg24
F0.009161381254404511
sg70
F0.0035236081747709656
sg27
F0.005637773079633545
sg100
F0.0007047216349541931
sg156
F0.011980267794221282
sg5
F0.0014094432699083862
sS'areas_#2'
p216
F0.006342494714587738
sg65
F0.005637773079633545
sg103
F0.0028188865398167725
sg104
F0.058491895701198025
sg106
F0.005637773079633545
sg35
F0.0035236081747709656
sg20
F0.0035236081747709656
sg25
F0.0014094432699083862
sg32
F0.0007047216349541931
sg36
F0.009161381254404511
sg111
F0.007047216349541931
sg41
F0.021141649048625793
sS'foundation'
p217
F0.01127554615926709
sg115
F0.008456659619450317
sg116
F0.005637773079633545
sg204
F0.0028188865398167725
sg117
F0.0014094432699083862
sg118
F0.004933051444679351
sg129
F0.013389711064129669
sg181
F0.009866102889358703
sg122
F0.007047216349541931
sg123
F0.0007047216349541931
sg68
F0.02255109231853418
sg69
F0.1324876673713883
sg124
F0.0014094432699083862
sg71
F0.015503875968992248
sg48
F0.005637773079633545
sg126
F0.0021141649048625794
sg198
F0.0007047216349541931
sg184
F0.0035236081747709656
sg128
F0.004228329809725159
sg7
F0.004228329809725159
sg10
F0.005637773079633545
sg131
F0.014094432699083862
sg17
F0.005637773079633545
sg132
F0.005637773079633545
sS'adopted'
p218
F0.008456659619450317
sg186
F0.0014094432699083862
sg187
F0.005637773079633545
sg188
F0.0028188865398167725
sg46
F0.07047216349541931
sg136
F0.004933051444679351
sg189
F0.006342494714587738
sg166
F0.015503875968992248
sg137
F0.06483439041578576
sg138
F0.0028188865398167725
sg139
F0.004933051444679351
sg141
F0.0007047216349541931
sg109
F0.0028188865398167725
sg211
F0.014094432699083862
sg79
F0.005637773079633545
sg212
F0.0007047216349541931
sg144
F0.005637773079633545
sg147
F0.004228329809725159
sg148
F0.004933051444679351
sg149
F0.0007047216349541931
sg150
F0.007047216349541931
sg151
F0.05567300916138125
sg213
F0.017618040873854827
sg152
F0.014094432699083862
sg34
F0.0021141649048625794
sg202
F0.0028188865398167725
sg101
F0.0014094432699083862
sg157
F0.04580690627202255
sg159
F0.005637773079633545
sg125
F0.0014094432699083862
sg56
F0.0035236081747709656
sg57
F0.01127554615926709
sg165
F0.004933051444679351
sg161
F0.0035236081747709656
sS'natural'
p219
F0.018322762508809022
sS'preferential'
p220
F0.008456659619450317
sg203
F0.007751937984496124
sg164
F0.008456659619450317
sg83
F0.0007047216349541931
ssI6
(dp221
g3
F0.005050505050505051
sg4
F0.0025252525252525255
sg177
F0.012626262626262626
sg6
F0.010101010101010102
sg102
F0.0025252525252525255
sg216
F0.017676767676767676
sg200
F0.012626262626262626
sg85
F0.0025252525252525255
sg206
F0.015151515151515152
sg201
F0.0025252525252525255
sg104
F0.007575757575757576
sg207
F0.0025252525252525255
sg131
F0.030303030303030304
sg52
F0.0025252525252525255
sg88
F0.010101010101010102
sg35
F0.022727272727272728
sg89
F0.005050505050505051
sg197
F0.0025252525252525255
sg23
F0.007575757575757576
sg203
F0.0025252525252525255
sg145
F0.010101010101010102
sg51
F0.0025252525252525255
sg115
F0.0025252525252525255
sg30
F0.027777777777777776
sg91
F0.015151515151515152
sg155
F0.010101010101010102
sg140
F0.0025252525252525255
sg36
F0.010101010101010102
sg111
F0.017676767676767676
sg169
F0.0025252525252525255
sg38
F0.022727272727272728
sg112
F0.0025252525252525255
sg174
F0.005050505050505051
sg94
F0.0025252525252525255
sg156
F0.007575757575757576
sg157
F0.022727272727272728
sg43
F0.005050505050505051
sg188
F0.0025252525252525255
sg113
F0.020202020202020204
sg114
F0.012626262626262626
sg46
F0.06818181818181818
sg116
F0.010101010101010102
sS'bus'
p222
F0.030303030303030304
sg15
F0.005050505050505051
sg37
F0.022727272727272728
sg125
F0.017676767676767676
sg175
F0.0025252525252525255
sg189
F0.010101010101010102
sg11
F0.027777777777777776
sg160
F0.022727272727272728
sg118
F0.007575757575757576
sg144
F0.020202020202020204
sg161
F0.025252525252525252
sg53
F0.0025252525252525255
sg57
F0.012626262626262626
sg204
F0.015151515151515152
sg126
F0.03282828282828283
sg96
F0.005050505050505051
sg61
F0.10101010101010101
sg163
F0.005050505050505051
sg66
F0.005050505050505051
sg219
F0.005050505050505051
sg128
F0.0025252525252525255
sg123
F0.010101010101010102
sg141
F0.005050505050505051
sg212
F0.012626262626262626
sg205
F0.005050505050505051
sg209
F0.007575757575757576
sg210
F0.010101010101010102
sg191
F0.022727272727272728
sg71
F0.017676767676767676
sg192
F0.015151515151515152
sS'Street'
p223
F0.030303030303030304
sg211
F0.0025252525252525255
sg50
F0.0025252525252525255
sS'Hing'
p224
F0.010101010101010102
sg193
F0.0025252525252525255
sg137
F0.007575757575757576
ssI7
(dp225
g3
F0.011111111111111112
sg44
F0.022222222222222223
sg196
F0.13333333333333333
sg123
F0.05555555555555555
sg46
F0.044444444444444446
sg158
F0.06666666666666667
sg121
F0.15555555555555556
sS'vocational'
p226
F0.15555555555555556
sg65
F0.011111111111111112
sS'Malaysia'
p227
F0.13333333333333333
sg104
F0.011111111111111112
sg172
F0.05555555555555555
sg52
F0.022222222222222223
sg57
F0.011111111111111112
sg109
F0.022222222222222223
sg193
F0.06666666666666667
sg194
F0.011111111111111112
sg137
F0.011111111111111112
ss.