(dp0
I1
(dp1
S'United'
p2
F0.006811145510835914
sS'lack'
p3
F0.001238390092879257
sS'existing'
p4
F0.001238390092879257
sS'disabled'
p5
F0.013622291021671827
sS'including'
p6
F0.0018575851393188853
sS'human'
p7
F0.03529411764705882
sS'children'
p8
F0.04458204334365325
sS'issues'
p9
F0.010526315789473684
sS'promote'
p10
F0.002476780185758514
sS'system'
p11
F0.002476780185758514
sS'workers'
p12
F0.0043343653250774
sS'extraterritorial'
p13
F0.0086687306501548
sS'women_#-2'
p14
F0.01238390092879257
sS'young'
p15
F0.001238390092879257
sS'women_#-1'
p16
F0.02043343653250774
sS'violations'
p17
F0.004953560371517028
sS'women'
p18
F0.05015479876160991
sS'local'
p19
F0.007430340557275541
sS'resources'
p20
F0.0018575851393188853
sS'activities'
p21
F0.0006191950464396285
sS'belonging'
p22
F0.005572755417956657
sS'victims'
p23
F0.001238390092879257
sS'increased'
p24
F0.0006191950464396285
sS'food'
p25
F0.001238390092879257
sS'indigenous'
p26
F0.0086687306501548
sS'cultural'
p27
F0.010526315789473684
sS'effects'
p28
F0.022910216718266253
sS'communities'
p29
F0.001238390092879257
sS'continued'
p30
F0.0006191950464396285
sS'vast'
p31
F0.013622291021671827
sS'displaced'
p32
F0.011764705882352941
sS'imposed'
p33
F0.0086687306501548
sS'countries'
p34
F0.01609907120743034
sS'gender'
p35
F0.004953560371517028
sS'developing'
p36
F0.0173374613003096
sS'refugees'
p37
F0.0018575851393188853
sS'programme'
p38
F0.002476780185758514
sS'development'
p39
F0.013622291021671827
sS'national'
p40
F0.006811145510835914
sS'elderly'
p41
F0.043343653250773995
sS'society'
p42
F0.001238390092879257
sS'economic'
p43
F0.04272445820433437
sS'programmes'
p44
F0.0018575851393188853
sS'special'
p45
F0.002476780185758514
sS'established'
p46
F0.0006191950464396285
sS'disabilities_#-1'
p47
F0.001238390092879257
sS'assistance'
p48
F0.004953560371517028
sS'health'
p49
F0.0006191950464396285
sS'international'
p50
F0.002476780185758514
sS'conditions'
p51
F0.001238390092879257
sS'participation'
p52
F0.0006191950464396285
sS'attention'
p53
F0.006191950464396285
sS'non-governmental'
p54
F0.006191950464396285
sS'children_#-1'
p55
F0.013003095975232198
sS'children_#-2'
p56
F0.023529411764705882
sS'children_#-3'
p57
F0.0006191950464396285
sS'child_#-3'
p58
F0.001238390092879257
sS'groups'
p59
F0.02043343653250774
sS'pressure'
p60
F0.013622291021671827
sS'country'
p61
F0.018575851393188854
sS'ill'
p62
F0.005572755417956657
sS'minorities'
p63
F0.00804953560371517
sS'protection'
p64
F0.0006191950464396285
sS'ensure'
p65
F0.005572755417956657
sS'social'
p66
F0.01609907120743034
sS'military'
p67
F0.0006191950464396285
sS'family'
p68
F0.0006191950464396285
sS'Rejects'
p69
F0.013622291021671827
sS'private'
p70
F0.0018575851393188853
sS'migrant'
p71
F0.006811145510835914
sS'coercive'
p72
F0.0086687306501548
sS'respect'
p73
F0.001238390092879257
sS'total'
p74
F0.004953560371517028
sS'tools'
p75
F0.013622291021671827
sS'market'
p76
F0.0006191950464396285
sS'caring'
p77
F0.0006191950464396285
sS'households'
p78
F0.0006191950464396285
sS'political'
p79
F0.021052631578947368
sS'negative'
p80
F0.013622291021671827
sS'priority'
p81
F0.001238390092879257
sS'realization'
p82
F0.0173374613003096
sS'Governments'
p83
F0.0043343653250774
sS'populations'
p84
F0.01609907120743034
sS'Nations'
p85
F0.005572755417956657
sS'sick'
p86
F0.005572755417956657
sS'care_#-1'
p87
F0.0006191950464396285
sS'population'
p88
F0.004953560371517028
sS'disabled_#-1'
p89
F0.001238390092879257
sS'organizations'
p90
F0.006811145510835914
sS'persons_#1'
p91
F0.0030959752321981426
sS'thousands'
p92
F0.006811145510835914
sS'populations_#-3'
p93
F0.00804953560371517
sS'youth'
p94
F0.0043343653250774
sS'policies'
p95
F0.00804953560371517
sS'providing'
p96
F0.0006191950464396285
sS'disabilities'
p97
F0.0086687306501548
sS'Special'
p98
F0.0030959752321981426
sS'unilateral'
p99
F0.007430340557275541
sS'strengthen'
p100
F0.0030959752321981426
sS'need'
p101
F0.001238390092879257
sS'vulnerable'
p102
F0.021052631578947368
sS'provide'
p103
F0.001238390092879257
sS'They'
p104
F0.0006191950464396285
sS'income'
p105
F0.001238390092879257
sS'poor'
p106
F0.0018575851393188853
sS'provided'
p107
F0.0006191950464396285
sS'disabled_#1'
p108
F0.009287925696594427
sS'measures'
p109
F0.015479876160990712
sS'disadvantaged'
p110
F0.0043343653250774
sS'persons'
p111
F0.03900928792569659
sS'ethnic'
p112
F0.007430340557275541
sS'authorities'
p113
F0.006191950464396285
sS'The'
p114
F0.001238390092879257
sS'rights'
p115
F0.03591331269349845
sS'sectors'
p116
F0.017956656346749224
sS'age'
p117
F0.0006191950464396285
sS'humanitarian'
p118
F0.0037151702786377707
sS'suffering'
p119
F0.0006191950464396285
ssI2
(dp120
S'Deeply'
p121
F0.011513157894736841
sS'women_#2'
p122
F0.02549342105263158
sg41
F0.023848684210526317
sg71
F0.023026315789473683
sg6
F0.004934210526315789
sS'girl'
p123
F0.018914473684210526
sS'destitute'
p124
F0.018914473684210526
sg8
F0.006578947368421052
sg102
F0.02631578947368421
sS'living'
p125
F0.027138157894736843
sg47
F0.02138157894736842
sg12
F0.005756578947368421
sS'based'
p126
F0.004111842105263158
sS'armed'
p127
F0.02055921052631579
sS'concerned'
p128
F0.018092105263157895
sS'acts'
p129
F0.009868421052631578
sg14
F0.023026315789473683
sg15
F0.0008223684210526315
sS'parents'
p130
F0.0008223684210526315
sS'refugee'
p131
F0.023026315789473683
sS'women_#1'
p132
F0.023026315789473683
sg88
F0.0008223684210526315
sS'situations_#3'
p133
F0.02138157894736842
sS'conflict'
p134
F0.02138157894736842
sg83
F0.0008223684210526315
sg21
F0.0008223684210526315
sg22
F0.023026315789473683
sS'minority'
p135
F0.022203947368421052
sg54
F0.0008223684210526315
sg109
F0.0008223684210526315
sS'continuing'
p136
F0.0024671052631578946
sS'detention'
p137
F0.018092105263157895
sg26
F0.024671052631578948
sg57
F0.003289473684210526
sg58
F0.014802631578947368
sg59
F0.05756578947368421
sS'child'
p138
F0.01644736842105263
sg29
F0.023848684210526317
sS'care'
p139
F0.0008223684210526315
sS'remote'
p140
F0.018092105263157895
sS'especially'
p141
F0.018092105263157895
sg35
F0.004111842105263158
sg97
F0.022203947368421052
sS'violence'
p142
F0.024671052631578948
sg94
F0.0008223684210526315
sg18
F0.2582236842105263
sS'situations'
p143
F0.02138157894736842
sS'abuses'
p144
F0.003289473684210526
sS'rural'
p145
F0.019736842105263157
sS'institutions'
p146
F0.018092105263157895
ssI3
(dp147
g88
F0.01939655172413793
sg2
F0.008620689655172414
sS'financial'
p148
F0.0021551724137931034
sg68
F0.004310344827586207
sg121
F0.01293103448275862
sS'prisoners'
p149
F0.04310344827586207
sg3
F0.008620689655172414
sS'reduce'
p150
F0.03017241379310345
sS'number'
p151
F0.01939655172413793
sg41
F0.07758620689655173
sS'month'
p152
F0.004310344827586207
sS'population_#-3'
p153
F0.017241379310344827
sS'Rwanda'
p154
F0.04310344827586207
sS'needs_#-2'
p155
F0.01293103448275862
sg7
F0.01939655172413793
sg73
F0.008620689655172414
sg101
F0.021551724137931036
sS'home'
p156
F0.004310344827586207
sS'aged'
p157
F0.0021551724137931034
sg127
F0.0021551724137931034
sS'result'
p158
F0.004310344827586207
sg81
F0.00646551724137931
sS'needs'
p159
F0.015086206896551725
sS'Government'
p160
F0.028017241379310345
sg128
F0.017241379310344827
sS'spokesman'
p161
F0.0021551724137931034
sg11
F0.008620689655172414
sS'current'
p162
F0.0021551724137931034
sS'live'
p163
F0.004310344827586207
sS'urgent'
p164
F0.02586206896551724
sS'include'
p165
F0.0021551724137931034
sS'illness'
p166
F0.008620689655172414
sS'public'
p167
F0.017241379310344827
sS'minors'
p168
F0.03017241379310345
sg21
F0.004310344827586207
sS'minors_#-1'
p169
F0.02586206896551724
sS'complete'
p170
F0.017241379310344827
sg109
F0.008620689655172414
sg136
F0.01939655172413793
sg137
F0.008620689655172414
sg85
F0.008620689655172414
sS'early'
p171
F0.017241379310344827
sg119
F0.021551724137931036
sS'situation'
p172
F0.021551724137931036
sS'rental'
p173
F0.03017241379310345
sS'security'
p174
F0.0021551724137931034
sS'prisoners_#1'
p175
F0.02586206896551724
sS'improve'
p176
F0.010775862068965518
sg89
F0.004310344827586207
sS'scheme'
p177
F0.010775862068965518
sS'suffering_#3'
p178
F0.023706896551724137
sg34
F0.008620689655172414
sg61
F0.0021551724137931034
sg131
F0.01293103448275862
sg115
F0.023706896551724137
sg66
F0.004310344827586207
sS'Authority'
p179
F0.017241379310344827
sg65
F0.00646551724137931
sg144
F0.017241379310344827
sS'flats'
p180
F0.02586206896551724
sS'efforts'
p181
F0.04741379310344827
sg37
F0.01293103448275862
sS'housing'
p182
F0.021551724137931036
sg38
F0.004310344827586207
ssI4
(dp183
S'help'
p184
F0.0019831432821021317
sg142
F0.0009915716410510659
sg3
F0.002974714923153198
sg4
F0.0039662865642042635
sg5
F0.02825979176995538
sg6
F0.010411502231036193
sg7
F0.0009915716410510659
sS'welfare'
p185
F0.01636093207734259
sS'Department'
p186
F0.005949429846306396
sg8
F0.006941001487357461
sg10
F0.0039662865642042635
sg126
F0.0019831432821021317
sg173
F0.0009915716410510659
sg128
F0.0009915716410510659
sg15
F0.001487357461576599
sg130
F0.0004957858205255329
sS'treatment'
p187
F0.0009915716410510659
sg165
F0.010411502231036193
sg19
F0.00495785820525533
sg20
F0.005949429846306396
sg21
F0.013386217154189391
sg23
F0.0009915716410510659
sg24
F0.002974714923153198
sg90
F0.005949429846306396
sg25
F0.0019831432821021317
sS'elders'
p188
F0.005453644025780862
sS'unemployed'
p189
F0.0004957858205255329
sg70
F0.005949429846306396
sS'Social'
p190
F0.005453644025780862
sg29
F0.0004957858205255329
sg152
F0.001487357461576599
sg30
F0.0039662865642042635
sS'areas'
p191
F0.002974714923153198
sg34
F0.0019831432821021317
sg35
F0.002478929102627665
sS'including_#-3'
p192
F0.0009915716410510659
sg179
F0.0004957858205255329
sS'Kong'
p193
F0.006445215666831929
sS'ageing'
p194
F0.004462072384729797
sg174
F0.005453644025780862
sg38
F0.0074367873078829945
sg106
F0.0009915716410510659
sS'set'
p195
F0.004462072384729797
sg148
F0.007932573128408527
sS'mental'
p196
F0.0009915716410510659
sg40
F0.009419930589985127
sg41
F0.09122459097669806
sg164
F0.0019831432821021317
sg43
F0.0009915716410510659
sg156
F0.002478929102627665
sg123
F0.0004957858205255329
sg44
F0.00991571641051066
sg45
F0.013386217154189391
sg46
F0.00495785820525533
sg12
F0.005949429846306396
sg160
F0.007932573128408527
sg48
F0.011898859692612791
sg161
F0.0034705007436787306
sg49
F0.02032721864154685
sg50
F0.0019831432821021317
sg167
F0.019335647000495785
sg52
F0.001487357461576599
sS'This'
p197
F0.004462072384729797
sg53
F0.002478929102627665
sg136
F0.002478929102627665
sS'free'
p198
F0.005949429846306396
sg55
F0.0004957858205255329
sg57
F0.001487357461576599
sg59
F0.005453644025780862
sg176
F0.0034705007436787306
sS'Chinese'
p199
F0.0009915716410510659
sS'houses'
p200
F0.0004957858205255329
sg62
F0.0004957858205255329
sS'citizens'
p201
F0.0039662865642042635
sg63
F0.0004957858205255329
sg18
F0.0009915716410510659
sg64
F0.0034705007436787306
sS'residential'
p202
F0.008924144769459593
sg181
F0.0009915716410510659
sS'support'
p203
F0.010907288051561725
sS'Hong'
p204
F0.005453644025780862
sS'members'
p205
F0.005453644025780862
sg68
F0.018839861179970253
sg151
F0.0034705007436787306
sS'community'
p206
F0.005949429846306396
sS'services'
p207
F0.04115022310361924
sg73
F0.0039662865642042635
sg74
F0.001487357461576599
sg76
F0.0004957858205255329
sg77
F0.004462072384729797
sg81
F0.004462072384729797
sS'service'
p208
F0.00842835894893406
sS'addition'
p209
F0.006445215666831929
sg182
F0.0074367873078829945
sg11
F0.0039662865642042635
sg78
F0.001487357461576599
sS'basic'
p210
F0.002974714923153198
sg139
F0.034209221616261776
sg83
F0.0019831432821021317
sS'families'
p211
F0.006445215666831929
sg84
F0.0004957858205255329
sS'These'
p212
F0.00495785820525533
sS'part'
p213
F0.001487357461576599
sS'lives'
p214
F0.0009915716410510659
sg138
F0.00495785820525533
sS'care_#-2'
p215
F0.005949429846306396
sg87
F0.005949429846306396
sg88
F0.0034705007436787306
sg89
F0.0034705007436787306
sS'homes'
p216
F0.025780862667327716
sg177
F0.002974714923153198
sS'places'
p217
F0.007932573128408527
sg91
F0.0034705007436787306
sS'1998'
p218
F0.0019831432821021317
sS'handicapped'
p219
F0.002974714923153198
sg95
F0.0004957858205255329
sS'growing'
p220
F0.002974714923153198
sg172
F0.0004957858205255329
sg96
F0.012394645513138325
sS'medical'
p221
F0.014873574615765989
sg66
F0.052553296975706494
sS'strengthening'
p222
F0.00495785820525533
sg100
F0.002974714923153198
sg132
F0.001487357461576599
sg153
F0.0009915716410510659
sg101
F0.010907288051561725
sg157
F0.008924144769459593
sg102
F0.00842835894893406
sS'diseases'
p223
F0.0009915716410510659
sg159
F0.006941001487357461
sS'education'
p224
F0.01685671789786812
sS'needy'
p225
F0.005949429846306396
sS'services_#-1'
p226
F0.00495785820525533
sg104
F0.002974714923153198
sS'physical'
p227
F0.0019831432821021317
sg39
F0.007932573128408527
sg94
F0.007932573128408527
sg135
F0.0004957858205255329
sg107
F0.004462072384729797
sg108
F0.010411502231036193
sg109
F0.005453644025780862
sS'problems'
p228
F0.0004957858205255329
sg110
F0.0034705007436787306
sg111
F0.002974714923153198
sg113
F0.0004957858205255329
sg114
F0.024293505205751114
sS'mentally'
p229
F0.0019831432821021317
sS'demand'
p230
F0.002478929102627665
sg141
F0.0009915716410510659
sg116
F0.002478929102627665
sg117
F0.0009915716410510659
sg118
F0.0004957858205255329
sS'order'
p231
F0.0039662865642042635
sg103
F0.013386217154189391
sS'centres'
p232
F0.007932573128408527
sS'senior'
p233
F0.00842835894893406
sg146
F0.007932573128408527
ssI5
(dp234
g184
F0.0062932662051604785
sg4
F0.0031466331025802393
sg5
F0.0031466331025802393
sg185
F0.0006293266205160479
sg186
F0.0012586532410320957
sg8
F0.03650094398993078
sg9
F0.0006293266205160479
sg161
F0.0025173064820641915
sS'death'
p235
F0.007551919446192574
sg126
F0.0006293266205160479
sg202
F0.0031466331025802393
sg12
F0.009439899307740718
sg14
F0.0006293266205160479
sg15
F0.021397105097545627
sS'unable'
p236
F0.00881057268722467
sg130
F0.012586532410320957
sg187
F0.005034612964128383
sg19
F0.0006293266205160479
sg20
F0.0012586532410320957
sg21
F0.0006293266205160479
sg22
F0.0006293266205160479
sg23
F0.0031466331025802393
sg24
F0.0031466331025802393
sg189
F0.008181246066708621
sg26
F0.003775959723096287
sg27
F0.0006293266205160479
sg70
F0.005663939584644431
sg29
F0.00881057268722467
sg107
F0.0012586532410320957
sg152
F0.0018879798615481435
sg191
F0.0062932662051604785
sS'entire'
p237
F0.0025173064820641915
sg32
F0.0006293266205160479
sg34
F0.0012586532410320957
sg194
F0.0025173064820641915
sg91
F0.010698552548772814
sg179
F0.0031466331025802393
sg193
F0.0006293266205160479
sS'continue'
p238
F0.0018879798615481435
sg174
F0.0018879798615481435
sg37
F0.004405286343612335
sg60
F0.0025173064820641915
sg195
F0.0031466331025802393
sS'generation'
p239
F0.007551919446192574
sg131
F0.0012586532410320957
sg40
F0.0018879798615481435
sg41
F0.118313404657017
sg42
F0.013845185651353053
sg43
F0.00881057268722467
sg158
F0.005034612964128383
sg156
F0.006922592825676526
sg124
F0.0006293266205160479
sg45
F0.0006293266205160479
sg46
F0.0006293266205160479
sg160
F0.0018879798615481435
sg162
F0.009439899307740718
sg86
F0.00881057268722467
sg49
F0.0018879798615481435
sg51
F0.011327879169288861
sg52
F0.003775959723096287
sg197
F0.0018879798615481435
sg53
F0.0062932662051604785
sg136
F0.0006293266205160479
sS'standard'
p240
F0.007551919446192574
sg200
F0.005034612964128383
sg57
F0.0025173064820641915
sg59
F0.011327879169288861
sg139
F0.013845185651353053
sS'received'
p241
F0.006922592825676526
sg199
F0.011327879169288861
sg55
F0.0012586532410320957
sg61
F0.0018879798615481435
sg62
F0.0025173064820641915
sg201
F0.005663939584644431
sg92
F0.0012586532410320957
sg64
F0.0025173064820641915
sg143
F0.0012586532410320957
sg181
F0.0031466331025802393
sg203
F0.0025173064820641915
sS'allowance'
p242
F0.00881057268722467
sS'industrial'
p243
F0.007551919446192574
sg205
F0.0025173064820641915
sg68
F0.005663939584644431
sg151
F0.013215859030837005
sg206
F0.008181246066708621
sg222
F0.0006293266205160479
sg73
F0.0012586532410320957
sg74
F0.0006293266205160479
sg76
F0.007551919446192574
sg77
F0.0018879798615481435
sg208
F0.0006293266205160479
sg209
F0.0006293266205160479
sg182
F0.01195720578980491
sg79
F0.009439899307740718
sg11
F0.005034612964128383
sg78
F0.0062932662051604785
sg163
F0.010069225928256766
sg210
F0.0025173064820641915
sg176
F0.0025173064820641915
sS'ago'
p244
F0.007551919446192574
sg211
F0.025802391441157962
sg212
F0.007551919446192574
sS'villages'
p245
F0.0031466331025802393
sg85
F0.0018879798615481435
sg213
F0.005663939584644431
sg214
F0.006922592825676526
sg230
F0.005663939584644431
sg215
F0.0012586532410320957
sg88
F0.010698552548772814
sg89
F0.0018879798615481435
sg90
F0.0006293266205160479
sg177
F0.004405286343612335
sg217
F0.0012586532410320957
sg36
F0.0062932662051604785
sg218
F0.0012586532410320957
sg219
F0.0062932662051604785
sg95
F0.0018879798615481435
sg220
F0.0062932662051604785
sg172
F0.004405286343612335
sS'Taiwan'
p246
F0.016362492133417242
sg96
F0.0062932662051604785
sg97
F0.0006293266205160479
sg98
F0.0025173064820641915
sg166
F0.0012586532410320957
sS'urban'
p247
F0.007551919446192574
sg100
F0.0006293266205160479
sg221
F0.0144745122718691
sg101
F0.00881057268722467
sg157
F0.0018879798615481435
sg227
F0.0006293266205160479
sg159
F0.004405286343612335
sg224
F0.0018879798615481435
sg103
F0.004405286343612335
sg226
F0.0012586532410320957
sg104
F0.0031466331025802393
sg105
F0.00881057268722467
sS'economy'
p248
F0.006922592825676526
sg106
F0.016362492133417242
sg125
F0.03146633102580239
sg108
F0.0006293266205160479
sg66
F0.003775959723096287
sg228
F0.008181246066708621
sg110
F0.008181246066708621
sg111
F0.022655758338577723
sg112
F0.0012586532410320957
sg114
F0.040276903713027064
sg229
F0.0012586532410320957
sS'building'
p249
F0.007551919446192574
sg140
F0.0012586532410320957
sg141
F0.006922592825676526
sS'considered'
p250
F0.005034612964128383
sg117
F0.0144745122718691
sg119
F0.0018879798615481435
sS'traditional'
p251
F0.007551919446192574
sg145
F0.00881057268722467
sg233
F0.004405286343612335
sg231
F0.0018879798615481435
ssI6
(dp252
g204
F0.0037313432835820895
sg166
F0.022388059701492536
sg148
F0.011194029850746268
sg196
F0.04477611940298507
sg122
F0.0037313432835820895
sg41
F0.05223880597014925
sg4
F0.0037313432835820895
sg207
F0.026119402985074626
sg43
F0.0037313432835820895
sg6
F0.011194029850746268
sg155
F0.022388059701492536
sg7
F0.007462686567164179
sg73
F0.007462686567164179
sg186
F0.007462686567164179
sg62
F0.022388059701492536
sg224
F0.0037313432835820895
sg8
F0.007462686567164179
sg227
F0.048507462686567165
sg77
F0.026119402985074626
sg107
F0.007462686567164179
sg47
F0.007462686567164179
sg235
F0.007462686567164179
sg126
F0.007462686567164179
sg103
F0.018656716417910446
sg202
F0.014925373134328358
sg228
F0.007462686567164179
sg16
F0.0037313432835820895
sg163
F0.007462686567164179
sg49
F0.055970149253731345
sg31
F0.007462686567164179
sg50
F0.014925373134328358
sg191
F0.0037313432835820895
sg51
F0.014925373134328358
sg167
F0.0037313432835820895
sg52
F0.0037313432835820895
sg106
F0.018656716417910446
sg23
F0.0037313432835820895
sg223
F0.05223880597014925
sg84
F0.018656716417910446
sg212
F0.007462686567164179
sg188
F0.0037313432835820895
sg54
F0.011194029850746268
sg159
F0.026119402985074626
sg171
F0.007462686567164179
sg111
F0.0037313432835820895
sg119
F0.029850746268656716
sg57
F0.007462686567164179
sg28
F0.0037313432835820895
sg190
F0.007462686567164179
sS'put'
p253
F0.048507462686567165
sg229
F0.022388059701492536
sg139
F0.007462686567164179
sg110
F0.0037313432835820895
sg165
F0.007462686567164179
sg178
F0.0037313432835820895
sg141
F0.007462686567164179
sg34
F0.029850746268656716
sg19
F0.018656716417910446
sg97
F0.022388059701492536
sg201
F0.011194029850746268
sg93
F0.0037313432835820895
sg92
F0.007462686567164179
sg20
F0.029850746268656716
sg95
F0.0037313432835820895
sg143
F0.007462686567164179
sg220
F0.014925373134328358
sg172
F0.007462686567164179
sg117
F0.014925373134328358
sg91
F0.0037313432835820895
ssI7
(dp254
g2
F0.008488964346349746
sg152
F0.006791171477079796
sg6
F0.05263157894736842
sg7
F0.013582342954159592
sg8
F0.044142614601018676
sg202
F0.011884550084889643
sg12
F0.001697792869269949
sg14
F0.028862478777589132
sg16
F0.006791171477079796
sg187
F0.010186757215619695
sg17
F0.010186757215619695
sg18
F0.04923599320882852
sg92
F0.008488964346349746
sg20
F0.001697792869269949
sg23
F0.006791171477079796
sS'forces'
p255
F0.023769100169779286
sg25
F0.010186757215619695
sg171
F0.003395585738539898
sg119
F0.003395585738539898
sg190
F0.001697792869269949
sg29
F0.003395585738539898
sg30
F0.0050933786078098476
sg191
F0.022071307300509338
sg237
F0.013582342954159592
sg194
F0.001697792869269949
sg192
F0.02037351443123939
sg238
F0.015280135823429542
sg174
F0.008488964346349746
sg37
F0.02037351443123939
sg38
F0.001697792869269949
sg40
F0.008488964346349746
sg41
F0.06621392190152801
sg158
F0.003395585738539898
sg44
F0.001697792869269949
sg45
F0.010186757215619695
sg46
F0.003395585738539898
sg48
F0.010186757215619695
sg50
F0.027164685908319185
sg52
F0.0050933786078098476
sg53
F0.001697792869269949
sg55
F0.03735144312393888
sg56
F0.003395585738539898
sg64
F0.003395585738539898
sg205
F0.022071307300509338
sg253
F0.001697792869269949
sS'Croatian'
p256
F0.027164685908319185
sg241
F0.001697792869269949
sg200
F0.025466893039049237
sg131
F0.003395585738539898
sg67
F0.022071307300509338
sg181
F0.001697792869269949
sg151
F0.001697792869269949
sg206
F0.001697792869269949
sg71
F0.001697792869269949
sg127
F0.013582342954159592
sg79
F0.001697792869269949
sg210
F0.01697792869269949
sS'Iraq'
p257
F0.013582342954159592
sg170
F0.006791171477079796
sg245
F0.01867572156196944
sg85
F0.006791171477079796
sg214
F0.001697792869269949
sg87
F0.001697792869269949
sg88
F0.01697792869269949
sg115
F0.022071307300509338
sg218
F0.003395585738539898
sg172
F0.003395585738539898
sg62
F0.010186757215619695
sg98
F0.0050933786078098476
sg222
F0.0050933786078098476
sg100
F0.003395585738539898
sg132
F0.008488964346349746
sg122
F0.003395585738539898
sg153
F0.003395585738539898
sg101
F0.006791171477079796
sg102
F0.008488964346349746
sg159
F0.011884550084889643
sg103
F0.001697792869269949
sg86
F0.011884550084889643
sg248
F0.001697792869269949
sg39
F0.010186757215619695
sg125
F0.001697792869269949
sg108
F0.001697792869269949
sg109
F0.001697792869269949
sg113
F0.001697792869269949
sg114
F0.011884550084889643
sg141
F0.011884550084889643
sg250
F0.006791171477079796
sg221
F0.008488964346349746
sg118
F0.025466893039049237
sg231
F0.001697792869269949
ss.