(dp0
I1
(dp1
S'sector'
p2
F0.001951219512195122
sS'United'
p3
F0.0004878048780487805
sS'developed'
p4
F0.0034146341463414634
sS'agreed'
p5
F0.007804878048780488
sS'global'
p6
F0.0034146341463414634
sS'domestic'
p7
F0.000975609756097561
sS'focus'
p8
F0.002926829268292683
sS'existing'
p9
F0.007804878048780488
sS'bring'
p10
F0.0024390243902439024
sS'signatures'
p11
F0.020975609756097562
sS'including'
p12
F0.004390243902439025
sS'legal'
p13
F0.050731707317073174
sS'human'
p14
F0.004390243902439025
sS'uniform'
p15
F0.006829268292682927
sS'issues'
p16
F0.023414634146341463
sS'impact'
p17
F0.005365853658536586
sS'access'
p18
F0.000975609756097561
sS'rapid'
p19
F0.0004878048780487805
sS'based'
p20
F0.003902439024390244
sS'situations'
p21
F0.001951219512195122
sS'concerned'
p22
F0.0004878048780487805
sS'environment'
p23
F0.004390243902439025
sS'systems'
p24
F0.005365853658536586
sS'policy'
p25
F0.006829268292682927
sS'main'
p26
F0.0034146341463414634
sS'resources'
p27
F0.001951219512195122
sS'activities'
p28
F0.0024390243902439024
sS'increased'
p29
F0.00878048780487805
sS'provisions'
p30
F0.002926829268292683
sS'means'
p31
F0.0004878048780487805
sS'rules'
p32
F0.016585365853658537
sS'regional'
p33
F0.000975609756097561
sS'framework'
p34
F0.004878048780487805
sS'While'
p35
F0.004390243902439025
sS'private'
p36
F0.0014634146341463415
sS'progress'
p37
F0.003902439024390244
sS'satellites'
p38
F0.0004878048780487805
sS'trade'
p39
F0.013170731707317073
sS'procedures'
p40
F0.000975609756097561
sS'bank'
p41
F0.0014634146341463415
sS'areas'
p42
F0.008292682926829269
sS'countries'
p43
F0.01024390243902439
sS'level'
p44
F0.012682926829268294
sS'increased_#-2'
p45
F0.006341463414634147
sS'media_#1'
p46
F0.000975609756097561
sS'specific'
p47
F0.008292682926829269
sS'communications'
p48
F0.0004878048780487805
sS'common'
p49
F0.007317073170731708
sS'security'
p50
F0.0014634146341463415
sS'noted'
p51
F0.009268292682926829
sS'view'
p52
F0.006341463414634147
sS'worldwide'
p53
F0.000975609756097561
sS'set'
p54
F0.001951219512195122
sS'financial'
p55
F0.001951219512195122
sS'reference'
p56
F0.003902439024390244
sS'national'
p57
F0.003902439024390244
sS'direct'
p58
F0.001951219512195122
sS'related'
p59
F0.001951219512195122
sS'Commission'
p60
F0.006829268292682927
sS'growth'
p61
F0.002926829268292683
sS'enhanced'
p62
F0.005365853658536586
sS'programmes'
p63
F0.0004878048780487805
sS'special'
p64
F0.000975609756097561
sS'techniques'
p65
F0.0034146341463414634
sS'established'
p66
F0.001951219512195122
sS'ways'
p67
F0.002926829268292683
sS'transactions'
p68
F0.003902439024390244
sS'expressed'
p69
F0.006829268292682927
sS'organizations'
p70
F0.0034146341463414634
sS'current'
p71
F0.0024390243902439024
sS'difficulties'
p72
F0.00975609756097561
sS'cooperation'
p73
F0.0014634146341463415
sS'certificates'
p74
F0.001951219512195122
sS'international'
p75
F0.03463414634146342
sS'public'
p76
F0.0004878048780487805
sS'participation'
p77
F0.0004878048780487805
sS'creating'
p78
F0.000975609756097561
sS'reaching'
p79
F0.005853658536585366
sS'manufactured'
p80
F0.001951219512195122
sS'attention'
p81
F0.01024390243902439
sS'understanding'
p82
F0.013170731707317073
sS'base'
p83
F0.0004878048780487805
sS'key'
p84
F0.0014634146341463415
sS'regulatory'
p85
F0.008292682926829269
sS'article'
p86
F0.005853658536585366
sS'search'
p87
F0.0004878048780487805
sS'goods'
p88
F0.0024390243902439024
sS'working'
p89
F0.0004878048780487805
sS'technical'
p90
F0.003902439024390244
sS'country'
p91
F0.0014634146341463415
sS'communications_#1'
p92
F0.000975609756097561
sS'protection'
p93
F0.0004878048780487805
sS'economic'
p94
F0.01707317073170732
sS'context'
p95
F0.005853658536585366
sS'signature'
p96
F0.010731707317073172
sS'facilitate'
p97
F0.0014634146341463415
sS'major'
p98
F0.004390243902439025
sS'relevant'
p99
F0.0034146341463414634
sS'Group'
p100
F0.0224390243902439
sS'Working'
p101
F0.01951219512195122
sS'instruments'
p102
F0.006341463414634147
sS'number'
p103
F0.001951219512195122
sS'community'
p104
F0.001951219512195122
sS'services'
p105
F0.003902439024390244
sS'standards'
p106
F0.001951219512195122
sS'i.e'
p107
F0.004878048780487805
sS'electronic'
p108
F0.0897560975609756
sS'legislative'
p109
F0.004878048780487805
sS'service'
p110
F0.0034146341463414634
sS'area'
p111
F0.003902439024390244
sS'legal_#-3'
p112
F0.004390243902439025
sS'create'
p113
F0.005853658536585366
sS'legislation'
p114
F0.002926829268292683
sS'draft'
p115
F0.00878048780487805
sS'low'
p116
F0.000975609756097561
sS'interest'
p117
F0.0014634146341463415
sS'form'
p118
F0.005365853658536586
sS'sessions'
p119
F0.007804878048780488
sS'acceptable'
p120
F0.005853658536585366
sS'enterprises'
p121
F0.0004878048780487805
sS'part'
p122
F0.000975609756097561
sS'technologies'
p123
F0.0004878048780487805
sS'commerce'
p124
F0.03024390243902439
sS'developing'
p125
F0.00975609756097561
sS'reliable'
p126
F0.004390243902439025
sS'devices'
p127
F0.004390243902439025
sS'project'
p128
F0.0004878048780487805
sS'signatures_#1'
p129
F0.0175609756097561
sS'future'
p130
F0.003902439024390244
sS'Electronic'
p131
F0.001951219512195122
sS'social'
p132
F0.003902439024390244
sS'modern'
p133
F0.001951219512195122
sS'high'
p134
F0.0014634146341463415
sS'arrangements'
p135
F0.000975609756097561
sS'experts'
p136
F0.001951219512195122
sS'commerce_#1'
p137
F0.0351219512195122
sS'need'
p138
F0.01121951219512195
sS'signature_#1'
p139
F0.00975609756097561
sS'times'
p140
F0.0014634146341463415
sS'technology'
p141
F0.0004878048780487805
sS'traditional'
p142
F0.0004878048780487805
sS'functions'
p143
F0.000975609756097561
sS'documents'
p144
F0.003902439024390244
sS'requirements'
p145
F0.004390243902439025
sS'built'
p146
F0.000975609756097561
sS'provide'
p147
F0.0034146341463414634
sS'personnel'
p148
F0.0004878048780487805
sS'field'
p149
F0.0004878048780487805
sS'potential'
p150
F0.0024390243902439024
sS'transport'
p151
F0.0034146341463414634
sS'digital'
p152
F0.010731707317073172
sS'establishment'
p153
F0.005365853658536586
sS'stock'
p154
F0.001951219512195122
sS'development'
p155
F0.013170731707317073
sS'experienced'
p156
F0.006829268292682927
sS'provided'
p157
F0.000975609756097561
sS'measures'
p158
F0.001951219512195122
sS'hand'
p159
F0.001951219512195122
sS'missiles'
p160
F0.0004878048780487805
sS'significant'
p161
F0.005365853658536586
sS'coming'
p162
F0.0004878048780487805
sS'included'
p163
F0.000975609756097561
sS'The'
p164
F0.012682926829268294
sS'law'
p165
F0.005853658536585366
sS'data'
p166
F0.002926829268292683
sS'building'
p167
F0.005365853658536586
sS'assets'
p168
F0.0014634146341463415
sS'considered'
p169
F0.002926829268292683
sS'required'
p170
F0.004390243902439025
sS'game'
p171
F0.000975609756097561
sS'digital_#-1'
p172
F0.005853658536585366
sS'States'
p173
F0.005853658536585366
sS'e-commerce'
p174
F0.000975609756097561
sS'allow'
p175
F0.002926829268292683
sS'overseas'
p176
F0.0004878048780487805
sS'consumer'
p177
F0.0024390243902439024
sS'order'
p178
F0.0004878048780487805
sS'laws'
p179
F0.001951219512195122
ssI2
(dp180
g2
F0.0012831479897348161
sS'wearing'
p181
F0.023952095808383235
sS'Hong'
p182
F0.022241231822070145
sS'Statistics'
p183
F0.020530367835757058
sg84
F0.000427715996578272
sS'processing'
p184
F0.000427715996578272
sg102
F0.004704875962360992
sg7
F0.046193327630453376
sg8
F0.0012831479897348161
sg36
F0.000855431993156544
sS'production'
p185
F0.000427715996578272
sS'scientific'
p186
F0.001710863986313088
sS'added'
p187
F0.0025662959794696323
sS'radio'
p188
F0.000427715996578272
sS'Department'
p189
F0.020530367835757058
sS'foreign'
p190
F0.000855431993156544
sg108
F0.029940119760479042
sS'textiles'
p191
F0.022241231822070145
sS'optical'
p192
F0.00427715996578272
sS'industries'
p193
F0.02352437981180496
sS'industry_#2'
p194
F0.0025662959794696323
sS'educational'
p195
F0.000427715996578272
sS'statistics'
p196
F0.022241231822070145
sS'electrical_#-1'
p197
F0.02566295979469632
sS'publishing'
p198
F0.0012831479897348161
sS'apparatus'
p199
F0.023096663815226688
sg98
F0.02566295979469632
sS'large'
p200
F0.0025662959794696323
sg22
F0.000427715996578272
sS'Friday'
p201
F0.007698887938408896
sS'equipment'
p202
F0.02694610778443114
sS'accounted'
p203
F0.0213857998289136
sS'electrical'
p204
F0.02737382378100941
sS'basic'
p205
F0.00213857998289136
sS'total'
p206
F0.02480752780153978
sS'principal'
p207
F0.000427715996578272
sS'local'
p208
F0.000427715996578272
sS'products_#1'
p209
F0.030795551753635585
sg155
F0.000427715996578272
sS'exports'
p210
F0.04662104362703165
sS'Census'
p211
F0.0213857998289136
sS'terms'
p212
F0.001710863986313088
sg29
F0.000855431993156544
sS'consumer_#-2'
p213
F0.022241231822070145
sg80
F0.020530367835757058
sg81
F0.000427715996578272
sS'needs'
p214
F0.000427715996578272
sg121
F0.000427715996578272
sS'paper'
p215
F0.0012831479897348161
sS'released'
p216
F0.020530367835757058
sg83
F0.000427715996578272
sS'mobile'
p217
F0.000855431993156544
sS'groups'
p218
F0.0029940119760479044
sg38
F0.000427715996578272
sS'group'
p219
F0.0029940119760479044
sg164
F0.000855431993156544
sS'manufacturing'
p220
F0.0025662959794696323
sS'components_#-3'
p221
F0.020530367835757058
sS'volume'
p222
F0.0051325919589392645
sS'parts'
p223
F0.022668947818648418
sg88
F0.02523524379811805
sS'1997'
p224
F0.0051325919589392645
sS'1999'
p225
F0.005988023952095809
sS'industry'
p226
F0.015825491873396064
sS'classified'
p227
F0.0213857998289136
sS'according'
p228
F0.020530367835757058
sS'accounted_#2'
p229
F0.019674935842600515
sS'Kong'
p230
F0.021813515825491875
sS'2002'
p231
F0.003421727972626176
sg48
F0.000427715996578272
sS'2000'
p232
F0.0025662959794696323
sS'2001'
p233
F0.00427715996578272
sS'products'
p234
F0.039777587681779296
sS'machinery'
p235
F0.0290846877673225
sS'components'
p236
F0.02352437981180496
sS'apparel'
p237
F0.023952095808383235
sS'output'
p238
F0.004704875962360992
sS'today'
p239
F0.0213857998289136
sS'quarter'
p240
F0.01710863986313088
sg177
F0.02352437981180496
ssI3
(dp241
S'jamming_#1'
p242
F0.007879185817465528
sS'operations'
p243
F0.009192383453709783
sg3
F0.0026263952724885093
sg4
F0.0026263952724885093
sS'facilities'
p244
F0.0013131976362442547
sg12
F0.004596191726854892
sS'surveillance'
p245
F0.009192383453709783
sg16
F0.0006565988181221273
sg207
F0.001969796454366382
sS'weapons'
p246
F0.013131976362442548
sg19
F0.007222586999343401
sg219
F0.005252790544977019
sS'knowledge'
p247
F0.003939592908732764
sS'application'
p248
F0.001969796454366382
sg21
F0.0026263952724885093
sg22
F0.0006565988181221273
sS'signals'
p249
F0.003282994090610637
sg185
F0.0006565988181221273
sS'advanced'
p250
F0.007879185817465528
sS'technological'
p251
F0.009192383453709783
sS'mail'
p252
F0.0026263952724885093
sg208
F0.003282994090610637
sS'real'
p253
F0.004596191726854892
sg28
F0.001969796454366382
sg29
F0.0006565988181221273
sg31
F0.01247537754432042
sS'joint'
p254
F0.0013131976362442547
sg35
F0.003282994090610637
sg37
F0.0006565988181221273
sg38
F0.0013131976362442547
sg157
F0.003939592908732764
sg122
F0.0006565988181221273
sg40
F0.001969796454366382
sg41
F0.003282994090610637
sg42
F0.0026263952724885093
sS'enemy'
p255
F0.03151674326986211
sg10
F0.0006565988181221273
sg153
F0.0006565988181221273
sg43
F0.0013131976362442547
sS'capability'
p256
F0.01247537754432042
sS'transmitted'
p257
F0.001969796454366382
sg47
F0.003282994090610637
sg54
F0.003282994090610637
sS'methods'
p258
F0.009192383453709783
sg57
F0.0006565988181221273
sg58
F0.0013131976362442547
sS'defense'
p259
F0.009192383453709783
sS'news'
p260
F0.0006565988181221273
sg64
F0.0013131976362442547
sg65
F0.0006565988181221273
sg66
F0.004596191726854892
sS'network'
p261
F0.0026263952724885093
sg67
F0.0006565988181221273
sS'quality'
p262
F0.0026263952724885093
sg13
F0.0006565988181221273
sS'research'
p263
F0.004596191726854892
sS'content'
p264
F0.0026263952724885093
sg72
F0.0013131976362442547
sS'China'
p265
F0.003939592908732764
sg73
F0.001969796454366382
sS'During'
p266
F0.004596191726854892
sS'exercise'
p267
F0.007222586999343401
sg212
F0.003939592908732764
sg186
F0.007222586999343401
sS'This'
p268
F0.003939592908732764
sg184
F0.0013131976362442547
sS'commercial'
p269
F0.001969796454366382
sg82
F0.0013131976362442547
sS'aircraft'
p270
F0.017071569271175313
sg83
F0.005909389363099146
sg218
F0.0006565988181221273
sg20
F0.001969796454366382
sS'reconnaissance'
p271
F0.01969796454366382
sS'conducting'
p272
F0.003939592908732764
sS'Chinese'
p273
F0.017071569271175313
sS'attacks'
p274
F0.011818778726198293
sg91
F0.0026263952724885093
sS'region'
p275
F0.0013131976362442547
sg228
F0.0013131976362442547
sg92
F0.0013131976362442547
sS'practical'
p276
F0.0006565988181221273
sS'carrier'
p277
F0.006565988181221274
sS'tactical'
p278
F0.009192383453709783
sS'high-tech'
p279
F0.005909389363099146
sS'military'
p280
F0.03611293499671701
sg84
F0.007222586999343401
sS'communication'
p281
F0.0013131976362442547
sg103
F0.004596191726854892
sg36
F0.0006565988181221273
sg105
F0.0013131976362442547
sS'fake'
p282
F0.007879185817465528
sg206
F0.003939592908732764
sg108
F0.066973079448457
sS'unit'
p283
F0.005252790544977019
sg109
F0.0006565988181221273
sS'warfare_#1'
p284
F0.017071569271175313
sS'computer'
p285
F0.003282994090610637
sS'troops'
p286
F0.011818778726198293
sg110
F0.0026263952724885093
sg111
F0.003282994090610637
sg93
F0.003282994090610637
sS'support'
p287
F0.007879185817465528
sS'political'
p288
F0.0006565988181221273
sS'system'
p289
F0.02495075508864084
sS'attack'
p290
F0.007879185817465528
sg116
F0.0013131976362442547
sg205
F0.003939592908732764
sg24
F0.005909389363099146
sS'complete'
p291
F0.003939592908732764
sg118
F0.001969796454366382
sS'fire'
p292
F0.005252790544977019
sS'levels'
p293
F0.0013131976362442547
sg87
F0.007222586999343401
sS'plane'
p294
F0.017071569271175313
sg192
F0.0013131976362442547
sg123
F0.0013131976362442547
sg44
F0.001969796454366382
sS'distance'
p295
F0.0013131976362442547
sS'warfare'
p296
F0.02232435981615233
sg125
F0.0006565988181221273
sg127
F0.001969796454366382
sS'air'
p297
F0.01247537754432042
sg128
F0.0006565988181221273
sg90
F0.003282994090610637
sg130
F0.007222586999343401
sS'planes'
p298
F0.007879185817465528
sS'Taiwan'
p299
F0.006565988181221274
sS'providing'
p300
F0.003939592908732764
sS'control'
p301
F0.008535784635587657
sS'training'
p302
F0.03151674326986211
sg133
F0.009192383453709783
sS'organized'
p303
F0.0006565988181221273
sS'surface'
p304
F0.006565988181221274
sg134
F0.005252790544977019
sg135
F0.0013131976362442547
sg136
F0.005252790544977019
sg138
F0.0006565988181221273
sg140
F0.0026263952724885093
sg141
F0.003939592908732764
sS'operation'
p305
F0.020354563361785948
sg173
F0.0026263952724885093
sg143
F0.0013131976362442547
sg160
F0.008535784635587657
sS'monitoring'
p306
F0.008535784635587657
sg146
F0.005252790544977019
sg148
F0.005909389363099146
sS'equipment_#1'
p307
F0.003939592908732764
sS'members'
p308
F0.0013131976362442547
sg202
F0.02495075508864084
sg150
F0.0013131976362442547
sS'They'
p309
F0.001969796454366382
sS'units'
p310
F0.010505581089954037
sS'jamming'
p311
F0.007879185817465528
sg155
F0.0026263952724885093
sS'satellite'
p312
F0.003939592908732764
sg187
F0.0006565988181221273
sg142
F0.001969796454366382
sS'combat'
p313
F0.008535784635587657
sS'information'
p314
F0.0026263952724885093
sg158
F0.0026263952724885093
sg159
F0.0026263952724885093
sS'important'
p315
F0.0006565988181221273
sS'designed'
p316
F0.0013131976362442547
sg162
F0.001969796454366382
sg163
F0.0013131976362442547
sg164
F0.024294156270518712
sS'fighter'
p317
F0.007222586999343401
sS'effective'
p318
F0.004596191726854892
sg217
F0.005252790544977019
sS'light'
p319
F0.003939592908732764
sg170
F0.004596191726854892
sg171
F0.0006565988181221273
sg231
F0.001969796454366382
sS'materials'
p320
F0.0013131976362442547
sS'command'
p321
F0.010505581089954037
sg178
F0.0026263952724885093
ssI4
(dp322
g2
F0.0034873583260680036
sg3
F0.005666957279860506
sg4
F0.005666957279860506
sg6
F0.004359197907585004
sg7
F0.0052310374891020054
sg8
F0.0008718395815170009
sg9
F0.0052310374891020054
sg244
F0.0013077593722755014
sS'mail_#1'
p323
F0.003923278116826504
sg12
F0.018308631211857017
sg14
F0.0013077593722755014
sS'Internet'
p324
F0.011769834350479512
sg189
F0.003051438535309503
sg263
F0.004359197907585004
sg209
F0.0017436791630340018
sS'coordination'
p325
F0.0017436791630340018
sg16
F0.0017436791630340018
sg207
F0.003051438535309503
sg17
F0.00043591979075850045
sg264
F0.002179598953792502
sg19
F0.00043591979075850045
sg219
F0.0008718395815170009
sg247
F0.0017436791630340018
sg149
F0.003923278116826504
sg21
F0.00043591979075850045
sg196
F0.0017436791630340018
sg150
F0.0026155187445510027
sg250
F0.006974716652136007
sg102
F0.0008718395815170009
sg252
F0.0034873583260680036
sS'include'
p326
F0.0017436791630340018
sg27
F0.008718395815170008
sg253
F0.0013077593722755014
sg28
F0.003051438535309503
sg29
F0.003923278116826504
sS'government'
p327
F0.004359197907585004
sg33
F0.004795117698343505
sS'period'
p328
F0.002179598953792502
sg254
F0.004795117698343505
sg35
F0.002179598953792502
sg36
F0.002179598953792502
sg75
F0.012205754141238012
sg38
F0.003051438535309503
sg157
F0.003051438535309503
sg39
F0.004795117698343505
sg41
F0.0017436791630340018
sg42
F0.002179598953792502
sg10
F0.00043591979075850045
sg43
F0.0052310374891020054
sg45
F0.00043591979075850045
sg46
F0.011333914559721011
sg200
F0.0017436791630340018
sg48
F0.00959023539668701
sg215
F0.003923278116826504
sg238
F0.00043591979075850045
sg50
F0.0008718395815170009
sg52
F0.0008718395815170009
sg53
F0.0052310374891020054
sg54
F0.003051438535309503
sg55
F0.004795117698343505
sg258
F0.00043591979075850045
sg56
F0.00043591979075850045
sS'means_#1'
p329
F0.003923278116826504
sS'energy'
p330
F0.0052310374891020054
sg59
F0.004359197907585004
sg285
F0.00043591979075850045
sg62
F0.0008718395815170009
sg193
F0.013513513513513514
sg37
F0.00043591979075850045
sg63
F0.0074106364428945075
sS'investment'
p331
F0.003051438535309503
sg64
F0.0008718395815170009
sg186
F0.008282476024411508
sg66
F0.0008718395815170009
sg261
F0.006102877070619006
sS'Government'
p332
F0.0017436791630340018
sg67
F0.0013077593722755014
sg69
F0.0008718395815170009
sS'networks'
p333
F0.01002615518744551
sg71
F0.006102877070619006
sg130
F0.00043591979075850045
sg265
F0.008718395815170008
sg73
F0.0034873583260680036
sS'conduct'
p334
F0.0013077593722755014
sg266
F0.0017436791630340018
sg76
F0.012205754141238012
sg77
F0.004359197907585004
sS'information_#1'
p335
F0.006974716652136007
sS'core'
p336
F0.006102877070619006
sS'infrastructure'
p337
F0.0008718395815170009
sg78
F0.003923278116826504
sS'exchange'
p338
F0.004795117698343505
sg81
F0.0026155187445510027
sg269
F0.0008718395815170009
sS'agencies'
p339
F0.0034873583260680036
sS'free'
p340
F0.003923278116826504
sg83
F0.003051438535309503
sS'operating'
p341
F0.0013077593722755014
sg218
F0.0026155187445510027
sg260
F0.005666957279860506
sg220
F0.0034873583260680036
sg272
F0.0017436791630340018
sg88
F0.00043591979075850045
sg89
F0.00043591979075850045
sg90
F0.003923278116826504
sg91
F0.00043591979075850045
sg226
F0.014385353095030515
sg190
F0.004359197907585004
sg276
F0.0013077593722755014
sg277
F0.00043591979075850045
sS'ensure'
p342
F0.0008718395815170009
sg132
F0.01002615518744551
sg279
F0.004359197907585004
sg97
F0.002179598953792502
sS'public_#3'
p343
F0.002179598953792502
sg98
F0.006974716652136007
sS'industrial'
p344
F0.0074106364428945075
sg308
F0.003051438535309503
sg281
F0.0034873583260680036
sg103
F0.0052310374891020054
sS'Asia'
p345
F0.0013077593722755014
sg105
F0.00043591979075850045
sg106
F0.004795117698343505
sS'parties'
p346
F0.0013077593722755014
sg108
F0.07018308631211857
sS'market'
p347
F0.002179598953792502
sS'management'
p348
F0.0017436791630340018
sg198
F0.006974716652136007
sg110
F0.002179598953792502
sg111
F0.003051438535309503
sg93
F0.002179598953792502
sg287
F0.004359197907585004
sg288
F0.004795117698343505
sg289
F0.006974716652136007
sg185
F0.004795117698343505
sg61
F0.002179598953792502
sg117
F0.005666957279860506
sg205
F0.0026155187445510027
sg57
F0.016564952048823016
sg24
F0.013077593722755012
sg118
F0.0013077593722755014
sg99
F0.003923278116826504
sg251
F0.004359197907585004
sg302
F0.0052310374891020054
sS'Nations'
p349
F0.006974716652136007
sS'environmental'
p350
F0.004795117698343505
sS'construction'
p351
F0.0026155187445510027
sS'demand'
p352
F0.004795117698343505
sg123
F0.010897994768962511
sg44
F0.004795117698343505
sg295
F0.0017436791630340018
sS'television'
p353
F0.007846556233653008
sg26
F0.0008718395815170009
sg125
F0.004359197907585004
sg126
F0.002179598953792502
sg18
F0.006102877070619006
sg293
F0.002179598953792502
sg128
F0.002179598953792502
sg94
F0.01002615518744551
sg142
F0.0034873583260680036
sg299
F0.0026155187445510027
sg275
F0.004359197907585004
sg188
F0.006538796861377506
sS'Information'
p354
F0.0052310374891020054
sg184
F0.004795117698343505
sS'process'
p355
F0.002179598953792502
sg133
F0.0026155187445510027
sg304
F0.002179598953792502
sg214
F0.004795117698343505
sg134
F0.002179598953792502
sg135
F0.0008718395815170009
sg92
F0.0034873583260680036
sg141
F0.011333914559721011
sg194
F0.0026155187445510027
sg195
F0.004359197907585004
sg144
F0.0013077593722755014
sg306
F0.0017436791630340018
sg146
F0.0008718395815170009
sg147
F0.003923278116826504
sS'media'
p356
F0.020924149956408022
sg31
F0.0074106364428945075
sg248
F0.003051438535309503
sg223
F0.0017436791630340018
sg204
F0.0017436791630340018
sg70
F0.006102877070619006
sg152
F0.0008718395815170009
sg234
F0.0052310374891020054
sg65
F0.00043591979075850045
sS'projects'
p357
F0.0052310374891020054
sg155
F0.023103748910200523
sg312
F0.011333914559721011
sg175
F0.0008718395815170009
sg313
F0.002179598953792502
sg314
F0.043591979075850044
sg158
F0.002179598953792502
sg143
F0.0013077593722755014
sS'customs'
p358
F0.0008718395815170009
sS'applications'
p359
F0.0017436791630340018
sg315
F0.004795117698343505
sg316
F0.0017436791630340018
sg162
F0.0008718395815170009
sS'improving'
p360
F0.0052310374891020054
sg145
F0.00043591979075850045
sg164
F0.021795989537925022
sg121
F0.004795117698343505
sg166
F0.004795117698343505
sg140
F0.00043591979075850045
sg167
F0.0026155187445510027
sg318
F0.00043591979075850045
sg169
F0.0008718395815170009
sg319
F0.0026155187445510027
sg170
F0.002179598953792502
sS'cultural'
p361
F0.008718395815170008
sS'departments'
p362
F0.0008718395815170009
sg178
F0.004359197907585004
sg173
F0.0017436791630340018
sg174
F0.0008718395815170009
sg232
F0.00043591979075850045
sg320
F0.011333914559721011
sg236
F0.00043591979075850045
sg148
F0.003051438535309503
sg176
F0.0008718395815170009
sS'institutions'
p363
F0.0034873583260680036
ssI5
(dp364
g2
F0.005439005439005439
sg11
F0.000777000777000777
sg4
F0.001554001554001554
sg6
F0.003108003108003108
sg7
F0.000777000777000777
sg98
F0.000777000777000777
sg244
F0.006216006216006216
sg99
F0.000777000777000777
sg14
F0.002331002331002331
sg324
F0.004662004662004662
sg189
F0.000777000777000777
sg333
F0.003885003885003885
sg16
F0.003108003108003108
sS'secure'
p365
F0.017094017094017096
sg193
F0.00777000777000777
sg264
F0.000777000777000777
sg19
F0.003885003885003885
sg20
F0.00777000777000777
sg247
F0.002331002331002331
sg22
F0.004662004662004662
sS'crime'
p366
F0.001554001554001554
sg23
F0.012432012432012432
sg251
F0.004662004662004662
sg326
F0.011655011655011656
sg208
F0.021756021756021756
sg253
F0.000777000777000777
sg30
F0.003108003108003108
sg327
F0.004662004662004662
sg33
F0.000777000777000777
sg34
F0.00777000777000777
sg361
F0.000777000777000777
sg36
F0.008547008547008548
sg47
F0.001554001554001554
sg40
F0.006993006993006993
sg42
F0.002331002331002331
sg10
F0.003885003885003885
sg323
F0.000777000777000777
sg230
F0.018648018648018648
sg256
F0.000777000777000777
sg48
F0.002331002331002331
sg49
F0.004662004662004662
sg238
F0.001554001554001554
sg50
F0.010101010101010102
sg51
F0.000777000777000777
sg156
F0.000777000777000777
sg54
F0.006216006216006216
sg55
F0.005439005439005439
sg258
F0.003885003885003885
sg57
F0.000777000777000777
sg346
F0.006216006216006216
sg58
F0.003108003108003108
sg285
F0.004662004662004662
sg62
F0.000777000777000777
sg305
F0.003108003108003108
sg106
F0.000777000777000777
sg331
F0.003108003108003108
sg191
F0.001554001554001554
sg66
F0.002331002331002331
sg332
F0.013986013986013986
sg262
F0.005439005439005439
sg68
F0.024864024864024864
sg13
F0.011655011655011656
sg263
F0.000777000777000777
sg18
F0.003108003108003108
sg334
F0.011655011655011656
sg74
F0.003108003108003108
sg76
F0.04195804195804196
sg267
F0.003885003885003885
sg329
F0.002331002331002331
sg337
F0.017871017871017872
sg212
F0.000777000777000777
sg78
F0.002331002331002331
sS'business'
p367
F0.012432012432012432
sg268
F0.006993006993006993
sg269
F0.009324009324009324
sg339
F0.000777000777000777
sg341
F0.000777000777000777
sg84
F0.017871017871017872
sg85
F0.006216006216006216
sg107
F0.001554001554001554
sS'received'
p368
F0.002331002331002331
sg272
F0.001554001554001554
sg89
F0.000777000777000777
sg273
F0.001554001554001554
sS'game_#1'
p369
F0.002331002331002331
sg276
F0.003885003885003885
sg277
F0.000777000777000777
sg342
F0.005439005439005439
sS'transactions_#1'
p370
F0.017094017094017096
sg132
F0.001554001554001554
sg97
F0.004662004662004662
sg343
F0.005439005439005439
sg182
F0.020202020202020204
sg344
F0.003108003108003108
sg308
F0.002331002331002331
sg281
F0.006993006993006993
sg103
F0.001554001554001554
sg104
F0.01554001554001554
sg163
F0.006216006216006216
sg260
F0.005439005439005439
sg108
F0.08236208236208237
sg347
F0.005439005439005439
sg109
F0.001554001554001554
sg249
F0.001554001554001554
sg348
F0.004662004662004662
sg110
F0.000777000777000777
sg112
F0.001554001554001554
sS'illegal'
p371
F0.001554001554001554
sg287
F0.006993006993006993
sg114
F0.003108003108003108
sg289
F0.000777000777000777
sg290
F0.001554001554001554
sg116
F0.004662004662004662
sg205
F0.001554001554001554
sg239
F0.001554001554001554
sg292
F0.00777000777000777
sg350
F0.003108003108003108
sg122
F0.010101010101010102
sg123
F0.000777000777000777
sg295
F0.004662004662004662
sg26
F0.002331002331002331
sg125
F0.01320901320901321
sg217
F0.001554001554001554
sg61
F0.005439005439005439
sg299
F0.002331002331002331
sg300
F0.009324009324009324
sg131
F0.006216006216006216
sg226
F0.000777000777000777
sg301
F0.002331002331002331
sg354
F0.001554001554001554
sg133
F0.001554001554001554
sg304
F0.000777000777000777
sg124
F0.01554001554001554
sg134
F0.004662004662004662
sg136
F0.001554001554001554
sg137
F0.013986013986013986
sg138
F0.001554001554001554
sg141
F0.010878010878010878
sg314
F0.010101010101010102
sg195
F0.000777000777000777
sg144
F0.000777000777000777
sg306
F0.002331002331002331
sg146
F0.001554001554001554
sg147
F0.01554001554001554
sg31
F0.000777000777000777
sg248
F0.000777000777000777
sg151
F0.003885003885003885
sg309
F0.004662004662004662
sg152
F0.008547008547008548
sg234
F0.000777000777000777
sg153
F0.005439005439005439
sg154
F0.002331002331002331
sg155
F0.011655011655011656
sg187
F0.002331002331002331
sg157
F0.002331002331002331
sg143
F0.003885003885003885
sg359
F0.003885003885003885
sg293
F0.000777000777000777
sg316
F0.004662004662004662
sg162
F0.004662004662004662
sS'authorities'
p372
F0.003108003108003108
sg164
F0.016317016317016316
sg165
F0.004662004662004662
sg168
F0.000777000777000777
sg318
F0.003108003108003108
sg169
F0.005439005439005439
sg171
F0.000777000777000777
sg362
F0.001554001554001554
sg178
F0.002331002331002331
sg231
F0.000777000777000777
sg174
F0.006993006993006993
sg105
F0.03418803418803419
sg175
F0.002331002331002331
sg176
F0.006993006993006993
sS'corporate'
p373
F0.006993006993006993
sg363
F0.003885003885003885
sg179
F0.003108003108003108
ssI6
(dp374
g243
F0.014799154334038054
sg4
F0.0010570824524312897
sg5
F0.004228329809725159
sg6
F0.003171247357293869
sg7
F0.003171247357293869
sg8
F0.0010570824524312897
sg39
F0.014799154334038054
sg244
F0.0010570824524312897
sg99
F0.011627906976744186
sg14
F0.0010570824524312897
sg324
F0.0010570824524312897
sg245
F0.008456659619450317
sg325
F0.012684989429175475
sg207
F0.0010570824524312897
sg264
F0.003171247357293869
sg20
F0.0010570824524312897
sg247
F0.0010570824524312897
sg248
F0.0010570824524312897
sg21
F0.003171247357293869
sg22
F0.006342494714587738
sg366
F0.010570824524312896
sg23
F0.003171247357293869
sg185
F0.0010570824524312897
sg24
F0.005285412262156448
sg102
F0.0021141649048625794
sg252
F0.0021141649048625794
sg27
F0.004228329809725159
sg253
F0.0010570824524312897
sg28
F0.009513742071881607
sg31
F0.006342494714587738
sg328
F0.007399577167019027
sg171
F0.008456659619450317
sg75
F0.007399577167019027
sg38
F0.005285412262156448
sg47
F0.004228329809725159
sg42
F0.0010570824524312897
sg10
F0.0021141649048625794
sg43
F0.0010570824524312897
sg230
F0.0010570824524312897
sg200
F0.0021141649048625794
sg257
F0.013742071881606765
sg49
F0.0010570824524312897
sg50
F0.0021141649048625794
sg54
F0.0021141649048625794
sg55
F0.0021141649048625794
sg56
F0.003171247357293869
sg58
F0.004228329809725159
sg94
F0.003171247357293869
sg62
F0.0021141649048625794
sg37
F0.004228329809725159
sg305
F0.005285412262156448
sg64
F0.014799154334038054
sg65
F0.005285412262156448
sg66
F0.004228329809725159
sg261
F0.006342494714587738
sg67
F0.0021141649048625794
sg262
F0.0010570824524312897
sg69
F0.0021141649048625794
sg71
F0.005285412262156448
sg265
F0.016913319238900635
sg334
F0.006342494714587738
sg74
F0.004228329809725159
sg266
F0.007399577167019027
sg76
F0.005285412262156448
sg77
F0.0010570824524312897
sg329
F0.004228329809725159
sg212
F0.006342494714587738
sg367
F0.005285412262156448
sg338
F0.003171247357293869
sg268
F0.005285412262156448
sg184
F0.0021141649048625794
sg339
F0.003171247357293869
sg340
F0.003171247357293869
sg82
F0.005285412262156448
sg270
F0.0021141649048625794
sg93
F0.007399577167019027
sg163
F0.0021141649048625794
sg85
F0.0010570824524312897
sg219
F0.007399577167019027
sg159
F0.004228329809725159
sg368
F0.005285412262156448
sg88
F0.007399577167019027
sg89
F0.009513742071881607
sg90
F0.0021141649048625794
sg91
F0.004228329809725159
sg369
F0.009513742071881607
sg228
F0.0021141649048625794
sg190
F0.0021141649048625794
sg276
F0.003171247357293869
sg342
F0.009513742071881607
sg132
F0.005285412262156448
sg280
F0.010570824524312896
sg344
F0.003171247357293869
sg281
F0.0010570824524312897
sg123
F0.0010570824524312897
sg103
F0.0010570824524312897
sg372
F0.012684989429175475
sg346
F0.003171247357293869
sg108
F0.09090909090909091
sg283
F0.008456659619450317
sg348
F0.008456659619450317
sg198
F0.0010570824524312897
sg110
F0.0306553911205074
sg371
F0.010570824524312896
sg114
F0.0021141649048625794
sg289
F0.0010570824524312897
sg116
F0.0021141649048625794
sg205
F0.0010570824524312897
sg118
F0.005285412262156448
sg350
F0.0010570824524312897
sg351
F0.006342494714587738
sg352
F0.0010570824524312897
sg192
F0.0021141649048625794
sg44
F0.004228329809725159
sg70
F0.0010570824524312897
sg353
F0.0021141649048625794
sg341
F0.016913319238900635
sg323
F0.0021141649048625794
sg225
F0.0021141649048625794
sg217
F0.0021141649048625794
sg285
F0.019027484143763214
sg298
F0.0021141649048625794
sg299
F0.005285412262156448
sg226
F0.003171247357293869
sg301
F0.006342494714587738
sg355
F0.004228329809725159
sg303
F0.015856236786469344
sg135
F0.010570824524312896
sg138
F0.0021141649048625794
sg140
F0.004228329809725159
sg141
F0.005285412262156448
sg144
F0.004228329809725159
sg145
F0.004228329809725159
sg147
F0.006342494714587738
sg356
F0.010570824524312896
sg307
F0.008456659619450317
sg202
F0.019027484143763214
sg223
F0.005285412262156448
sg151
F0.004228329809725159
sg309
F0.015856236786469344
sg152
F0.003171247357293869
sg234
F0.006342494714587738
sg312
F0.004228329809725159
sg156
F0.0010570824524312897
sg175
F0.003171247357293869
sg157
F0.004228329809725159
sg158
F0.007399577167019027
sg358
F0.019027484143763214
sg359
F0.003171247357293869
sg293
F0.004228329809725159
sg360
F0.004228329809725159
sg164
F0.042283298097251586
sg165
F0.0021141649048625794
sg166
F0.024312896405919663
sg317
F0.0010570824524312897
sg169
F0.0010570824524312897
sg170
F0.0010570824524312897
sg361
F0.005285412262156448
sg362
F0.010570824524312896
sg232
F0.007399577167019027
sg233
F0.012684989429175475
sg236
F0.004228329809725159
sg148
F0.003171247357293869
sg363
F0.0010570824524312897
sg179
F0.0021141649048625794
ssI7
(dp375
g301
F0.010101010101010102
sg258
F0.010101010101010102
sg128
F0.025252525252525252
sg355
F0.025252525252525252
sg4
F0.015151515151515152
sg312
F0.020202020202020204
sg345
F0.05555555555555555
sg185
F0.010101010101010102
sg259
F0.010101010101010102
sg188
F0.020202020202020204
sg346
F0.020202020202020204
sg189
F0.010101010101010102
sg46
F0.010101010101010102
sg108
F0.045454545454545456
sg331
F0.005050505050505051
sg16
F0.005050505050505051
sg109
F0.005050505050505051
sg23
F0.010101010101010102
sg348
F0.04040404040404041
sg30
F0.010101010101010102
sg105
F0.005050505050505051
sg174
F0.005050505050505051
sg112
F0.005050505050505051
sg356
F0.020202020202020204
sg22
F0.005050505050505051
sg288
F0.010101010101010102
sg69
F0.010101010101010102
sg263
F0.010101010101010102
sg264
F0.015151515151515152
sg202
F0.005050505050505051
sg150
F0.005050505050505051
sg204
F0.010101010101010102
sg24
F0.005050505050505051
sg93
F0.010101010101010102
sg326
F0.005050505050505051
sg153
F0.005050505050505051
sg76
F0.010101010101010102
sg154
F0.025252525252525252
sg149
F0.010101010101010102
sg210
F0.005050505050505051
sg337
F0.005050505050505051
sg212
F0.005050505050505051
sg291
F0.030303030303030304
sg367
F0.005050505050505051
sg327
F0.020202020202020204
sg268
F0.010101010101010102
sg269
F0.005050505050505051
sg121
F0.005050505050505051
sg254
F0.015151515151515152
sg35
F0.005050505050505051
sg83
F0.010101010101010102
sg161
F0.005050505050505051
sg249
F0.03535353535353535
sg38
F0.010101010101010102
sg260
F0.005050505050505051
sg314
F0.005050505050505051
sg250
F0.010101010101010102
sg167
F0.005050505050505051
sg368
F0.020202020202020204
sg88
F0.010101010101010102
sg168
F0.020202020202020204
sg43
F0.010101010101010102
sg90
F0.010101010101010102
sg297
F0.015151515151515152
sg200
F0.010101010101010102
sg48
F0.015151515151515152
sg351
F0.020202020202020204
sg94
F0.015151515151515152
sg236
F0.020202020202020204
sg279
F0.005050505050505051
sg280
F0.025252525252525252
sg52
F0.025252525252525252
sg373
F0.015151515151515152
sg287
F0.015151515151515152
sg179
F0.010101010101010102
ss.