(dp0
I1
(dp1
S'financial'
p2
F0.05194805194805195
sS'help'
p3
F0.03571428571428571
sS'community'
p4
F0.045454545454545456
sS'economic'
p5
F0.03896103896103896
sS'including'
p6
F0.03896103896103896
sS'innovative'
p7
F0.032467532467532464
sS'crisis'
p8
F0.045454545454545456
sS'additional'
p9
F0.045454545454545456
sS'investment'
p10
F0.003246753246753247
sS'current'
p11
F0.003246753246753247
sS'growth'
p12
F0.03571428571428571
sS'international'
p13
F0.10064935064935066
sS'falling'
p14
F0.06168831168831169
sS'With'
p15
F0.00974025974025974
sS'development'
p16
F0.012987012987012988
sS'demand'
p17
F0.006493506493506494
sS'sustained'
p18
F0.032467532467532464
sS'The'
p19
F0.048701298701298704
sS'debt'
p20
F0.07467532467532467
sS'commodity'
p21
F0.003246753246753247
sS'countries'
p22
F0.09740259740259741
sS'developing'
p23
F0.05519480519480519
sS'order'
p24
F0.03896103896103896
sS'future'
p25
F0.003246753246753247
sS'alleviate'
p26
F0.03896103896103896
sS'rising'
p27
F0.003246753246753247
sS'institutions'
p28
F0.03571428571428571
ssI2
(dp29
g2
F0.05970149253731343
sS'period'
p30
F0.004975124378109453
sS'past'
p31
F0.009950248756218905
sS'reserves'
p32
F0.05970149253731343
sg27
F0.004975124378109453
sg10
F0.04975124378109453
sS'market'
p33
F0.15422885572139303
sS'due'
p34
F0.03482587064676617
sg8
F0.009950248756218905
sg11
F0.004975124378109453
sS'policy'
p35
F0.004975124378109453
sg14
F0.05970149253731343
sS'stock'
p36
F0.09950248756218906
sS'real'
p37
F0.009950248756218905
sS'rise'
p38
F0.03482587064676617
sS'material'
p39
F0.03980099502487562
sS'short_#1'
p40
F0.01990049751243781
sS'prices'
p41
F0.03980099502487562
sg19
F0.014925373134328358
sS'billion'
p42
F0.01990049751243781
sS'short'
p43
F0.014925373134328358
sS'mainland'
p44
F0.07960199004975124
sg21
F0.01990049751243781
sg22
F0.029850746268656716
sg23
F0.03482587064676617
sS'situation'
p45
F0.01990049751243781
sS'Taiwan'
p46
F0.05970149253731343
sS'view'
p47
F0.004975124378109453
ssI3
(dp48
S'heavy'
p49
F0.0038022813688212928
sg37
F0.0038022813688212928
sg3
F0.0038022813688212928
sg4
F0.03802281368821293
sS'trade'
p50
F0.0038022813688212928
sS'State'
p51
F0.045627376425855515
sg12
F0.0076045627376425855
sg7
F0.0076045627376425855
sS'nuclear'
p52
F0.053231939163498096
sg25
F0.0038022813688212928
sS'draft'
p53
F0.030418250950570342
sg35
F0.03802281368821293
sg13
F0.13307984790874525
sg14
F0.23954372623574144
sg15
F0.015209125475285171
sS'resources'
p54
F0.0038022813688212928
sg16
F0.0038022813688212928
sg38
F0.0038022813688212928
sg39
F0.011406844106463879
sS'matters'
p55
F0.045627376425855515
sg40
F0.030418250950570342
sg19
F0.045627376425855515
sS'law'
p56
F0.07604562737642585
sg43
F0.04182509505703422
sg22
F0.0076045627376425855
sg23
F0.0038022813688212928
sS'States'
p57
F0.030418250950570342
sg5
F0.0038022813688212928
sS'social'
p58
F0.015209125475285171
sg47
F0.049429657794676805
ssI4
(dp59
g37
F0.006802721088435374
sg3
F0.013605442176870748
sg50
F0.07482993197278912
sg31
F0.08163265306122448
sg12
F0.013605442176870748
sS'rising_#-1'
p60
F0.08163265306122448
sg7
F0.006802721088435374
sg10
F0.006802721088435374
sg45
F0.006802721088435374
sg6
F0.006802721088435374
sg14
F0.2108843537414966
sg15
F0.04081632653061224
sg54
F0.013605442176870748
sg36
F0.013605442176870748
sg16
F0.006802721088435374
sg17
F0.05442176870748299
sg42
F0.04081632653061224
sS'country'
p61
F0.027210884353741496
sS'foreign'
p62
F0.047619047619047616
sg25
F0.034013605442176874
sg27
F0.1292517006802721
sg46
F0.08163265306122448
ssI5
(dp63
g49
F0.020446096654275093
sg37
F0.01858736059479554
sS'commodity_#1'
p64
F0.022304832713754646
sg2
F0.0037174721189591076
sg30
F0.0055762081784386614
sg50
F0.007434944237918215
sg5
F0.0724907063197026
sg6
F0.0018587360594795538
sg7
F0.0018587360594795538
sg8
F0.007434944237918215
sg33
F0.0055762081784386614
sg34
F0.0018587360594795538
sg10
F0.0037174721189591076
sg11
F0.01858736059479554
sg35
F0.0018587360594795538
sg13
F0.007434944237918215
sg14
F0.1821561338289963
sg15
F0.0018587360594795538
sg54
F0.016728624535315983
sS'prices_#2'
p65
F0.03717472118959108
sg16
F0.02973977695167286
sg38
F0.022304832713754646
sS'problems'
p66
F0.022304832713754646
sS'external'
p67
F0.026022304832713755
sS'burden'
p68
F0.027881040892193308
sg45
F0.01486988847583643
sg41
F0.07434944237918216
sg18
F0.0037174721189591076
sg19
F0.09293680297397769
sg20
F0.031598513011152414
sg21
F0.03531598513011153
sg22
F0.048327137546468404
sg61
F0.01486988847583643
sg23
F0.027881040892193308
sg62
F0.024163568773234202
sg57
F0.0037174721189591076
sg12
F0.020446096654275093
sg58
F0.02973977695167286
sg27
F0.00929368029739777
sg28
F0.0018587360594795538
ssI6
(dp69
g37
F0.03508771929824561
sS'shark'
p70
F0.24561403508771928
sg39
F0.017543859649122806
sg34
F0.10526315789473684
sg30
F0.14035087719298245
sg57
F0.07017543859649122
sg25
F0.08771929824561403
sg53
F0.07017543859649122
sg68
F0.017543859649122806
sg17
F0.03508771929824561
sg45
F0.017543859649122806
sg14
F0.12280701754385964
sg33
F0.03508771929824561
ss.