(dp0
I1
(dp1
S'Conference'
p2
F0.011948529411764705
sS'prohibition_#-2'
p3
F0.00505514705882353
sS'United'
p4
F0.003676470588235294
sS'prohibiting'
p5
F0.001838235294117647
sS'Hoc'
p6
F0.006433823529411764
sS'item'
p7
F0.01011029411764706
sS'effective_#-3'
p8
F0.00045955882352941176
sS'nuclear_#2'
p9
F0.04136029411764706
sS'disarmament'
p10
F0.009650735294117647
sS'purposes'
p11
F0.00045955882352941176
sS'constitute'
p12
F0.0027573529411764708
sS'effectively'
p13
F0.024816176470588234
sS'proliferation'
p14
F0.00045955882352941176
sS'committee'
p15
F0.01011029411764706
sS'stockpiles'
p16
F0.00045955882352941176
sS'multilateral'
p17
F0.02849264705882353
sS'material_#1'
p18
F0.029871323529411766
sS'total'
p19
F0.00045955882352941176
sS'negotiations'
p20
F0.011488970588235295
sS'regime'
p21
F0.00045955882352941176
sS'stocks'
p22
F0.00045955882352941176
sS'hoc'
p23
F0.011948529411764705
sS'internationally'
p24
F0.024816176470588234
sS'basis'
p25
F0.015625
sS'nuclear'
p26
F0.08685661764705882
sS'arms'
p27
F0.010569852941176471
sS'weapons'
p28
F0.03262867647058824
sS'contained'
p29
F0.016544117647058824
sS'1299'
p30
F0.013786764705882353
sS'weapons_#3'
p31
F0.03860294117647059
sS'banning'
p32
F0.02849264705882353
sS'convention'
p33
F0.004136029411764706
sS'place'
p34
F0.00045955882352941176
sS'establishment'
p35
F0.006893382352941176
sS'conclusion'
p36
F0.004136029411764706
sS'non'
p37
F0.01332720588235294
sS'material'
p38
F0.034926470588235295
sS'explosive'
p39
F0.034926470588235295
sS'Committee'
p40
F0.008731617647058824
sS'comprehensive'
p41
F0.001838235294117647
sS'discriminatory'
p42
F0.010569852941176471
sS'agreement'
p43
F0.00045955882352941176
sS'prohibition'
p44
F0.004136029411764706
sS'negotiate'
p45
F0.015165441176470588
sS'early'
p46
F0.006893382352941176
sS'banning_#-2'
p47
F0.02389705882352941
sS'step'
p48
F0.0013786764705882354
sS'treaty_#-3'
p49
F0.025275735294117647
sS'mandate'
p50
F0.016544117647058824
sS'Cessation'
p51
F0.006433823529411764
sS'The'
p52
F0.006433823529411764
sS'production_#-1'
p53
F0.0390625
sS'production'
p54
F0.04044117647058824
sS'report'
p55
F0.017463235294117647
sS'1995'
p56
F0.004136029411764706
sS'effective'
p57
F0.00045955882352941176
sS'urgent'
p58
F0.002297794117647059
sS'fissile'
p59
F0.028952205882352942
sS'non-discriminatory'
p60
F0.013786764705882353
sS'verifiable'
p61
F0.027113970588235295
sS'Disarmament'
p62
F0.0055147058823529415
sS'devices'
p63
F0.034466911764705885
sS'treaty'
p64
F0.02849264705882353
sS'Coordinator'
p65
F0.012867647058823529
sS'race'
p66
F0.006893382352941176
sS'elimination'
p67
F0.00045955882352941176
sS'agenda'
p68
F0.009650735294117647
sS'ban'
p69
F0.00045955882352941176
sS'entitled'
p70
F0.006433823529411764
sS'Special'
p71
F0.013786764705882353
ssI2
(dp72
S'control'
p73
F0.013399153737658674
sg5
F0.007052186177715092
sg8
F0.011988716502115656
sS'Nuclear'
p74
F0.007052186177715092
sS'Agency'
p75
F0.012693935119887164
sS'binding'
p76
F0.0007052186177715092
sg11
F0.021861777150916785
sS'existing'
p77
F0.005641748942172073
sg12
F0.007052186177715092
sS'nuclear_#3'
p78
F0.006346967559943582
sS'reductions'
p79
F0.007052186177715092
sg18
F0.057122708039492244
sS'need'
p80
F0.006346967559943582
sS'International'
p81
F0.00846262341325811
sS'non-nuclear-weapon'
p82
F0.007757404795486601
sS'issues'
p83
F0.0007052186177715092
sg21
F0.00846262341325811
sS'defence'
p84
F0.00846262341325811
sg34
F0.007757404795486601
sg14
F0.0007052186177715092
sS'leading'
p85
F0.00846262341325811
sS'objectives'
p86
F0.0007052186177715092
sS'legal'
p87
F0.005641748942172073
sg28
F0.07404795486600846
sS'instrument'
p88
F0.00846262341325811
sg20
F0.0007052186177715092
sg33
F0.010578279266572637
sg19
F0.013399153737658674
sS'international'
p89
F0.03526093088857546
sg37
F0.0007052186177715092
sS'measures'
p90
F0.01763046544428773
sg39
F0.010578279266572637
sS'complete'
p91
F0.0028208744710860366
sS'importance'
p92
F0.011988716502115656
sS'dismantlement'
p93
F0.00846262341325811
sS'FMCT'
p94
F0.004936530324400564
sg38
F0.07898448519040903
sg44
F0.0007052186177715092
sS'soon'
p95
F0.007757404795486601
sS'management'
p96
F0.011988716502115656
sg10
F0.007052186177715092
sg67
F0.014809590973201692
sg52
F0.0014104372355430183
sS'safeguards'
p97
F0.012693935119887164
sS'security'
p98
F0.009167842031029619
sg31
F0.011283497884344146
sS'nuclear-weapon'
p99
F0.004936530324400564
sS'non-proliferation'
p100
F0.007757404795486601
sS'safe'
p101
F0.011283497884344146
sS'longer'
p102
F0.009873060648801129
sg57
F0.022566995768688293
sg59
F0.08815232722143865
sS'Energy'
p103
F0.009873060648801129
sS'required'
p104
F0.011283497884344146
sg9
F0.007052186177715092
sS'materials_#1'
p105
F0.019746121297602257
sg63
F0.012693935119887164
sg64
F0.0021156558533145277
sS'States'
p106
F0.031029619181946404
sg22
F0.00846262341325811
sS'materials'
p107
F0.02538787023977433
sS'ongoing'
p108
F0.007052186177715092
sS'Atomic'
p109
F0.009873060648801129
sg26
F0.09167842031029619
sg69
F0.0014104372355430183
sS'military'
p110
F0.014104372355430184
sS'efforts'
p111
F0.013399153737658674
sS'management_#-2'
p112
F0.009873060648801129
sS'view'
p113
F0.003526093088857546
ssI3
(dp114
g2
F0.056105610561056105
sg73
F0.0008250825082508251
sg4
F0.00825082508250825
sg61
F0.0008250825082508251
sg3
F0.0024752475247524753
sS'process'
p115
F0.01155115511551155
sg74
F0.0033003300330033004
sS'treaty_#3'
p116
F0.018151815181518153
sg76
F0.012376237623762377
sg95
F0.0008250825082508251
sS'negotiations_#-1'
p117
F0.009900990099009901
sg77
F0.01155115511551155
sg80
F0.0024752475247524753
sg14
F0.01155115511551155
sg87
F0.0033003300330033004
sg79
F0.0016501650165016502
sg16
F0.009075907590759076
sg17
F0.01155115511551155
sg18
F0.07590759075907591
sg82
F0.0008250825082508251
sg83
F0.010726072607260726
sg91
F0.006600660066006601
sS'cut'
p118
F0.028052805280528052
sg85
F0.0016501650165016502
sg86
F0.014026402640264026
sg27
F0.0024752475247524753
sS'cut_#2'
p119
F0.018151815181518153
sg28
F0.024752475247524754
sg88
F0.0049504950495049506
sg54
F0.024752475247524754
sg20
F0.034653465346534656
sg33
F0.0049504950495049506
sS'forward'
p120
F0.013201320132013201
sg89
F0.009900990099009901
sg21
F0.0008250825082508251
sg35
F0.0024752475247524753
sg36
F0.009075907590759076
sg37
F0.0033003300330033004
sg38
F0.06435643564356436
sg39
F0.004125412541254125
sg40
F0.0008250825082508251
sg53
F0.012376237623762377
sg92
F0.0024752475247524753
sg41
F0.006600660066006601
sg94
F0.004125412541254125
sg42
F0.0008250825082508251
sg43
F0.014026402640264026
sg44
F0.0049504950495049506
sg45
F0.004125412541254125
sg46
F0.004125412541254125
sg48
F0.007425742574257425
sg96
F0.0008250825082508251
sg49
F0.0008250825082508251
sg10
F0.04537953795379538
sg110
F0.0016501650165016502
sg52
F0.018151815181518153
sS'cut-off'
p121
F0.009900990099009901
sg98
F0.0024752475247524753
sg100
F0.005775577557755775
sg22
F0.0008250825082508251
sg90
F0.0008250825082508251
sg56
F0.004125412541254125
sg99
F0.005775577557755775
sg57
F0.004125412541254125
sg58
F0.005775577557755775
sg59
F0.07095709570957096
sS'issue'
p122
F0.01155115511551155
sg62
F0.01485148514851485
sg78
F0.004125412541254125
sg63
F0.0008250825082508251
sg64
F0.04372937293729373
sg106
F0.028052805280528052
sg66
F0.0024752475247524753
sg108
F0.0016501650165016502
sg68
F0.005775577557755775
sg26
F0.05858085808580858
sg69
F0.015676567656765675
sS'NPT'
p123
F0.013201320132013201
sg111
F0.007425742574257425
sg113
F0.005775577557755775
sS'programme'
p124
F0.01155115511551155
ss.