(dp0
I1
(dp1
S'Conference'
p2
F0.0008051529790660225
sS'rights_#-2'
p3
F0.043478260869565216
sS'interdependent_#1'
p4
F0.04790660225442834
sS'fair'
p5
F0.037037037037037035
sS'Recalling'
p6
F0.001610305958132045
sS'universal'
p7
F0.04669887278582931
sS'mind'
p8
F0.00040257648953301127
sS'community'
p9
F0.036231884057971016
sS'globally'
p10
F0.03462157809983897
sS'Recognizing'
p11
F0.012077294685990338
sS'economic'
p12
F0.0008051529790660225
sS'including'
p13
F0.00040257648953301127
sS'manner'
p14
F0.039452495974235106
sS'human'
p15
F0.08051529790660225
sS'respect'
p16
F0.001610305958132045
sS'Vienna'
p17
F0.008454106280193236
sS'implementation'
p18
F0.00040257648953301127
sS'footing'
p19
F0.03542673107890499
sS'emphasis'
p20
F0.033816425120772944
sS'treat'
p21
F0.0322061191626409
sS'Declaration'
p22
F0.008051529790660225
sS'international'
p23
F0.038244766505636074
sS'development'
p24
F0.00040257648953301127
sS'interdependent'
p25
F0.04830917874396135
sS'Nations'
p26
F0.0008051529790660225
sS'protection'
p27
F0.00040257648953301127
sS'Reaffirming'
p28
F0.00966183574879227
sS'universal_#-1'
p29
F0.049516908212560384
sS'Action'
p30
F0.008856682769726247
sS'The'
p31
F0.001610305958132045
sS'promote'
p32
F0.00040257648953301127
sS'international_#3'
p33
F0.030595813204508857
sS'Programme'
p34
F0.007648953301127214
sS'human_#-3'
p35
F0.043478260869565216
sS'indivisible'
p36
F0.0426731078904992
sS'rights'
p37
F0.08574879227053141
sS'equal'
p38
F0.03663446054750403
sS'States'
p39
F0.0012077294685990338
sS'interrelated_#2'
p40
F0.043478260869565216
sS'interrelated'
p41
F0.04750402576489533
sS'Human'
p42
F0.00040257648953301127
sS'fact'
p43
F0.00040257648953301127
ssI2
(dp44
g2
F0.03484320557491289
sS'United'
p45
F0.02264808362369338
sS'human_#3'
p46
F0.02613240418118467
sg7
F0.041811846689895474
sS'integral'
p47
F0.04355400696864112
sg9
F0.003484320557491289
sg13
F0.008710801393728223
sg15
F0.10278745644599303
sS'reaffirmed'
p48
F0.02264808362369338
sg17
F0.005226480836236934
sS'inalienable_#-2'
p49
F0.02264808362369338
sS'objectives'
p50
F0.0156794425087108
sS'legal'
p51
F0.0017421602787456446
sS'part_#1'
p52
F0.03484320557491289
sS'health'
p53
F0.017421602787456445
sS'inalienable'
p54
F0.027874564459930314
sg22
F0.0017421602787456446
sS'World'
p55
F0.0313588850174216
sS'women'
p56
F0.05226480836236934
sS'integrated'
p57
F0.0017421602787456446
sS'rights_#-3'
p58
F0.0017421602787456446
sS'full'
p59
F0.029616724738675958
sS'Rights'
p60
F0.036585365853658534
sS'enjoyment'
p61
F0.013937282229965157
sS'realization'
p62
F0.017421602787456445
sg26
F0.020905923344947737
sS'cultural'
p63
F0.0017421602787456446
sS'part'
p64
F0.05226480836236934
sS'integral_#-1'
p65
F0.027874564459930314
sS'child'
p66
F0.024390243902439025
sg31
F0.029616724738675958
sS'universal_#2'
p67
F0.024390243902439025
sg34
F0.0017421602787456446
sg35
F0.003484320557491289
sS'All'
p68
F0.003484320557491289
sg36
F0.04355400696864112
sg37
F0.09930313588850175
sg27
F0.005226480836236934
sg42
F0.02613240418118467
sS'promotion'
p69
F0.006968641114982578
sg43
F0.010452961672473868
ssI3
(dp70
g3
F0.012149532710280374
sg45
F0.00046728971962616824
sS'non-selectivity'
p71
F0.008411214953271028
sg6
F0.0065420560747663555
sS'fundamental_#-2'
p72
F0.008411214953271028
sg7
F0.018691588785046728
sg8
F0.0009345794392523365
sS'rights_#-1'
p73
F0.0065420560747663555
sS'social_#-3'
p74
F0.005607476635514018
sg12
F0.0514018691588785
sg13
F0.007476635514018692
sg51
F0.0051401869158878505
sg15
F0.06495327102803738
sg48
F0.0032710280373831778
sg16
F0.001869158878504673
sS'issues'
p75
F0.009345794392523364
sS'universality_#3'
p76
F0.007476635514018692
sg18
F0.014485981308411215
sg50
F0.00046728971962616824
sS'impartiality'
p77
F0.008411214953271028
sS'political'
p78
F0.04906542056074766
sS'civil'
p79
F0.04392523364485981
sS'freedoms'
p80
F0.013084112149532711
sS'recognizing'
p81
F0.007476635514018692
sg53
F0.0009345794392523365
sS'ensured'
p82
F0.007476635514018692
sg46
F0.002336448598130841
sg22
F0.001869158878504673
sS'urgent'
p83
F0.011214953271028037
sS'objectivity'
p84
F0.008411214953271028
sg57
F0.0051401869158878505
sS'rights_#2'
p85
F0.005607476635514018
sg24
F0.026168224299065422
sg58
F0.01074766355140187
sg59
F0.0051401869158878505
sS'nature'
p86
F0.005607476635514018
sg61
F0.0032710280373831778
sS'universality'
p87
F0.007476635514018692
sS'attention'
p88
F0.013084112149532711
sS'freedoms_#-1'
p89
F0.008411214953271028
sg25
F0.03177570093457944
sg62
F0.003738317757009346
sg63
F0.04953271028037383
sg27
F0.013551401869158878
sg29
F0.01542056074766355
sS'interdependent_#-1'
p90
F0.005607476635514018
sS'consideration'
p91
F0.019626168224299065
sg31
F0.014018691588785047
sg32
F0.008411214953271028
sS'importance'
p92
F0.0065420560747663555
sg35
F0.009345794392523364
sS'human_#-2'
p93
F0.005607476635514018
sg68
F0.004672897196261682
sg36
F0.0514018691588785
sg37
F0.11355140186915888
sg38
F0.012149532710280374
sg39
F0.001869158878504673
sg40
F0.018691588785046728
sg41
F0.018691588785046728
sS'fundamental'
p94
F0.014018691588785047
sS'social'
p95
F0.0514018691588785
sg4
F0.02570093457943925
sg69
F0.01588785046728972
sS'order'
p96
F0.00794392523364486
sg43
F0.002336448598130841
ssI4
(dp97
S'national'
p98
F0.09049773755656108
sg8
F0.04072398190045249
sg12
F0.03619909502262444
sg15
F0.027149321266968326
sg16
F0.01809954751131222
sg49
F0.004524886877828055
sg50
F0.00904977375565611
sg78
F0.049773755656108594
sg80
F0.04524886877828054
sS'cooperation'
p99
F0.03619909502262444
sg22
F0.004524886877828055
sg23
F0.10407239819004525
sS'regional'
p100
F0.06334841628959276
sg24
F0.04072398190045249
sg59
F0.01809954751131222
sg60
F0.004524886877828055
sg61
F0.004524886877828055
sg47
F0.013574660633484163
sg62
F0.01809954751131222
sg63
F0.07692307692307693
sg27
F0.004524886877828055
sg32
F0.03167420814479638
sg92
F0.00904977375565611
sg56
F0.00904977375565611
sg36
F0.058823529411764705
sg37
F0.004524886877828055
sg38
F0.004524886877828055
sg39
F0.058823529411764705
sg94
F0.03619909502262444
sS'security'
p101
F0.05429864253393665
sg96
F0.02262443438914027
ss.