(dp0
I1
(dp1
S'national_#3'
p2
F0.006221484861053505
sS'exclusive'
p3
F0.005806719203649938
sS'global'
p4
F0.007051016175860639
sS'existing'
p5
F0.002903359601824969
sS'sources'
p6
F0.00414765657403567
sS'including'
p7
F0.014102032351721278
sS'fishing'
p8
F0.008710078805474907
sS'cooperative'
p9
F0.001244296972210701
sS'resources_#2'
p10
F0.011198672749896308
sS'agricultural'
p11
F0.005391953546246371
sS'surveillance'
p12
F0.002903359601824969
sS'coordination'
p13
F0.0008295313148071339
sS'issues'
p14
F0.005391953546246371
sS'impact'
p15
F0.0037328909166321027
sS'rapid'
p16
F0.0008295313148071339
sS'based'
p17
F0.00041476565740356696
sS'zone'
p18
F0.0008295313148071339
sS'implementation'
p19
F0.0033181252592285357
sS'concerned'
p20
F0.00041476565740356696
sS'production'
p21
F0.002488593944421402
sS'systems'
p22
F0.004977187888842804
sS'rich'
p23
F0.0037328909166321027
sS'sovereignty'
p24
F0.004977187888842804
sS'include'
p25
F0.002073828287017835
sS'Marine'
p26
F0.00041476565740356696
sS'resources'
p27
F0.05640812940688511
sS'activities'
p28
F0.005806719203649938
sS'jurisdiction'
p29
F0.008710078805474907
sS'food'
p30
F0.004977187888842804
sS'Island'
p31
F0.0008295313148071339
sS'oceans'
p32
F0.004977187888842804
sS'coast'
p33
F0.0008295313148071339
sS'resources_#3'
p34
F0.004977187888842804
sS'ecosystems'
p35
F0.011613438407299876
sS'resources_#1'
p36
F0.013687266694317711
sS'projects'
p37
F0.00041476565740356696
sS'areas'
p38
F0.026959767731231855
sS'loss'
p39
F0.001244296972210701
sS'land-based'
p40
F0.0016590626296142678
sS'resource'
p41
F0.004562422231439237
sS'countries'
p42
F0.015346329323931979
sS'Global'
p43
F0.001244296972210701
sS'large'
p44
F0.00041476565740356696
sS'sovereignty_#2'
p45
F0.004977187888842804
sS'small'
p46
F0.015761094981335544
sS'biological'
p47
F0.0037328909166321027
sS'security'
p48
F0.00041476565740356696
sS'freshwater'
p49
F0.0033181252592285357
sS'programme'
p50
F0.006636250518457071
sS'fragile'
p51
F0.002488593944421402
sS'human'
p52
F0.0033181252592285357
sS'sustainable_#-3'
p53
F0.005806719203649938
sS'sustainable_#-2'
p54
F0.007465781833264205
sS'seas'
p55
F0.002903359601824969
sS'areas_#1'
p56
F0.007051016175860639
sS'consistent'
p57
F0.002073828287017835
sS'guidelines'
p58
F0.002488593944421402
sS'inland'
p59
F0.001244296972210701
sS'Commission'
p60
F0.002073828287017835
sS'State'
p61
F0.002073828287017835
sS'economic'
p62
F0.011198672749896308
sS'sea'
p63
F0.00041476565740356696
sS'programmes'
p64
F0.002073828287017835
sS'special'
p65
F0.001244296972210701
sS'established'
p66
F0.0033181252592285357
sS'nuclear'
p67
F0.00041476565740356696
sS'legal'
p68
F0.001244296972210701
sS'research'
p69
F0.0008295313148071339
sS'protected'
p70
F0.004562422231439237
sS'China'
p71
F0.00041476565740356696
sS'cooperation'
p72
F0.00041476565740356696
sS'international'
p73
F0.0033181252592285357
sS'increasing'
p74
F0.0008295313148071339
sS'integrated'
p75
F0.011198672749896308
sS'fish'
p76
F0.004977187888842804
sS'importance'
p77
F0.004562422231439237
sS'attention'
p78
F0.0037328909166321027
sS'mechanisms'
p79
F0.0033181252592285357
sS'agencies'
p80
F0.001244296972210701
sS'water'
p81
F0.0008295313148071339
sS'sustainable'
p82
F0.03235172127747823
sS'protection'
p83
F0.007880547490667772
sS'address'
p84
F0.005806719203649938
sS'training'
p85
F0.002073828287017835
sS'marine'
p86
F0.06553297386976359
sS'change'
p87
F0.002073828287017835
sS'operations'
p88
F0.00041476565740356696
sS'climate'
p89
F0.002073828287017835
sS'biodiversity'
p90
F0.01659062629614268
sS'country'
p91
F0.002488593944421402
sS'coral'
p92
F0.001244296972210701
sS'area'
p93
F0.00829531314807134
sS'coastal_#-3'
p94
F0.001244296972210701
sS'coastal_#-1'
p95
F0.010369141435089175
sS'ensure'
p96
F0.004562422231439237
sS'planned'
p97
F0.001244296972210701
sS'reefs'
p98
F0.001244296972210701
sS'social'
p99
F0.0016590626296142678
sS'action'
p100
F0.0033181252592285357
sS'efforts'
p101
F0.002903359601824969
sS'Hong'
p102
F0.00041476565740356696
sS'relevant'
p103
F0.0016590626296142678
sS'number'
p104
F0.004977187888842804
sS'highly'
p105
F0.004977187888842804
sS'coastal'
p106
F0.04106180008295313
sS'vessel'
p107
F0.001244296972210701
sS'management'
p108
F0.029448361675653255
sS'basis'
p109
F0.0008295313148071339
sS'support'
p110
F0.006221484861053505
sS'conservation'
p111
F0.011613438407299876
sS'living'
p112
F0.012028204064703443
sS'waste'
p113
F0.002488593944421402
sS'assessment'
p114
F0.0037328909166321027
sS'energy'
p115
F0.004562422231439237
sS'damaging'
p116
F0.0008295313148071339
sS'diversity'
p117
F0.004562422231439237
sS'mammals'
p118
F0.0008295313148071339
sS'protect'
p119
F0.0016590626296142678
sS'ecosystems_#1'
p120
F0.004562422231439237
sS'fisheries'
p121
F0.004977187888842804
sS'part'
p122
F0.001244296972210701
sS'deep'
p123
F0.00041476565740356696
sS'level'
p124
F0.0016590626296142678
sS'zones'
p125
F0.007465781833264205
sS'main'
p126
F0.002073828287017835
sS'developing'
p127
F0.02364164247200332
sS'local'
p128
F0.002073828287017835
sS'future'
p129
F0.0016590626296142678
sS'exploration'
p130
F0.0008295313148071339
sS'policies'
p131
F0.005391953546246371
sS'island'
p132
F0.017420157610949814
sS'strategies'
p133
F0.004562422231439237
sS'taking'
p134
F0.001244296972210701
sS'control'
p135
F0.002488593944421402
sS'environment_#1'
p136
F0.00041476565740356696
sS'impacts'
p137
F0.001244296972210701
sS'century'
p138
F0.00041476565740356696
sS'monitoring'
p139
F0.004562422231439237
sS'coastal_#1'
p140
F0.012857735379510576
sS'living_#-1'
p141
F0.00041476565740356696
sS'Convention'
p142
F0.0033181252592285357
sS'need'
p143
F0.006636250518457071
sS'technology'
p144
F0.0033181252592285357
sS'species'
p145
F0.002903359601824969
sS'terrestrial'
p146
F0.00414765657403567
sS'exploitation'
p147
F0.002488593944421402
sS'needs'
p148
F0.002488593944421402
sS'develop'
p149
F0.005806719203649938
sS'national'
p150
F0.017420157610949814
sS'forests'
p151
F0.006221484861053505
sS'living_#1'
p152
F0.008710078805474907
sS'regions'
p153
F0.001244296972210701
sS'field'
p154
F0.00041476565740356696
sS'potential'
p155
F0.001244296972210701
sS'transport'
p156
F0.0016590626296142678
sS'units'
p157
F0.00041476565740356696
sS'development'
p158
F0.02903359601824969
sS'regional'
p159
F0.009954375777685608
sS'plans'
p160
F0.00829531314807134
sS'information'
p161
F0.0033181252592285357
sS'waters'
p162
F0.0008295313148071339
sS'measures'
p163
F0.005391953546246371
sS'problems'
p164
F0.002488593944421402
sS'protection_#2'
p165
F0.002073828287017835
sS'important'
p166
F0.0016590626296142678
sS'equitable'
p167
F0.00041476565740356696
sS'The'
p168
F0.005806719203649938
sS'stocks'
p169
F0.005391953546246371
sS'data'
p170
F0.0008295313148071339
sS'destruction'
p171
F0.00041476565740356696
sS'land'
p172
F0.006636250518457071
sS'natural'
p173
F0.004562422231439237
sS'effective'
p174
F0.0033181252592285357
sS'environmental'
p175
F0.009954375777685608
sS'order'
p176
F0.002073828287017835
sS'States'
p177
F0.017420157610949814
sS'institutions'
p178
F0.0008295313148071339
ssI2
(dp179
g88
F0.0043586550435865505
sg3
F0.0037359900373599006
sg4
F0.0018679950186799503
sS'major'
p180
F0.0186799501867995
sg5
F0.0024906600249066002
sS'held'
p181
F0.0062266500622665
sg103
F0.0043586550435865505
sg7
F0.011830635118306352
sg8
F0.0006226650062266501
sg9
F0.0006226650062266501
sg11
F0.007471980074719801
sg13
F0.00809464508094645
sg15
F0.00560398505603985
sg16
F0.0018679950186799503
sg17
F0.0062266500622665
sg18
F0.007471980074719801
sg19
F0.008717310087173101
sS'disposal'
p182
F0.0018679950186799503
sg20
F0.00809464508094645
sS'ships'
p183
F0.0049813200498132005
sg21
F0.0006226650062266501
sg22
F0.0024906600249066002
sg23
F0.0037359900373599006
sg71
F0.0062266500622665
sS'adequate'
p184
F0.00684931506849315
sg25
F0.00560398505603985
sg26
F0.0018679950186799503
sg27
F0.0024906600249066002
sg28
F0.00684931506849315
sS'increased'
p185
F0.008717310087173101
sg30
F0.0006226650062266501
sg31
F0.0006226650062266501
sS'material'
p186
F0.00684931506849315
sS'maritime'
p187
F0.008717310087173101
sg10
F0.0006226650062266501
sS'unique'
p188
F0.0024906600249066002
sg37
F0.00933997509339975
sg38
F0.012453300124533
sg39
F0.0006226650062266501
sg40
F0.00311332503113325
sg41
F0.0006226650062266501
sS'pollution_#1'
p189
F0.016811955168119553
sg6
F0.00684931506849315
sg51
F0.0024906600249066002
sg44
F0.00809464508094645
sg82
F0.0012453300124533001
sg47
F0.0062266500622665
sg48
F0.008717310087173101
sg52
F0.0018679950186799503
sg55
F0.0024906600249066002
sg56
F0.00311332503113325
sg57
F0.0006226650062266501
sg59
F0.0012453300124533001
sg60
F0.00684931506849315
sg61
F0.0012453300124533001
sg62
F0.0136986301369863
sS'result'
p190
F0.0037359900373599006
sg63
F0.008717310087173101
sS'International'
p191
F0.00560398505603985
sg64
F0.013075965130759652
sg65
F0.008717310087173101
sS'provided'
p192
F0.009962640099626401
sg67
F0.0006226650062266501
sg69
F0.0112079701120797
sS'current'
p193
F0.007471980074719801
sS'health'
p194
F0.0012453300124533001
sg72
F0.0012453300124533001
sg73
F0.0006226650062266501
sg74
F0.0018679950186799503
sS'conditions'
p195
F0.008717310087173101
sS'public'
p196
F0.007471980074719801
sS'variability'
p197
F0.00684931506849315
sS'scientific'
p198
F0.0012453300124533001
sg76
F0.0018679950186799503
sg80
F0.008717310087173101
sS'understanding'
p199
F0.008717310087173101
sg81
F0.009962640099626401
sg159
F0.0062266500622665
sg83
F0.0012453300124533001
sg86
F0.08655043586550436
sg87
F0.0043586550435865505
sg89
F0.00933997509339975
sS'improved'
p200
F0.0006226650062266501
sS'naval'
p201
F0.0006226650062266501
sS'Chinese'
p202
F0.0049813200498132005
sg91
F0.0037359900373599006
sS'region'
p203
F0.0024906600249066002
sS'foreign'
p204
F0.0024906600249066002
sg147
F0.0024906600249066002
sg95
F0.011830635118306352
sg96
F0.00809464508094645
sg97
F0.00560398505603985
sg99
F0.0037359900373599006
sS'Navy'
p205
F0.0006226650062266501
sS'military'
p206
F0.00311332503113325
sg101
F0.00560398505603985
sS'pollution'
p207
F0.0224159402241594
sg102
F0.0006226650062266501
sS'industrial'
p208
F0.008717310087173101
sg125
F0.007471980074719801
sg104
F0.0012453300124533001
sg106
F0.03424657534246575
sg107
F0.00684931506849315
sg108
F0.0012453300124533001
sg93
F0.00560398505603985
sg110
F0.0006226650062266501
sS'system'
p209
F0.0049813200498132005
sS'protection_#-1'
p210
F0.0006226650062266501
sg111
F0.0012453300124533001
sg113
F0.0062266500622665
sg114
F0.0012453300124533001
sg115
F0.00311332503113325
sS'interests'
p211
F0.00933997509339975
sg118
F0.0006226650062266501
sS'sufficient'
p212
F0.007471980074719801
sg119
F0.00560398505603985
sS'oil'
p213
F0.0062266500622665
sg175
F0.0049813200498132005
sg122
F0.0018679950186799503
sS'surface'
p214
F0.0012453300124533001
sS'radioactive'
p215
F0.0006226650062266501
sS'assessments'
p216
F0.00311332503113325
sS'promote'
p217
F0.0024906600249066002
sS'organizations'
p218
F0.0006226650062266501
sg126
F0.00560398505603985
sg128
F0.0049813200498132005
sS'Pacific'
p219
F0.00809464508094645
sS'air'
p220
F0.00684931506849315
sg129
F0.00684931506849315
sg130
F0.0037359900373599006
sg133
F0.0006226650062266501
sS'Taiwan'
p221
F0.00311332503113325
sg134
F0.0006226650062266501
sg135
F0.0062266500622665
sg136
F0.0006226650062266501
sg137
F0.009962640099626401
sg138
F0.008717310087173101
sg140
F0.0006226650062266501
sS'high'
p222
F0.00809464508094645
sg143
F0.00684931506849315
sg144
F0.015566625155666251
sg145
F0.0018679950186799503
sg146
F0.0012453300124533001
sg161
F0.0037359900373599006
sg148
F0.0043586550435865505
sg139
F0.011830635118306352
sg150
F0.0006226650062266501
sS'provide'
p223
F0.00933997509339975
sS'responsible'
p224
F0.00311332503113325
sg151
F0.0006226650062266501
sg12
F0.00311332503113325
sg153
F0.0043586550435865505
sg154
F0.007471980074719801
sg155
F0.0049813200498132005
sg156
F0.00311332503113325
sS'forces'
p225
F0.008717310087173101
sg158
F0.012453300124533
sg32
F0.0037359900373599006
sS'prosperity'
p226
F0.0012453300124533001
sg162
F0.00311332503113325
sg164
F0.007471980074719801
sS'collection'
p227
F0.0012453300124533001
sS'Ocean'
p228
F0.0062266500622665
sg166
F0.00933997509339975
sg167
F0.0006226650062266501
sg168
F0.021170610211706103
sS'law'
p229
F0.0006226650062266501
sg170
F0.0012453300124533001
sg172
F0.0006226650062266501
sg173
F0.008717310087173101
sg121
F0.0012453300124533001
sS'ocean'
p230
F0.012453300124533
sg177
F0.0012453300124533001
sS'prevention'
p231
F0.0112079701120797
ssI3
(dp232
g88
F0.0019801980198019802
sS'United'
p233
F0.033663366336633666
sS'violation'
p234
F0.03564356435643564
sS'preservation'
p235
F0.0019801980198019802
sS'Territories'
p236
F0.07524752475247524
sg62
F0.03762376237623762
sg8
F0.0019801980198019802
sS'Non-Self-Governing'
p237
F0.03564356435643564
sS'integrity'
p238
F0.03564356435643564
sS'resolutions'
p239
F0.03564356435643564
sg226
F0.03564356435643564
sS'colonial'
p240
F0.03564356435643564
sS'Reiterates'
p241
F0.03564356435643564
sg116
F0.027722772277227723
sg211
F0.03762376237623762
sS'exploitation_#-2'
p242
F0.03564356435643564
sg103
F0.03564356435643564
sS'damaging_#-3'
p243
F0.027722772277227723
sS'Nations'
p244
F0.03564356435643564
sS'plundering_#-1'
p245
F0.03564356435643564
sg166
F0.0019801980198019802
sg10
F0.03762376237623762
sg86
F0.02574257425742574
sS'plundering'
p246
F0.03564356435643564
sg173
F0.039603960396039604
sg204
F0.03564356435643564
sg147
F0.03564356435643564
sg27
F0.03762376237623762
sS'threat'
p247
F0.03564356435643564
sg99
F0.0019801980198019802
sS'natural_#1'
p248
F0.039603960396039604
sS'colonial_#3'
p249
F0.03564356435643564
ssI4
(dp250
g88
F0.006016847172081829
sg98
F0.02045728038507822
sg4
F0.0036101083032490976
sg180
F0.0012033694344163659
sS'valuable'
p251
F0.012033694344163659
sg103
F0.0012033694344163659
sg7
F0.0012033694344163659
sg8
F0.006016847172081829
sg11
F0.0024067388688327317
sg15
F0.0012033694344163659
sg16
F0.010830324909747292
sg182
F0.0048134777376654635
sS'environment'
p252
F0.02045728038507822
sg21
F0.0048134777376654635
sg23
F0.006016847172081829
sg194
F0.0012033694344163659
sg26
F0.009626955475330927
sg27
F0.009626955475330927
sg189
F0.0012033694344163659
sg30
F0.013237063778580024
sg31
F0.00842358604091456
sg186
F0.0012033694344163659
sg33
F0.012033694344163659
sg35
F0.0024067388688327317
sg188
F0.00842358604091456
sg38
F0.00842358604091456
sg39
F0.009626955475330927
sg51
F0.0012033694344163659
sS'Kong'
p253
F0.01444043321299639
sg49
F0.009626955475330927
sS'force'
p254
F0.021660649819494584
sg76
F0.006016847172081829
sg59
F0.00842358604091456
sg190
F0.0024067388688327317
sg63
F0.03489771359807461
sS'operation'
p255
F0.018050541516245487
sg65
F0.01444043321299639
sg66
F0.0024067388688327317
sg69
F0.0012033694344163659
sg71
F0.0036101083032490976
sg72
F0.0024067388688327317
sg196
F0.012033694344163659
sg77
F0.0048134777376654635
sg78
F0.0012033694344163659
sg80
F0.0012033694344163659
sg199
F0.006016847172081829
sg83
F0.0036101083032490976
sg86
F0.10348977135980746
sg87
F0.0012033694344163659
sg119
F0.0012033694344163659
sg201
F0.01684717208182912
sg202
F0.0048134777376654635
sg91
F0.0024067388688327317
sg92
F0.030084235860409144
sS'utilization'
p256
F0.0048134777376654635
sg96
F0.0024067388688327317
sg205
F0.013237063778580024
sg206
F0.009626955475330927
sg101
F0.006016847172081829
sg207
F0.009626955475330927
sg102
F0.012033694344163659
sg208
F0.0048134777376654635
sS'community'
p257
F0.0036101083032490976
sg106
F0.019253910950661854
sS'troops'
p258
F0.01684717208182912
sg93
F0.006016847172081829
sg110
F0.0024067388688327317
sS'protection_#-2'
p259
F0.0024067388688327317
sg111
F0.010830324909747292
sg150
F0.0012033694344163659
sg117
F0.00842358604091456
sg118
F0.010830324909747292
sg85
F0.015643802647412757
sg120
F0.0012033694344163659
sg122
F0.009626955475330927
sg123
F0.015643802647412757
sg217
F0.0048134777376654635
sS'resources_#-3'
p260
F0.007220216606498195
sg125
F0.0024067388688327317
sg127
F0.0012033694344163659
sg128
F0.0012033694344163659
sg220
F0.013237063778580024
sg129
F0.006016847172081829
sg221
F0.010830324909747292
sg134
F0.0036101083032490976
sg136
F0.018050541516245487
sg140
F0.0012033694344163659
sS'numbers'
p261
F0.01444043321299639
sg145
F0.024067388688327317
sg223
F0.0012033694344163659
sg153
F0.0024067388688327317
sg154
F0.0036101083032490976
sg156
F0.0024067388688327317
sg225
F0.0024067388688327317
sg157
F0.044524669073405534
sg213
F0.0024067388688327317
sg162
F0.013237063778580024
sg168
F0.04332129963898917
sg229
F0.0012033694344163659
sg171
F0.018050541516245487
sg172
F0.02286401925391095
sg173
F0.010830324909747292
sg176
F0.0024067388688327317
sg214
F0.01684717208182912
ssI5
(dp262
g2
F0.0005350454788657035
sg88
F0.002140181915462814
sg233
F0.014446227929373997
sg29
F0.0005350454788657035
sg251
F0.001070090957731407
sg5
F0.0016051364365971107
sg181
F0.001070090957731407
sg7
F0.016051364365971106
sg8
F0.001070090957731407
sg52
F0.004815409309791332
sg11
F0.0005350454788657035
sg13
F0.0005350454788657035
sg14
F0.003745318352059925
sg15
F0.002675227394328518
sg17
F0.002675227394328518
sg18
F0.004280363830925628
sg19
F0.005350454788657036
sg182
F0.008025682182985553
sg183
F0.002140181915462814
sg252
F0.05510968432316747
sg256
F0.004280363830925628
sg21
F0.0005350454788657035
sg22
F0.004280363830925628
sg184
F0.0005350454788657035
sg126
F0.001070090957731407
sg26
F0.0032102728731942215
sg27
F0.02086677367576244
sg28
F0.005885500267522739
sg4
F0.01658640984483681
sg32
F0.005350454788657036
sg187
F0.0032102728731942215
sg235
F0.006955591225254147
sg10
F0.0005350454788657035
sg36
F0.012306046013911182
sg188
F0.0005350454788657035
sg38
F0.001070090957731407
sS'wastes'
p263
F0.006420545746388443
sg40
F0.003745318352059925
sg124
F0.010700909577314071
sg51
F0.0016051364365971107
sg82
F0.004280363830925628
sg47
F0.0005350454788657035
sg48
F0.002675227394328518
sg43
F0.004815409309791332
sS'Caribbean'
p264
F0.00749063670411985
sg9
F0.005350454788657036
sg55
F0.004815409309791332
sg57
F0.0032102728731942215
sg58
F0.0032102728731942215
sS'conventions'
p265
F0.006420545746388443
sg61
F0.003745318352059925
sg62
F0.010700909577314071
sg190
F0.002140181915462814
sg63
F0.012841091492776886
sg191
F0.003745318352059925
sg255
F0.0005350454788657035
sg64
F0.001070090957731407
sg65
F0.002675227394328518
sg198
F0.017121455323702513
sg66
F0.004280363830925628
sg67
F0.006420545746388443
sg68
F0.010165864098448368
sg69
F0.0016051364365971107
sg194
F0.00909577314071696
sg72
F0.010165864098448368
sg73
F0.04868913857677903
sg74
F0.003745318352059925
sg75
F0.0016051364365971107
sg197
F0.0005350454788657035
sg131
F0.0005350454788657035
sg77
F0.002675227394328518
sg79
F0.0032102728731942215
sg199
F0.0005350454788657035
sg81
F0.001070090957731407
sg83
F0.024612092027822365
sg86
F0.07597645799892991
sg87
F0.0005350454788657035
sg119
F0.002140181915462814
sg200
F0.008025682182985553
sg201
F0.0005350454788657035
sg203
F0.009630818619582664
sg109
F0.005350454788657036
sg204
F0.001070090957731407
sg94
F0.004815409309791332
sg96
F0.0032102728731942215
sg247
F0.005350454788657036
sg99
F0.003745318352059925
sg100
F0.005350454788657036
sg206
F0.0005350454788657035
sg101
F0.0016051364365971107
sg207
F0.009630818619582664
sg180
F0.0005350454788657035
sg103
F0.009630818619582664
sg257
F0.005885500267522739
sg176
F0.006955591225254147
sg150
F0.010700909577314071
sg108
F0.0005350454788657035
sg93
F0.002140181915462814
sg259
F0.005350454788657036
sg209
F0.005350454788657036
sg169
F0.0005350454788657035
sg210
F0.00909577314071696
sg111
F0.004815409309791332
sg42
F0.003745318352059925
sg114
F0.003745318352059925
sg76
F0.001070090957731407
sg244
F0.010700909577314071
sg121
F0.001070090957731407
sg215
F0.005885500267522739
sg216
F0.00909577314071696
sg217
F0.010700909577314071
sg260
F0.0032102728731942215
sg218
F0.011235955056179775
sg120
F0.001070090957731407
sg113
F0.006420545746388443
sg127
F0.001070090957731407
sg219
F0.0005350454788657035
sg70
F0.0005350454788657035
sg130
F0.002140181915462814
sS'Sea'
p266
F0.011771000535045479
sg134
F0.002675227394328518
sg136
F0.039058319957196365
sg137
F0.0005350454788657035
sg138
F0.0005350454788657035
sg140
F0.0005350454788657035
sg222
F0.0016051364365971107
sg141
F0.006955591225254147
sg142
F0.012841091492776886
sg143
F0.0005350454788657035
sg144
F0.0016051364365971107
sg161
F0.00749063670411985
sg148
F0.003745318352059925
sg139
F0.001070090957731407
sg224
F0.003745318352059925
sS'storage'
p267
F0.006420545746388443
sg152
F0.0005350454788657035
sg155
F0.0005350454788657035
sg156
F0.002675227394328518
sg158
F0.0032102728731942215
sg159
F0.017121455323702513
sg112
F0.015516318887105404
sS'comprehensive'
p268
F0.006420545746388443
sg162
F0.004280363830925628
sg163
F0.0005350454788657035
sg165
F0.005885500267522739
sg227
F0.005350454788657036
sg228
F0.0032102728731942215
sg167
F0.005350454788657036
sg168
F0.016051364365971106
sg229
F0.00749063670411985
sg170
F0.011771000535045479
sg173
F0.0032102728731942215
sg174
F0.004280363830925628
sg175
F0.013911182450508293
sg230
F0.004280363830925628
sg177
F0.021401819154628143
sg6
F0.0005350454788657035
sg178
F0.009630818619582664
ss.