(dp0
I1
(dp1
S'sector'
p2
F0.0012634238787113076
sS'limited'
p3
F0.0012634238787113076
sS'United'
p4
F0.005369551484523057
sS'help'
p5
F0.0003158559696778269
sS'technological'
p6
F0.0003158559696778269
sS'unemployment'
p7
F0.009475679090334808
sS'developed'
p8
F0.002842703727100442
sS'able'
p9
F0.0006317119393556538
sS'domestic'
p10
F0.0009475679090334807
sS'rule'
p11
F0.0006317119393556538
sS'livelihood'
p12
F0.003790271636133923
sS'discovered'
p13
F0.0006317119393556538
sS'facilities'
p14
F0.0006317119393556538
sS'specialized'
p15
F0.0018951358180669614
sS'health_#2'
p16
F0.0003158559696778269
sS'including'
p17
F0.0015792798483891346
sS'human'
p18
F0.005685407454200884
sS'implement'
p19
F0.003790271636133923
sS'availability'
p20
F0.0018951358180669614
sS'level'
p21
F0.0003158559696778269
sS'industries'
p22
F0.0006317119393556538
sS'vaccines'
p23
F0.003474415666456096
sS'rights'
p24
F0.00410612760581175
sS'police'
p25
F0.003474415666456096
sS'assistance_#2'
p26
F0.00505369551484523
sS'justice'
p27
F0.003790271636133923
sS'intensify'
p28
F0.003158559696778269
sS'concerned'
p29
F0.003474415666456096
sS'relief'
p30
F0.0006317119393556538
sS'pensions'
p31
F0.002842703727100442
sS'social_#2'
p32
F0.002526847757422615
sS'social_#3'
p33
F0.003474415666456096
sS'held'
p34
F0.0006317119393556538
sS'rural'
p35
F0.0012634238787113076
sS'promoting'
p36
F0.0006317119393556538
sS'projects'
p37
F0.004737839545167404
sS'supplies'
p38
F0.0009475679090334807
sS'prison'
p39
F0.00410612760581175
sS'policy'
p40
F0.0009475679090334807
sS'adequate'
p41
F0.006317119393556538
sS'criminal'
p42
F0.003474415666456096
sS'local'
p43
F0.0009475679090334807
sS'awareness'
p44
F0.0003158559696778269
sS'associations'
p45
F0.0003158559696778269
sS'activities'
p46
F0.0015792798483891346
sS'lack'
p47
F0.0018951358180669614
sS'affected'
p48
F0.004421983575489577
sS'provisions'
p49
F0.003158559696778269
sS'government'
p50
F0.0006317119393556538
sS'situation'
p51
F0.0012634238787113076
sS'mainly'
p52
F0.0022109917877447885
sS'professional'
p53
F0.005369551484523057
sS'regional'
p54
F0.0009475679090334807
sS'psychiatric'
p55
F0.004421983575489577
sS'primary'
p56
F0.0003158559696778269
sS'centres_#1'
p57
F0.0003158559696778269
sS'international'
p58
F0.00915982312065698
sS'report'
p59
F0.0003158559696778269
sS'treatment_#3'
p60
F0.002842703727100442
sS'narcotic'
p61
F0.00505369551484523
sS'continued'
p62
F0.0009475679090334807
sS'advanced'
p63
F0.0003158559696778269
sS'areas'
p64
F0.0022109917877447885
sS'health_#1'
p65
F0.002526847757422615
sS'school'
p66
F0.0003158559696778269
sS'insurance_#1'
p67
F0.011370814908401769
sS'countries'
p68
F0.016424510423247
sS'fields'
p69
F0.00410612760581175
sS'Over'
p70
F0.003474415666456096
sS'accordance'
p71
F0.002526847757422615
sS'companies'
p72
F0.0003158559696778269
sS'standards'
p73
F0.0012634238787113076
sS'continue'
p74
F0.0022109917877447885
sS'common'
p75
F0.0006317119393556538
sS'fully'
p76
F0.0009475679090334807
sS'study'
p77
F0.0006317119393556538
sS'security'
p78
F0.012002526847757423
sS'reform'
p79
F0.007896399241945672
sS'programme'
p80
F0.0006317119393556538
sS'heavy'
p81
F0.0003158559696778269
sS'ethical'
p82
F0.0009475679090334807
sS'set'
p83
F0.002526847757422615
sS'financial'
p84
F0.009475679090334808
sS'staff'
p85
F0.002526847757422615
sS'national'
p86
F0.004421983575489577
sS'direct'
p87
F0.0006317119393556538
sS'elderly'
p88
F0.0003158559696778269
sS'past'
p89
F0.0009475679090334807
sS'society'
p90
F0.0003158559696778269
sS'State'
p91
F0.0009475679090334807
sS'cost'
p92
F0.0012634238787113076
sS'result'
p93
F0.0006317119393556538
sS'victims'
p94
F0.007580543272267846
sS'protecting'
p95
F0.0006317119393556538
sS'programmes'
p96
F0.004421983575489577
sS'insurance'
p97
F0.025268477574226154
sS'special'
p98
F0.0006317119393556538
sS'scientific'
p99
F0.007264687302590019
sS'established'
p100
F0.006317119393556538
sS'workers'
p101
F0.010423246999368288
sS'rate'
p102
F0.0006317119393556538
sS'psychotropic'
p103
F0.005685407454200884
sS'support'
p104
F0.0003158559696778269
sS'assistance'
p105
F0.01737207833228048
sS'legal'
p106
F0.014529374605180037
sS'research'
p107
F0.004421983575489577
sS'access'
p108
F0.0009475679090334807
sS'Fund'
p109
F0.007264687302590019
sS'laid'
p110
F0.003158559696778269
sS'future'
p111
F0.0006317119393556538
sS'health'
p112
F0.002526847757422615
sS'truly'
p113
F0.0012634238787113076
sS'During'
p114
F0.0012634238787113076
sS'increasing'
p115
F0.003790271636133923
sS'conditions'
p116
F0.0009475679090334807
sS'professionals'
p117
F0.0009475679090334807
sS'body'
p118
F0.0006317119393556538
sS'full'
p119
F0.0015792798483891346
sS'transportation'
p120
F0.0003158559696778269
sS'policies'
p121
F0.0003158559696778269
sS'business'
p122
F0.002526847757422615
sS'nature'
p123
F0.0012634238787113076
sS'dental'
p124
F0.0003158559696778269
sS'non-governmental'
p125
F0.0015792798483891346
sS'agencies'
p126
F0.0012634238787113076
sS'standard'
p127
F0.0015792798483891346
sS'residents'
p128
F0.00505369551484523
sS'management'
p129
F0.0022109917877447885
sS'reforms'
p130
F0.004421983575489577
sS'groups'
p131
F0.0012634238787113076
sS'African'
p132
F0.002526847757422615
sS'region'
p133
F0.0018951358180669614
sS'understanding'
p134
F0.0012634238787113076
sS'respect'
p135
F0.0006317119393556538
sS'regular'
p136
F0.0012634238787113076
sS'care'
p137
F0.0015792798483891346
sS'received'
p138
F0.0003158559696778269
sS'referral'
p139
F0.0003158559696778269
sS'benefits'
p140
F0.0006317119393556538
sS'carried'
p141
F0.002842703727100442
sS'persons'
p142
F0.006317119393556538
sS'technical'
p143
F0.005369551484523057
sS'country'
p144
F0.0012634238787113076
sS'employees'
p145
F0.003790271636133923
sS'psychiatric_#2'
p146
F0.003790271636133923
sS'drug'
p147
F0.0022109917877447885
sS'foreign'
p148
F0.0003158559696778269
sS'illicit'
p149
F0.003158559696778269
sS'levels'
p150
F0.0006317119393556538
sS'ensure'
p151
F0.003158559696778269
sS'Special'
p152
F0.0006317119393556538
sS'Committee'
p153
F0.00505369551484523
sS'social'
p154
F0.019898926089703096
sS'section'
p155
F0.0006317119393556538
sS'scientific_#1'
p156
F0.004421983575489577
sS'efforts'
p157
F0.003790271636133923
sS'view'
p158
F0.0006317119393556538
sS'subjected'
p159
F0.0003158559696778269
sS'major'
p160
F0.0022109917877447885
sS'relevant'
p161
F0.005369551484523057
sS'members'
p162
F0.005369551484523057
sS'point'
p163
F0.0006317119393556538
sS'instruments'
p164
F0.0006317119393556538
sS'There'
p165
F0.0003158559696778269
sS'period'
p166
F0.0022109917877447885
sS'community'
p167
F0.005685407454200884
sS'channels'
p168
F0.006948831332912192
sS'services'
p169
F0.003158559696778269
sS'strengthening'
p170
F0.0015792798483891346
sS'moral'
p171
F0.003474415666456096
sS'adopted'
p172
F0.0003158559696778269
sS'female'
p173
F0.0003158559696778269
sS'AIDS'
p174
F0.0003158559696778269
sS'ways'
p175
F0.0003158559696778269
sS'establish'
p176
F0.002526847757422615
sS'market'
p177
F0.0012634238787113076
sS'pharmaceutical'
p178
F0.0012634238787113076
sS'law'
p179
F0.003790271636133923
sS'basis'
p180
F0.0015792798483891346
sS'leading'
p181
F0.0009475679090334807
sS'legal_#-1'
p182
F0.0006317119393556538
sS'WHO'
p183
F0.0012634238787113076
sS'system'
p184
F0.05022109917877448
sS'cent'
p185
F0.0006317119393556538
sS'priority'
p186
F0.003158559696778269
sS'needed'
p187
F0.0012634238787113076
sS'clinical'
p188
F0.0003158559696778269
sS'low'
p189
F0.0012634238787113076
sS'interest'
p190
F0.0003158559696778269
sS'basic'
p191
F0.025900189513581806
sS'forward'
p192
F0.0006317119393556538
sS'waste'
p193
F0.0003158559696778269
sS'meeting'
p194
F0.0006317119393556538
sS'Governments'
p195
F0.002526847757422615
sS'selection'
p196
F0.0006317119393556538
sS'urban'
p197
F0.012950094756790903
sS'Chinese_#-1'
p198
F0.0003158559696778269
sS'enable'
p199
F0.0018951358180669614
sS'families'
p200
F0.004421983575489577
sS'maintenance'
p201
F0.0006317119393556538
sS'substances'
p202
F0.006001263423878711
sS'drugs'
p203
F0.007896399241945672
sS'registered'
p204
F0.0009475679090334807
sS'regard'
p205
F0.0018951358180669614
sS'Nations'
p206
F0.006001263423878711
sS'fund'
p207
F0.002526847757422615
sS'ensuring'
p208
F0.003790271636133923
sS'controlling'
p209
F0.0015792798483891346
sS'demand'
p210
F0.0015792798483891346
sS'improved'
p211
F0.0006317119393556538
sS'general'
p212
F0.0003158559696778269
sS'applied'
p213
F0.003158559696778269
sS'organizations'
p214
F0.007896399241945672
sS'account'
p215
F0.0003158559696778269
sS'developing'
p216
F0.006948831332912192
sS'prevent'
p217
F0.0012634238787113076
sS'1998'
p218
F0.0003158559696778269
sS'infectious'
p219
F0.0003158559696778269
sS'measures'
p220
F0.002526847757422615
sS'General'
p221
F0.0006317119393556538
sS"n't"
p222
F0.0003158559696778269
sS'economic'
p223
F0.004737839545167404
sS'resources'
p224
F0.00505369551484523
sS'health_#-3'
p225
F0.0012634238787113076
sS'medical_#3'
p226
F0.0012634238787113076
sS'aid'
p227
F0.0018951358180669614
sS'distribution'
p228
F0.0009475679090334807
sS'providing'
p229
F0.002842703727100442
sS'medical_#-3'
p230
F0.0015792798483891346
sS'called'
p231
F0.0009475679090334807
sS'address'
p232
F0.0006317119393556538
sS'manner'
p233
F0.002526847757422615
sS'control'
p234
F0.003158559696778269
sS'required'
p235
F0.0006317119393556538
sS'purposes_#3'
p236
F0.002526847757422615
sS'strengthen'
p237
F0.002526847757422615
sS'purposes'
p238
F0.002842703727100442
sS'care_#1'
p239
F0.0006317119393556538
sS'high'
p240
F0.006948831332912192
sS'minimum'
p241
F0.005685407454200884
sS'experts'
p242
F0.0003158559696778269
sS'experience'
p243
F0.002526847757422615
sS'aspects'
p244
F0.003790271636133923
sS'aged'
p245
F0.007264687302590019
sS'organs'
p246
F0.003158559696778269
sS'trade'
p247
F0.002842703727100442
sS'guarantee'
p248
F0.003790271636133923
sS'needs'
p249
F0.006317119393556538
sS'develop'
p250
F0.0006317119393556538
sS'torture'
p251
F0.006001263423878711
sS'HIV'
p252
F0.0003158559696778269
sS'May'
p253
F0.0006317119393556538
sS'pay'
p254
F0.0003158559696778269
sS'administration'
p255
F0.005685407454200884
sS'treatment'
p256
F0.003158559696778269
sS'psychological_#1'
p257
F0.007264687302590019
sS'preventing'
p258
F0.0009475679090334807
sS'field'
p259
F0.00505369551484523
sS'services_#2'
p260
F0.0015792798483891346
sS'role'
p261
F0.0003158559696778269
sS'urban_#3'
p262
F0.004421983575489577
sS'supply'
p263
F0.0012634238787113076
sS'income'
p264
F0.0003158559696778269
sS'objective'
p265
F0.0015792798483891346
sS'donor'
p266
F0.003474415666456096
sS'system_#2'
p267
F0.012634238787113077
sS'licit'
p268
F0.005685407454200884
sS'economy'
p269
F0.0009475679090334807
sS'development'
p270
F0.0003158559696778269
sS'youth'
p271
F0.0018951358180669614
sS'plans'
p272
F0.00410612760581175
sS'protection'
p273
F0.0009475679090334807
sS'living'
p274
F0.007264687302590019
sS'assist'
p275
F0.0018951358180669614
sS'problems'
p276
F0.0015792798483891346
sS'systems'
p277
F0.007580543272267846
sS'paid'
p278
F0.006317119393556538
sS'applications'
p279
F0.0003158559696778269
sS'abuse'
p280
F0.002842703727100442
sS'social_#-1'
p281
F0.0022109917877447885
sS'old-age'
p282
F0.003790271636133923
sS'organization'
p283
F0.0009475679090334807
sS'included'
p284
F0.0003158559696778269
sS'requirements'
p285
F0.003158559696778269
sS'The'
p286
F0.012950094756790903
sS'enterprises'
p287
F0.005685407454200884
sS'approved'
p288
F0.0003158559696778269
sS'expand'
p289
F0.003790271636133923
sS'task'
p290
F0.002526847757422615
sS'especially'
p291
F0.0012634238787113076
sS'calls'
p292
F0.0003158559696778269
sS'framework'
p293
F0.0015792798483891346
sS'light'
p294
F0.0012634238787113076
sS'medical'
p295
F0.045483259633607075
sS'humanitarian'
p296
F0.004421983575489577
sS'disease'
p297
F0.0006317119393556538
sS'psychological'
p298
F0.008843967150979154
sS'order'
p299
F0.0009475679090334807
sS'States'
p300
F0.002526847757422615
sS'provide'
p301
F0.006317119393556538
sS'place'
p302
F0.002526847757422615
sS'pension'
p303
F0.0022109917877447885
sS'basic_#-1'
p304
F0.010423246999368288
sS'lives'
p305
F0.0003158559696778269
sS'overseas'
p306
F0.0003158559696778269
sS'resolution'
p307
F0.0009475679090334807
sS'institutions'
p308
F0.004421983575489577
sS'fact'
p309
F0.0006317119393556538
ssI2
(dp310
S'Notable'
p311
F0.009113924050632912
sS'supported'
p312
F0.0010126582278481013
sg10
F0.0060759493670886075
sg17
F0.014177215189873417
sS'principal'
p313
F0.0030379746835443038
sS'optical_#1'
p314
F0.01620253164556962
sS'scientific_#-1'
p315
F0.018227848101265823
sS'measuring_#2'
p316
F0.01620253164556962
sS'decreased'
p317
F0.004050632911392405
sS'include'
p318
F0.0015189873417721519
sS'exports'
p319
F0.006582278481012658
sS'increased'
p320
F0.0060759493670886075
sS'wide'
p321
F0.0005063291139240507
sS'records'
p322
F0.01620253164556962
sS'increases'
p323
F0.009113924050632912
sS'burden'
p324
F0.0005063291139240507
sS'surgeon'
p325
F0.01620253164556962
sS'authorized_#-3'
p326
F0.010126582278481013
sS'practitioner_#1'
p327
F0.019240506329113925
sS'categories'
p328
F0.0010126582278481013
sS'large'
p329
F0.004050632911392405
sS'communications'
p330
F0.0005063291139240507
sS'found'
p331
F0.0015189873417721519
sg217
F0.0005063291139240507
sS'For'
p332
F0.016708860759493672
sS'hard'
p333
F0.0005063291139240507
sS'controlling_#3'
p334
F0.01620253164556962
sS'pornography'
p335
F0.0010126582278481013
sS'transport'
p336
F0.0010126582278481013
sS'apparatus'
p337
F0.01620253164556962
sS'veterinary'
p338
F0.017215189873417722
sS'recorded'
p339
F0.015189873417721518
sS'increase'
p340
F0.0020253164556962027
sS'capital'
p341
F0.00810126582278481
sS'medicine'
p342
F0.01569620253164557
sS'import'
p343
F0.0030379746835443038
sS'registered_#-1'
p344
F0.01620253164556962
sS'measuring'
p345
F0.017215189873417722
sg220
F0.0005063291139240507
sg99
F0.018734177215189874
sg134
F0.0005063291139240507
sS'job'
p346
F0.0005063291139240507
sg131
F0.0020253164556962027
sg232
F0.01620253164556962
sS'goods'
p347
F0.009113924050632912
sS'prescription'
p348
F0.01620253164556962
sS'dentist_#3'
p349
F0.01620253164556962
sS'products'
p350
F0.033924050632911394
sS'industrial'
p351
F0.0030379746835443038
sS'family'
p352
F0.0005063291139240507
sg164
F0.020253164556962026
sS'Comparing'
p353
F0.0060759493670886075
sS'total'
p354
F0.0010126582278481013
sg178
F0.03189873417721519
sS'markedly'
p355
F0.0060759493670886075
sS'particulars'
p356
F0.01620253164556962
sS'authorized'
p357
F0.010126582278481013
sg204
F0.052151898734177214
sS'volume'
p358
F0.02430379746835443
sS'dentist'
p359
F0.01620253164556962
sS'regards'
p360
F0.005063291139240506
sg209
F0.016708860759493672
sS'child'
p361
F0.0005063291139240507
sS'homes'
p362
F0.0010126582278481013
sS'purchaser'
p363
F0.01620253164556962
sS'registered_#2'
p364
F0.016708860759493672
sS'process'
p365
F0.0005063291139240507
sS'proper'
p366
F0.017215189873417722
sS'educational'
p367
F0.0005063291139240507
sg253
F0.0020253164556962027
sS'equipment_#1'
p368
F0.0005063291139240507
sS'equipment'
p369
F0.002531645569620253
sS'materials'
p370
F0.0010126582278481013
sS'electrical'
p371
F0.00810126582278481
sS're-export'
p372
F0.009113924050632912
sS'practitioner'
p373
F0.020253164556962026
sS'earlier'
p374
F0.013670886075949367
sS'April'
p375
F0.0020253164556962027
sS'purpose'
p376
F0.019746835443037975
sS'date'
p377
F0.01620253164556962
sg286
F0.017721518987341773
sg295
F0.03240506329113924
sg235
F0.018227848101265823
sS'metal'
p378
F0.006582278481012658
sS'sale'
p379
F0.04860759493670886
sS'prescription_#-2'
p380
F0.01620253164556962
sS'2000'
p381
F0.004556962025316456
sS'optical'
p382
F0.018227848101265823
sS'machinery'
p383
F0.018227848101265823
sS'components'
p384
F0.0020253164556962027
sS'quantity'
p385
F0.017721518987341773
ssI3
(dp386
g3
F0.004784688995215311
sg4
F0.008771929824561403
sS'existing'
p387
F0.003189792663476874
sg14
F0.007177033492822967
sS'medicines'
p388
F0.0023923444976076554
sS'agricultural'
p389
F0.003189792663476874
sS'regions'
p390
F0.009569377990430622
sS'treatment_#1'
p391
F0.012759170653907496
sg27
F0.001594896331738437
sg101
F0.0007974481658692185
sg263
F0.001594896331738437
sS'parts'
p392
F0.009569377990430622
sg37
F0.003189792663476874
sg38
F0.03987240829346093
sg6
F0.001594896331738437
sg40
F0.001594896331738437
sS'secondary'
p393
F0.001594896331738437
sS'administrative'
p394
F0.0007974481658692185
sg44
F0.0007974481658692185
sg46
F0.003189792663476874
sg319
F0.0007974481658692185
sg48
F0.003189792663476874
sS'finance'
p395
F0.0007974481658692185
sS'means'
p396
F0.0007974481658692185
sS'food'
p397
F0.0023923444976076554
sS'foodstuffs'
p398
F0.01594896331738437
sg56
F0.0023923444976076554
sS'suffering'
p399
F0.001594896331738437
sS'effects'
p400
F0.0007974481658692185
sg343
F0.004784688995215311
sg247
F0.003987240829346092
sg12
F0.001594896331738437
sS'provision'
p401
F0.009569377990430622
sg328
F0.004784688995215311
sg64
F0.0007974481658692185
sS'imposed'
p402
F0.007974481658692184
sS'places'
p403
F0.001594896331738437
sg76
F0.001594896331738437
sg70
F0.001594896331738437
sS'sole'
p404
F0.009569377990430622
sg260
F0.001594896331738437
sg329
F0.0023923444976076554
sS'private'
p405
F0.0007974481658692185
sS'steps'
p406
F0.009569377990430622
sS'Council'
p407
F0.005582137161084529
sS'forces'
p408
F0.003189792663476874
sS'calls_#2'
p409
F0.009569377990430622
sS'essential'
p410
F0.0023923444976076554
sS'Again'
p411
F0.009569377990430622
sg84
F0.0007974481658692185
sg333
F0.001594896331738437
sg87
F0.0007974481658692185
sg134
F0.001594896331738437
sS'decided'
p412
F0.003189792663476874
sg135
F0.0007974481658692185
sg366
F0.001594896331738437
sg98
F0.008771929824561403
sg100
F0.003189792663476874
sS'Lee'
p413
F0.012759170653907496
sS'Government'
p414
F0.02073365231259968
sS'giving'
p415
F0.0023923444976076554
sS'nuclear'
p416
F0.0023923444976076554
sS'unable'
p417
F0.0007974481658692185
sS'China'
p418
F0.007177033492822967
sg341
F0.001594896331738437
sS'expresses'
p419
F0.009569377990430622
sS'Iraq_#3'
p420
F0.011961722488038277
sg116
F0.0023923444976076554
sg220
F0.001594896331738437
sS'power'
p421
F0.0023923444976076554
sS'This'
p422
F0.004784688995215311
sS'shortage'
p423
F0.0007974481658692185
sg126
F0.012759170653907496
sS'diagnostic'
p424
F0.003987240829346092
sS'cadres'
p425
F0.007974481658692184
sS'Teng-hui'
p426
F0.011164274322169059
sg273
F0.003189792663476874
sS'spare'
p427
F0.007177033492822967
sg51
F0.0007974481658692185
sS'put'
p428
F0.001594896331738437
sS'100'
p429
F0.0007974481658692185
sg127
F0.001594896331738437
sS'water'
p430
F0.001594896331738437
sS'Chinese'
p431
F0.004784688995215311
sg143
F0.0007974481658692185
sS'involved'
p432
F0.0007974481658692185
sS'ill'
p433
F0.001594896331738437
sS'days'
p434
F0.0007974481658692185
sS'supplies_#1'
p435
F0.02711323763955343
sS'personal'
p436
F0.0007974481658692185
sg285
F0.0007974481658692185
sg151
F0.003189792663476874
sg153
F0.003189792663476874
sS'action'
p437
F0.0007974481658692185
sS'Japan'
p438
F0.011164274322169059
sg19
F0.001594896331738437
sg104
F0.0007974481658692185
sg163
F0.001594896331738437
sg164
F0.0007974481658692185
sg165
F0.0007974481658692185
sg166
F0.003189792663476874
sS'epidemic'
p439
F0.001594896331738437
sS'strategic'
p440
F0.0007974481658692185
sg284
F0.001594896331738437
sS'impossible'
p441
F0.003189792663476874
sg354
F0.005582137161084529
sg178
F0.005582137161084529
sg156
F0.0007974481658692185
sS'working'
p442
F0.0023923444976076554
sS'hospital'
p443
F0.0007974481658692185
sS'political'
p444
F0.008771929824561403
sS'responsibility'
p445
F0.009569377990430622
sg185
F0.0007974481658692185
sg237
F0.0007974481658692185
sS'production'
p446
F0.007974481658692184
sS'strong'
p447
F0.0023923444976076554
sg191
F0.01674641148325359
sg192
F0.001594896331738437
sS'Iraq'
p448
F0.03987240829346093
sg256
F0.01594896331738437
sS'Ministry'
p449
F0.001594896331738437
sg203
F0.001594896331738437
sS'funds'
p450
F0.001594896331738437
sg205
F0.009569377990430622
sg206
F0.001594896331738437
sS'environmental'
p451
F0.0007974481658692185
sS'longer'
p452
F0.003189792663476874
sS'animals'
p453
F0.004784688995215311
sg292
F0.011961722488038277
sS'enjoyment_#-3'
p454
F0.009569377990430622
sg217
F0.011961722488038277
sg218
F0.0007974481658692185
sg221
F0.004784688995215311
sg224
F0.0007974481658692185
sg121
F0.011164274322169059
sS'items'
p455
F0.006379585326953748
sg227
F0.0023923444976076554
sS'Taiwan'
p456
F0.003987240829346092
sg231
F0.0023923444976076554
sg365
F0.001594896331738437
sg238
F0.005582137161084529
sg212
F0.003189792663476874
sg295
F0.046251993620414676
sg233
F0.0023923444976076554
sS'need'
p457
F0.011164274322169059
sg94
F0.0007974481658692185
sS'education'
p458
F0.0023923444976076554
sS'clothing'
p459
F0.001594896331738437
sS'information'
p460
F0.0007974481658692185
sg367
F0.003987240829346092
sS'issue'
p461
F0.001594896331738437
sS'discriminate'
p462
F0.009569377990430622
sS'populations'
p463
F0.001594896331738437
sg255
F0.001594896331738437
sg368
F0.01036682615629984
sg258
F0.0023923444976076554
sg369
F0.012759170653907496
sS'labour'
p464
F0.0007974481658692185
sg371
F0.001594896331738437
sS'animal'
p465
F0.001594896331738437
sg350
F0.001594896331738437
sS'difficult'
p466
F0.001594896331738437
sS'material'
p467
F0.003189792663476874
sS'traditional'
p468
F0.0007974481658692185
sS'enjoyment'
p469
F0.009569377990430622
sS'community_#1'
p470
F0.0007974481658692185
sS'foodstuffs_#-1'
p471
F0.009569377990430622
sg276
F0.0007974481658692185
sg249
F0.001594896331738437
sS'times'
p472
F0.001594896331738437
sg375
F0.003987240829346092
sg136
F0.0007974481658692185
sg53
F0.001594896331738437
sS'authorities'
p473
F0.007974481658692184
sS'equitable'
p474
F0.01036682615629984
sg286
F0.003987240829346092
sS'cooperate'
p475
F0.011164274322169059
sS'recent'
p476
F0.001594896331738437
sS'ago'
p477
F0.001594896331738437
sg291
F0.0023923444976076554
sS'effective'
p478
F0.0007974481658692185
sg294
F0.0007974481658692185
sS'alarm'
p479
F0.009569377990430622
sg296
F0.022328548644338118
sS'Japanese'
p480
F0.008771929824561403
sg11
F0.0007974481658692185
sS'One'
p481
F0.003987240829346092
sg300
F0.005582137161084529
sg381
F0.0023923444976076554
sg370
F0.014354066985645933
sS'basic_#-2'
p482
F0.012759170653907496
sg30
F0.01594896331738437
sg384
F0.004784688995215311
sg58
F0.01036682615629984
sg307
F0.006379585326953748
sg309
F0.0023923444976076554
ssI4
(dp483
g196
F0.017964071856287425
sS'legislation'
p484
F0.017964071856287425
sS'energy'
p485
F0.000998003992015968
sg361
F0.04291417165668663
sg10
F0.006986027944111776
sS'prostitution'
p486
F0.017964071856287425
sg25
F0.003992015968063872
sg298
F0.018962075848303395
sS'Also'
p487
F0.00998003992015968
sS'incest'
p488
F0.017964071856287425
sS'psychological_#2'
p489
F0.017964071856287425
sg17
F0.023952095808383235
sg173
F0.038922155688622756
sS'urges'
p490
F0.013972055888223553
sg335
F0.01996007984031936
sg95
F0.014970059880239521
sg96
F0.020958083832335328
sS'sexual'
p491
F0.03792415169660679
sg300
F0.015968063872255488
sg367
F0.005988023952095809
sg250
F0.021956087824351298
sg421
F0.003992015968063872
sg181
F0.003992015968063872
sg182
F0.003992015968063872
sg104
F0.017964071856287425
sS'girls'
p492
F0.03592814371257485
sS'safe_#-3'
p493
F0.017964071856287425
sg106
F0.003992015968063872
sS'forms'
p494
F0.017964071856287425
sg369
F0.000998003992015968
sg418
F0.000998003992015968
sS'programmes_#-1'
p495
F0.017964071856287425
sg265
F0.001996007984031936
sS'World'
p496
F0.000998003992015968
sS'women'
p497
F0.00499001996007984
sg461
F0.000998003992015968
sS'enact'
p498
F0.015968063872255488
sg256
F0.0029940119760479044
sS'age-appropriate'
p499
F0.017964071856287425
sS'safe'
p500
F0.017964071856287425
sS'patient'
p501
F0.000998003992015968
sS'confidential_#-2'
p502
F0.017964071856287425
sS'confidential'
p503
F0.017964071856287425
sg123
F0.003992015968063872
sg470
F0.000998003992015968
sg275
F0.018962075848303395
sS'prenatal'
p504
F0.017964071856287425
sS'support_#3'
p505
F0.017964071856287425
sg207
F0.003992015968063872
sg280
F0.020958083832335328
sg209
F0.000998003992015968
sS'doctors'
p506
F0.000998003992015968
sg169
F0.017964071856287425
sS'genital'
p507
F0.017964071856287425
sS'sex'
p508
F0.01996007984031936
sS'improve'
p509
F0.003992015968063872
sS'training'
p510
F0.003992015968063872
sS'infanticide'
p511
F0.01996007984031936
sg94
F0.00499001996007984
sg295
F0.01996007984031936
sS'violence'
p512
F0.05089820359281437
sg299
F0.003992015968063872
sS'exploitation'
p513
F0.017964071856287425
sS'mutilation'
p514
F0.017964071856287425
sg390
F0.001996007984031936
sg75
F0.000998003992015968
sS'personnel'
p515
F0.00998003992015968
sS'social_#1'
p516
F0.0249500998003992
sg159
F0.017964071856287425
sS'enforce'
p517
F0.017964071856287425
sg154
F0.0249500998003992
ssI5
(dp518
g3
F0.00017164435290078958
sS'consider'
p519
F0.0008582217645039478
sg47
F0.0037761757638173706
sg387
F0.003089598352214212
sg14
F0.0034328870580157913
sS'Republic'
p520
F0.001544799176107106
sS'welfare'
p521
F0.005149330587023687
sS'Department'
p522
F0.0006865774116031583
sS'religious'
p523
F0.001201510470305527
sS'children'
p524
F0.00806728458633711
sS'issues'
p525
F0.001544799176107106
sS'eligible'
p526
F0.0008582217645039478
sg29
F0.00017164435290078958
sg31
F0.0005149330587023687
sS'environment'
p527
F0.003089598352214212
sg36
F0.00017164435290078958
sg418
F0.0005149330587023687
sg318
F0.0025746652935118436
sg224
F0.001201510470305527
sg46
F0.004291108822519739
sg54
F0.002403020940611054
sS'detention'
p528
F0.00017164435290078958
sg60
F0.0006865774116031583
sg12
F0.0006865774116031583
sg62
F0.001544799176107106
sg66
F0.00034328870580157915
sg21
F0.0060075523515276345
sg72
F0.00034328870580157915
sg73
F0.001544799176107106
sg218
F0.0010298661174047373
sS'small'
p529
F0.00017164435290078958
sg80
F0.0037761757638173706
sg217
F0.0008582217645039478
sg91
F0.001201510470305527
sg92
F0.00034328870580157915
sS'implemented'
p530
F0.00017164435290078958
sS'investment'
p531
F0.0010298661174047373
sg100
F0.0010298661174047373
sg122
F0.0010298661174047373
sg415
F0.0005149330587023687
sg105
F0.009268795056642637
sS'current'
p532
F0.001201510470305527
sg341
F0.0006865774116031583
sg58
F0.006179196704428424
sg115
F0.00034328870580157915
sS'public'
p533
F0.01184346035015448
sS'exercise'
p534
F0.0006865774116031583
sg120
F0.001544799176107106
sS'healthcare'
p535
F0.0022313765877102643
sg125
F0.0018880878819086853
sS'resulted'
p536
F0.00017164435290078958
sg430
F0.004462753175420529
sg273
F0.0037761757638173706
sg131
F0.006694129763130793
sg51
F0.0013731548232063166
sg429
F0.00034328870580157915
sg447
F0.00017164435290078958
sS'knowledge'
p537
F0.0017164435290078957
sS'healthy'
p538
F0.001544799176107106
sg432
F0.0029179539993134224
sg243
F0.0017164435290078957
sg435
F0.0010298661174047373
sg350
F0.0010298661174047373
sg154
F0.02265705458290422
sg437
F0.00034328870580157915
sS'military'
p539
F0.0032612427051150017
sg128
F0.001201510470305527
sg146
F0.00017164435290078958
sg352
F0.004119464469618949
sg405
F0.001201510470305527
sS'young'
p540
F0.0018880878819086853
sg298
F0.00394782011671816
sg171
F0.00017164435290078958
sg176
F0.0006865774116031583
sg177
F0.001544799176107106
sg442
F0.002403020940611054
sS'personnel_#1'
p541
F0.00034328870580157915
sg443
F0.00034328870580157915
sS'sports'
p542
F0.0020597322348094747
sS'live'
p543
F0.00034328870580157915
sg195
F0.00034328870580157915
sg463
F0.0017164435290078957
sS'staff_#1'
p544
F0.00017164435290078958
sg497
F0.006179196704428424
sg214
F0.0010298661174047373
sg215
F0.0013731548232063166
sg24
F0.006694129763130793
sS'alia'
p545
F0.0018880878819086853
sg15
F0.0032612427051150017
sS'rehabilitation'
p546
F0.0018880878819086853
sg234
F0.00017164435290078958
sg512
F0.0005149330587023687
sg365
F0.00017164435290078958
sS'household'
p547
F0.001201510470305527
sg241
F0.00017164435290078958
sg459
F0.0017164435290078957
sg460
F0.00789564023343632
sg367
F0.0034328870580157913
sg285
F0.0006865774116031583
sg252
F0.0017164435290078957
sg301
F0.006179196704428424
sg396
F0.0008582217645039478
sg390
F0.00034328870580157915
sS'establishment'
p548
F0.00034328870580157915
sg269
F0.0010298661174047373
sg272
F0.0005149330587023687
sS'southern'
p549
F0.00034328870580157915
sg249
F0.003089598352214212
sg279
F0.00017164435290078958
sg280
F0.0008582217645039478
sg281
F0.0008582217645039478
sS'improving'
p550
F0.004119464469618949
sg179
F0.0073807071747339515
sg157
F0.0018880878819086853
sg478
F0.0010298661174047373
sS'media'
p551
F0.0008582217645039478
sS'preventive'
p552
F0.0027463096464126332
sS'volunteers'
p553
F0.00034328870580157915
sg299
F0.0073807071747339515
sS'operations'
p554
F0.0005149330587023687
sg5
F0.00034328870580157915
sg8
F0.003089598352214212
sg247
F0.0025746652935118436
sS'disabled'
p555
F0.002403020940611054
sS'health_#3'
p556
F0.0005149330587023687
sg16
F0.00034328870580157915
sg17
F0.009955372468245795
sg389
F0.00017164435290078958
sg22
F0.0017164435290078957
sg391
F0.0010298661174047373
sg25
F0.0010298661174047373
sS'recreational'
p557
F0.002403020940611054
sg494
F0.00034328870580157915
sg446
F0.00017164435290078958
sg277
F0.00034328870580157915
sg40
F0.0013731548232063166
sg393
F0.0006865774116031583
sS'diseases'
p558
F0.005149330587023687
sg397
F0.007037418468932372
sg467
F0.0022313765877102643
sS'number'
p559
F0.0005149330587023687
sg293
F0.0010298661174047373
sS'schools'
p560
F0.00017164435290078958
sg401
F0.0027463096464126332
sg76
F0.00034328870580157915
sg260
F0.001544799176107106
sg407
F0.0020597322348094747
sg495
F0.00034328870580157915
sg466
F0.0005149330587023687
sg84
F0.0032612427051150017
sS'mental'
p561
F0.0008582217645039478
sg485
F0.00017164435290078958
sg333
F0.00034328870580157915
sS'related'
p562
F0.0008582217645039478
sg90
F0.001201510470305527
sS'education_#-1'
p563
F0.002403020940611054
sg96
F0.005664263645726055
sg491
F0.00034328870580157915
sg98
F0.0020597322348094747
sg274
F0.005835907998626845
sS'factors'
p564
F0.00017164435290078958
sg107
F0.00017164435290078958
sg340
F0.0005149330587023687
sg110
F0.00017164435290078958
sS'safety'
p565
F0.00017164435290078958
sg112
F0.02814967387572949
sg422
F0.0006865774116031583
sS'free'
p566
F0.0020597322348094747
sg127
F0.001544799176107106
sS'campaigns'
p567
F0.00017164435290078958
sg162
F0.0006865774116031583
sg428
F0.0005149330587023687
sg137
F0.03226913834534844
sg510
F0.0054926192928252664
sg140
F0.00017164435290078958
sS'National'
p568
F0.00017164435290078958
sg434
F0.00017164435290078958
sg149
F0.00034328870580157915
sg302
F0.00017164435290078958
sg104
F0.0034328870580157913
sg160
F0.0025746652935118436
sg351
F0.001201510470305527
sg165
F0.00034328870580157915
sg56
F0.0025746652935118436
sg440
F0.0017164435290078957
sg174
F0.0022313765877102643
sS'quality'
p569
F0.004806041881222108
sg129
F0.0010298661174047373
sS'service'
p570
F0.005835907998626845
sg181
F0.0005149330587023687
sg182
F0.0006865774116031583
sg184
F0.00034328870580157915
sg172
F0.001544799176107106
sg186
F0.0010298661174047373
sg187
F0.00017164435290078958
sS'housing_#-1'
p571
F0.003089598352214212
sg189
F0.0013731548232063166
sS'enforcement'
p572
F0.0020597322348094747
sg451
F0.002403020940611054
sS'part'
p573
F0.0008582217645039478
sg506
F0.0017164435290078957
sS'population'
p574
F0.005149330587023687
sg117
F0.00017164435290078958
sg102
F0.0006865774116031583
sg271
F0.0020597322348094747
sS'patients'
p575
F0.00017164435290078958
sg111
F0.00017164435290078958
sg229
F0.00394782011671816
sg197
F0.001544799176107106
sg237
F0.0018880878819086853
sg233
F0.0005149330587023687
sg457
F0.004462753175420529
sg245
F0.0005149330587023687
sS'vulnerable'
p576
F0.002403020940611054
sS'services_#1'
p577
F0.006350841057329214
sg9
F0.00034328870580157915
sg464
F0.0025746652935118436
sg408
F0.0005149330587023687
sg220
F0.0020597322348094747
sg278
F0.0005149330587023687
sS'plan'
p578
F0.0022313765877102643
sg169
F0.0362169584620666
sg286
F0.012358393408856848
sg288
F0.00017164435290078958
sS'consequences'
p579
F0.001201510470305527
sg295
F0.05046343975283213
sg296
F0.0029179539993134224
sg297
F0.00034328870580157915
sg468
F0.00034328870580157915
sg360
F0.00034328870580157915
sS'bodies'
p580
F0.0010298661174047373
sg53
F0.0020597322348094747
sg308
F0.0027463096464126332
sg309
F0.00034328870580157915
sg2
F0.0008582217645039478
sg312
F0.0010298661174047373
sS'planning'
p581
F0.0034328870580157913
sS'Under'
p582
F0.0006865774116031583
sg20
F0.0010298661174047373
sg85
F0.0013731548232063166
sg108
F0.006522485410230003
sS'based'
p583
F0.0022313765877102643
sg26
F0.00034328870580157915
sS'assistance_#1'
p584
F0.0025746652935118436
sg516
F0.0034328870580157913
sg32
F0.0037761757638173706
sg33
F0.001544799176107106
sg41
F0.0018880878819086853
sg43
F0.004806041881222108
sg44
F0.0018880878819086853
sS'distance'
p585
F0.0018880878819086853
sg55
F0.0006865774116031583
sS'While'
p586
F0.00034328870580157915
sg38
F0.004634397528321318
sg59
F0.001201510470305527
sg64
F0.009955372468245795
sg65
F0.005149330587023687
sg361
F0.001544799176107106
sg420
F0.00017164435290078958
sS'reproductive'
p587
F0.002403020940611054
sg68
F0.001544799176107106
sS'approach'
p588
F0.001544799176107106
sg388
F0.0013731548232063166
sS'Kong'
p589
F0.00017164435290078958
sS'service_#1'
p590
F0.00034328870580157915
sg158
F0.0008582217645039478
sg82
F0.0006865774116031583
sg83
F0.0005149330587023687
sS'disaster'
p591
F0.0018880878819086853
sg332
F0.00034328870580157915
sg86
F0.010470305526948163
sg219
F0.001201510470305527
sS'officials'
p592
F0.0018880878819086853
sg93
F0.001201510470305527
sg175
F0.0005149330587023687
sg417
F0.0005149330587023687
sg116
F0.004119464469618949
sg321
F0.001544799176107106
sS'infrastructure'
p593
F0.0027463096464126332
sS'attention'
p594
F0.001201510470305527
sg126
F0.00034328870580157915
sg346
F0.0008582217645039478
sg132
F0.0010298661174047373
sg509
F0.0032612427051150017
sg139
F0.00034328870580157915
sg211
F0.0013731548232063166
sg433
F0.001544799176107106
sg147
F0.0013731548232063166
sg69
F0.00034328870580157915
sS'cancer'
p595
F0.00034328870580157915
sg263
F0.0027463096464126332
sS'reasons'
p596
F0.0005149330587023687
sg167
F0.004119464469618949
sg135
F0.0010298661174047373
sg180
F0.001201510470305527
sS'addition'
p597
F0.0037761757638173706
sg444
F0.002403020940611054
sS'But'
p598
F0.0008582217645039478
sg190
F0.00034328870580157915
sg191
F0.0018880878819086853
sS'territory'
p599
F0.0005149330587023687
sg194
F0.00034328870580157915
sg199
F0.0020597322348094747
sg200
F0.001201510470305527
sS'costs_#1'
p600
F0.00017164435290078958
sg6
F0.00034328870580157915
sg208
F0.0010298661174047373
sS'expenditure'
p601
F0.001544799176107106
sS'external'
p602
F0.0018880878819086853
sS'systematic'
p603
F0.0025746652935118436
sg210
F0.0020597322348094747
sS'prices'
p604
F0.0020597322348094747
sS'present'
p605
F0.00017164435290078958
sS'volunteer'
p606
F0.0008582217645039478
sg362
F0.0018880878819086853
sg216
F0.0013731548232063166
sg221
F0.00017164435290078958
sg143
F0.00034328870580157915
sg121
F0.00034328870580157915
sg227
F0.0034328870580157913
sS'taking'
p607
F0.0017164435290078957
sS'health-care'
p608
F0.0017164435290078957
sS'expenses'
p609
F0.00017164435290078958
sg242
F0.00017164435290078958
sS'reports'
p610
F0.00017164435290078958
sg94
F0.0037761757638173706
sS'technology'
p611
F0.0020597322348094747
sg395
F0.0018880878819086853
sg250
F0.0017164435290078957
sg49
F0.0006865774116031583
sg254
F0.00017164435290078958
sS'radiation'
p612
F0.00017164435290078958
sg392
F0.00034328870580157915
sS'peoples'
p613
F0.0020597322348094747
sS'entitled'
p614
F0.0010298661174047373
sg270
F0.009268795056642637
sS'practice'
p615
F0.0005149330587023687
sS'comprehensive'
p616
F0.0034328870580157913
sg142
F0.0037761757638173706
sg150
F0.0008582217645039478
sS'indigenous'
p617
F0.001544799176107106
sS'mentally'
p618
F0.0006865774116031583
sg476
F0.0010298661174047373
sg500
F0.0022313765877102643
sg399
F0.0010298661174047373
sg300
F0.001201510470305527
sS'practices'
p619
F0.0006865774116031583
sS'centres'
p620
F0.0008582217645039478
sg283
F0.00034328870580157915
sS'prevention'
p621
F0.0017164435290078957
sS'Service'
p622
F0.001201510470305527
sS'money'
p623
F0.0025746652935118436
sg10
F0.0008582217645039478
sg257
F0.0008582217645039478
sg489
F0.00034328870580157915
sg18
F0.004119464469618949
sS'coordination'
p624
F0.002403020940611054
sg101
F0.004634397528321318
sS'simple'
p625
F0.00017164435290078958
sS'spread'
p626
F0.00034328870580157915
sg256
F0.0049776862341228975
sS'Although'
p627
F0.0005149330587023687
sg39
F0.00017164435290078958
sg394
F0.0005149330587023687
sg45
F0.0018880878819086853
sg244
F0.00017164435290078958
sS'emergency'
p628
F0.0013731548232063166
sg50
F0.001201510470305527
sS'cultural'
p629
F0.0054926192928252664
sg37
F0.0006865774116031583
sg67
F0.00017164435290078958
sS'specific'
p630
F0.0029179539993134224
sg330
F0.001544799176107106
sg74
F0.0013731548232063166
sg406
F0.00034328870580157915
sg78
F0.0034328870580157913
sS'inter'
p631
F0.0018880878819086853
sg410
F0.0010298661174047373
sS'accessible'
p632
F0.0017164435290078957
sg88
F0.010985238585650533
sS'growth'
p633
F0.0017164435290078957
sS'employment'
p634
F0.003604531410916581
sg336
F0.0049776862341228975
sS'provided'
p635
F0.001201510470305527
sg414
F0.007552351527634741
sg106
F0.004291108822519739
sg109
F0.00017164435290078958
sS'participation'
p636
F0.0010298661174047373
sg421
F0.0006865774116031583
sg124
F0.0010298661174047373
sS'Vietnam'
p637
F0.00017164435290078958
sg347
F0.00017164435290078958
sg141
F0.00017164435290078958
sS'industry'
p638
F0.0027463096464126332
sS'citizens'
p639
F0.0017164435290078957
sS'practical'
p640
F0.0008582217645039478
sS'range'
p641
F0.0020597322348094747
sg151
F0.004462753175420529
sg153
F0.00017164435290078958
sg490
F0.0006865774116031583
sS'public_#-2'
p642
F0.0013731548232063166
sS'chronic'
p643
F0.00034328870580157915
sS'accounts'
p644
F0.0027463096464126332
sS'statistics'
p645
F0.0010298661174047373
sS'additional'
p646
F0.0013731548232063166
sS'area'
p647
F0.001201510470305527
sS'housing'
p648
F0.008582217645039478
sg484
F0.0006865774116031583
sg188
F0.0017164435290078957
sg357
F0.00034328870580157915
sg192
F0.00034328870580157915
sS'offer'
p649
F0.00034328870580157915
sS'clinics'
p650
F0.0006865774116031583
sg450
F0.0010298661174047373
sS'remote'
p651
F0.0027463096464126332
sg403
F0.0010298661174047373
sg223
F0.007037418468932372
sg226
F0.00017164435290078958
sg228
F0.0017164435290078957
sg231
F0.00034328870580157915
sg152
F0.0005149330587023687
sg170
F0.0010298661174047373
sg212
F0.00034328870580157915
sS'daily'
p652
F0.0006865774116031583
sg458
F0.013044970820460007
sS'physical'
p653
F0.002403020940611054
sS'owing'
p654
F0.00034328870580157915
sg515
F0.0017164435290078957
sg449
F0.00034328870580157915
sS'teams'
p655
F0.0022313765877102643
sg258
F0.00034328870580157915
sg259
F0.001201510470305527
sg261
F0.0017164435290078957
sS'sick'
p656
F0.0008582217645039478
sg264
F0.001544799176107106
sS'workers_#2'
p657
F0.0017164435290078957
sS'poor'
p658
F0.0017164435290078957
sS'shelter'
p659
F0.0020597322348094747
sg276
F0.004462753175420529
sS'important'
p660
F0.0005149330587023687
sg35
F0.0020597322348094747
sg473
F0.0017164435290078957
sS'building'
p661
F0.001201510470305527
sS'individual'
p662
F0.0018880878819086853
sS'age'
p663
F0.00017164435290078958
sg235
F0.0008582217645039478
sg239
F0.016649502231376588
sS'departments'
p664
F0.00017164435290078958
sg381
F0.0008582217645039478
sS'students'
p665
F0.00017164435290078958
sg305
F0.00034328870580157915
ssI6
(dp666
g3
F0.0036889897843359817
sg519
F0.0005675368898978433
sS'caused'
p667
F0.0005675368898978433
sS'global'
p668
F0.00340522133938706
sS'results'
p669
F0.0022701475595913734
sg520
F0.0011350737797956867
sg523
F0.0028376844494892167
sS'centers'
p670
F0.000851305334846765
sg525
F0.0019863791146424517
sg526
F0.00028376844494892167
sg29
F0.0014188422247446084
sg540
F0.000851305334846765
sg36
F0.004824063564131668
sS'Western'
p671
F0.0056753688989784334
sg38
F0.00028376844494892167
sg418
F0.005391600454029512
sg318
F0.002553916004540295
sg224
F0.00510783200908059
sg46
F0.000851305334846765
sg47
F0.00170261066969353
sg54
F0.0022701475595913734
sg505
F0.0005675368898978433
sg391
F0.000851305334846765
sg328
F0.00028376844494892167
sg66
F0.0036889897843359817
sg21
F0.0011350737797956867
sg72
F0.000851305334846765
sg73
F0.00170261066969353
sg529
F0.0005675368898978433
sg80
F0.00028376844494892167
sS'leaders'
p672
F0.0056753688989784334
sg89
F0.0036889897843359817
sg91
F0.00170261066969353
sg530
F0.0019863791146424517
sg531
F0.00170261066969353
sg100
F0.0019863791146424517
sg122
F0.0014188422247446084
sg415
F0.0005675368898978433
sg524
F0.00170261066969353
sg532
F0.004824063564131668
sg341
F0.00028376844494892167
sg58
F0.004824063564131668
sg115
F0.0022701475595913734
sg533
F0.013337116912599319
sg118
F0.0019863791146424517
sg119
F0.00028376844494892167
sg125
F0.0005675368898978433
sg536
F0.0005675368898978433
sg131
F0.002553916004540295
sg232
F0.0011350737797956867
sg447
F0.00340522133938706
sg431
F0.016174801362088535
sg143
F0.0022701475595913734
sg432
F0.0011350737797956867
sg77
F0.0011350737797956867
sg243
F0.000851305334846765
sg539
F0.0022701475595913734
sg128
F0.00170261066969353
sg352
F0.0022701475595913734
sg405
F0.0019863791146424517
sg354
F0.000851305334846765
sg176
F0.0011350737797956867
sg177
F0.0005675368898978433
sg442
F0.00028376844494892167
sg443
F0.0005675368898978433
sg183
F0.0028376844494892167
sg543
F0.00028376844494892167
sg195
F0.0005675368898978433
sg449
F0.0019863791146424517
sg544
F0.00028376844494892167
sg209
F0.000851305334846765
sS'cases'
p673
F0.004540295119182747
sg497
F0.004540295119182747
sg214
F0.008796821793416572
sg215
F0.000851305334846765
sg24
F0.007094211123723042
sS'science'
p674
F0.000851305334846765
sS'Taiwanese'
p675
F0.0031214528944381384
sg225
F0.0028376844494892167
sS'making'
p676
F0.000851305334846765
sS'male'
p677
F0.00340522133938706
sg230
F0.00028376844494892167
sS'nursing'
p678
F0.0019863791146424517
sS'give'
p679
F0.000851305334846765
sg365
F0.002553916004540295
sg473
F0.0011350737797956867
sS'numbers'
p680
F0.00028376844494892167
sg367
F0.003972758229284903
sg252
F0.0005675368898978433
sg301
F0.00028376844494892167
sg465
F0.0011350737797956867
sg548
F0.00170261066969353
sg374
F0.00028376844494892167
sS'treatments'
p681
F0.003972758229284903
sg279
F0.00170261066969353
sg280
F0.00028376844494892167
sg550
F0.00028376844494892167
sg179
F0.0019863791146424517
sS'natural'
p682
F0.0028376844494892167
sg478
F0.00340522133938706
sg480
F0.00028376844494892167
sg481
F0.0022701475595913734
sg445
F0.00028376844494892167
sg535
F0.00028376844494892167
sg552
F0.0011350737797956867
sg553
F0.003972758229284903
sg299
F0.0014188422247446084
sg554
F0.00028376844494892167
sg5
F0.00510783200908059
sS'Chi'
p683
F0.00340522133938706
sg247
F0.000851305334846765
sg34
F0.004540295119182747
sg556
F0.0022701475595913734
sg16
F0.0028376844494892167
sg277
F0.0005675368898978433
sg496
F0.0028376844494892167
sg42
F0.00170261066969353
sg48
F0.0005675368898978433
sg615
F0.0019863791146424517
sg617
F0.0005675368898978433
sg293
F0.00028376844494892167
sg400
F0.00028376844494892167
sg560
F0.004256526674233825
sS'resources_#1'
p684
F0.0031214528944381384
sg76
F0.0005675368898978433
sg407
F0.0022701475595913734
sg331
F0.005959137343927355
sg70
F0.002553916004540295
sg81
F0.00028376844494892167
sg84
F0.003972758229284903
sg561
F0.0005675368898978433
sg333
F0.0028376844494892167
sg562
F0.0031214528944381384
sg174
F0.0005675368898978433
sg655
F0.00028376844494892167
sg98
F0.0005675368898978433
sg564
F0.0022701475595913734
sg107
F0.011634506242905789
sg340
F0.002553916004540295
sg110
F0.00028376844494892167
sg112
F0.022701475595913734
sg342
F0.01844494892167991
sg461
F0.0014188422247446084
sg422
F0.010783200908059024
sS'University'
p685
F0.004824063564131668
sS'According'
p686
F0.0019863791146424517
sg566
F0.000851305334846765
sg424
F0.00170261066969353
sg567
F0.0022701475595913734
sg156
F0.000851305334846765
sg162
F0.00340522133938706
sg428
F0.0028376844494892167
sg137
F0.0005675368898978433
sS'practitioners'
p687
F0.00681044267877412
sS'People'
p688
F0.00340522133938706
sg568
F0.005391600454029512
sg434
F0.0005675368898978433
sg302
F0.0014188422247446084
sg165
F0.00170261066969353
sg559
F0.004540295119182747
sg440
F0.00028376844494892167
sS'directly'
p689
F0.000851305334846765
sg441
F0.0014188422247446084
sg569
F0.0005675368898978433
sS'ancient'
p690
F0.00340522133938706
sg570
F0.010783200908059024
sg182
F0.0005675368898978433
sg492
F0.0022701475595913734
sg184
F0.0005675368898978433
sS'rates'
p691
F0.000851305334846765
sg86
F0.00028376844494892167
sg198
F0.004256526674233825
sg451
F0.00028376844494892167
sg573
F0.0005675368898978433
sg506
F0.00851305334846765
sg574
F0.00170261066969353
sg117
F0.00510783200908059
sg71
F0.0005675368898978433
sS'require'
p692
F0.00170261066969353
sg271
F0.0005675368898978433
sg575
F0.00681044267877412
sg592
F0.00028376844494892167
sg229
F0.0031214528944381384
sS'modern'
p693
F0.006242905788876277
sg486
F0.0005675368898978433
sg233
F0.000851305334846765
sg457
F0.0011350737797956867
sS'seek'
p694
F0.0022701475595913734
sg576
F0.0011350737797956867
sg577
F0.00028376844494892167
sS'After'
p695
F0.004540295119182747
sg9
F0.0028376844494892167
sg369
F0.0005675368898978433
sS'They'
p696
F0.004540295119182747
sg265
F0.0011350737797956867
sS'With'
p697
F0.000851305334846765
sg136
F0.0005675368898978433
sg169
F0.00028376844494892167
sg286
F0.019863791146424517
sg288
F0.0014188422247446084
sg291
F0.00340522133938706
sg295
F0.07377979568671963
sg468
F0.010499432463110102
sg360
F0.0005675368898978433
sg53
F0.0022701475595913734
sg308
F0.00028376844494892167
sg309
F0.0022701475595913734
sg385
F0.00028376844494892167
sg13
F0.00340522133938706
sg581
F0.0028376844494892167
sg20
F0.0005675368898978433
sg313
F0.0005675368898978433
sg583
F0.003972758229284903
sg32
F0.0005675368898978433
sg8
F0.0036889897843359817
sg43
F0.006242905788876277
sg44
F0.000851305334846765
sg396
F0.00340522133938706
sg113
F0.0022701475595913734
sg586
F0.00028376844494892167
sg114
F0.00170261066969353
sg59
F0.0031214528944381384
sg393
F0.0005675368898978433
sS'Tzu'
p698
F0.004540295119182747
sg68
F0.00510783200908059
sg588
F0.0014188422247446084
sg388
F0.005959137343927355
sg589
F0.010499432463110102
sg590
F0.004824063564131668
sg158
F0.00340522133938706
sg82
F0.0031214528944381384
sg83
F0.003972758229284903
sg332
F0.0011350737797956867
sS'Hospital'
p699
F0.0028376844494892167
sg508
F0.0005675368898978433
sg412
F0.000851305334846765
sg175
F0.000851305334846765
sS'science_#1'
p700
F0.000851305334846765
sg23
F0.00028376844494892167
sS'herbal'
p701
F0.0056753688989784334
sg116
F0.0028376844494892167
sg321
F0.0022701475595913734
sg123
F0.0005675368898978433
sg594
F0.00340522133938706
sg346
F0.00170261066969353
sg134
F0.00170261066969353
sg509
F0.000851305334846765
sg139
F0.0019863791146424517
sg211
F0.0011350737797956867
sg144
F0.004824063564131668
sg433
F0.0005675368898978433
sg147
F0.0014188422247446084
sg148
F0.0036889897843359817
sg161
F0.00028376844494892167
sg595
F0.0022701475595913734
sg163
F0.00170261066969353
sg596
F0.0022701475595913734
sg439
F0.00170261066969353
sg135
F0.0005675368898978433
sg180
F0.00028376844494892167
sg597
F0.00028376844494892167
sg444
F0.0022701475595913734
sg598
F0.005959137343927355
sS'treat'
p702
F0.002553916004540295
sg190
F0.002553916004540295
sg191
F0.0022701475595913734
sg599
F0.000851305334846765
sg194
F0.0011350737797956867
sg256
F0.0036889897843359817
sg200
F0.00028376844494892167
sg203
F0.000851305334846765
sS'centers_#1'
p703
F0.000851305334846765
sg287
F0.0005675368898978433
sg305
F0.0011350737797956867
sg602
F0.000851305334846765
sg210
F0.000851305334846765
sg605
F0.0031214528944381384
sg606
F0.00170261066969353
sS'And'
p704
F0.002553916004540295
sg362
F0.00028376844494892167
sS'main'
p705
F0.005391600454029512
sg216
F0.0022701475595913734
sg222
F0.0014188422247446084
sg51
F0.00170261066969353
sg456
F0.0235527809307605
sg607
F0.0014188422247446084
sS'SARS'
p706
F0.000851305334846765
sg608
F0.0005675368898978433
sg242
F0.000851305334846765
sg610
F0.0022701475595913734
sg611
F0.004256526674233825
sg250
F0.000851305334846765
sS'doctor'
p707
F0.0036889897843359817
sg551
F0.004824063564131668
sg368
F0.0005675368898978433
sg466
F0.0005675368898978433
sg270
F0.000851305334846765
sS'independent'
p708
F0.00170261066969353
sS'Medical'
p709
F0.0005675368898978433
sg275
F0.0005675368898978433
sg150
F0.0028376844494892167
sg618
F0.000851305334846765
sg300
F0.0005675368898978433
sg619
F0.0028376844494892167
sg384
F0.0005675368898978433
sg283
F0.0019863791146424517
sg580
F0.000851305334846765
sg4
F0.00028376844494892167
sg623
F0.000851305334846765
sS'practitioners_#1'
p710
F0.0056753688989784334
sg18
F0.007094211123723042
sS'alternative'
p711
F0.0022701475595913734
sg624
F0.00028376844494892167
sg625
F0.0019863791146424517
sg626
F0.0036889897843359817
sg37
F0.00028376844494892167
sg627
F0.0011350737797956867
sg6
F0.00028376844494892167
sg394
F0.002553916004540295
sS'tests'
p712
F0.005391600454029512
sg320
F0.00028376844494892167
sg50
F0.00028376844494892167
sg399
F0.0005675368898978433
sg167
F0.006242905788876277
sg324
F0.0005675368898978433
sg63
F0.00170261066969353
sg402
F0.0005675368898978433
sg406
F0.0005675368898978433
sg410
F0.000851305334846765
sg632
F0.0005675368898978433
sS'deal'
p713
F0.004540295119182747
sg634
F0.00028376844494892167
sg56
F0.000851305334846765
sg414
F0.0005675368898978433
sg106
F0.0022701475595913734
sg636
F0.0005675368898978433
sg99
F0.006242905788876277
sg421
F0.00028376844494892167
sg637
F0.0031214528944381384
sg347
F0.00028376844494892167
sg639
F0.0005675368898978433
sg640
F0.0011350737797956867
sg641
F0.0005675368898978433
sg151
F0.00028376844494892167
sg153
F0.00340522133938706
sg490
F0.0005675368898978433
sg157
F0.0011350737797956867
sS'Hong'
p714
F0.01021566401816118
sS'civil'
p715
F0.00028376844494892167
sg164
F0.0031214528944381384
sg643
F0.00170261066969353
sg173
F0.0005675368898978433
sg178
F0.00340522133938706
sg645
F0.0011350737797956867
sg646
F0.00028376844494892167
sg647
F0.0005675368898978433
sg104
F0.0011350737797956867
sg188
F0.004824063564131668
sg192
F0.000851305334846765
sg477
F0.003972758229284903
sg649
F0.0014188422247446084
sg650
F0.0028376844494892167
sg450
F0.00028376844494892167
sg205
F0.00028376844494892167
sg358
F0.0005675368898978433
sg193
F0.0005675368898978433
sg403
F0.0011350737797956867
sg226
F0.000851305334846765
sS'problem'
p716
F0.004256526674233825
sg231
F0.000851305334846765
sS'illnesses'
p717
F0.004540295119182747
sg212
F0.003972758229284903
sg652
F0.0005675368898978433
sS'hospitals'
p718
F0.0019863791146424517
sg653
F0.000851305334846765
sg253
F0.0022701475595913734
sg515
F0.0005675368898978433
sg662
F0.004540295119182747
sg258
F0.0014188422247446084
sg259
F0.00170261066969353
sg264
F0.00028376844494892167
sS'test'
p719
F0.0014188422247446084
sg658
F0.00340522133938706
sg665
F0.004540295119182747
sg470
F0.002553916004540295
sg276
F0.0011350737797956867
sg375
F0.0019863791146424517
sg660
F0.0036889897843359817
sg284
F0.000851305334846765
sg661
F0.0011350737797956867
sg651
F0.0005675368898978433
sg663
F0.0022701475595913734
sg664
F0.0014188422247446084
sg381
F0.0005675368898978433
sg601
F0.00028376844494892167
sg306
F0.004824063564131668
ssI7
(dp720
g3
F0.0008576329331046312
sg519
F0.0008576329331046312
sg667
F0.003430531732418525
sg668
F0.0011435105774728416
sg669
F0.0011435105774728416
sg14
F0.002572898799313894
sg520
F0.0002858776443682104
sg522
F0.0037164093767867354
sg523
F0.0002858776443682104
sg670
F0.004859919954259577
sg526
F0.002287021154945683
sg29
F0.001429388221841052
sg38
F0.0005717552887364208
sg318
F0.0002858776443682104
sg46
F0.0005717552887364208
sS'rescue'
p721
F0.004002287021154946
sg251
F0.0005717552887364208
sg54
F0.001429388221841052
sg528
F0.002572898799313894
sg60
F0.0008576329331046312
sg391
F0.00714694110920526
sg62
F0.0005717552887364208
sg328
F0.002001143510577473
sg21
F0.002572898799313894
sg72
F0.0017152658662092624
sg73
F0.001429388221841052
sg329
F0.0008576329331046312
sg529
F0.002287021154945683
sg80
F0.0002858776443682104
sg217
F0.0008576329331046312
sg672
F0.0005717552887364208
sS'guidelines'
p722
F0.003430531732418525
sg87
F0.002287021154945683
sg89
F0.003430531732418525
sg91
F0.0002858776443682104
sg92
F0.005717552887364208
sg530
F0.002287021154945683
sg415
F0.0005717552887364208
sg532
F0.0005717552887364208
sg341
F0.0002858776443682104
sg58
F0.002001143510577473
sg115
F0.002001143510577473
sg533
F0.012006861063464836
sg534
F0.0005717552887364208
sg118
F0.0011435105774728416
sg119
F0.0017152658662092624
sg134
F0.0008576329331046312
sg425
F0.0002858776443682104
sS'reported'
p723
F0.004002287021154946
sg131
F0.0002858776443682104
sg706
F0.004859919954259577
sg429
F0.0031446540880503146
sg127
F0.0017152658662092624
sg455
F0.0017152658662092624
sg77
F0.0005717552887364208
sg610
F0.0008576329331046312
sg350
F0.0002858776443682104
sg437
F0.001429388221841052
sg539
F0.010291595197255575
sg128
F0.0002858776443682104
sg159
F0.0002858776443682104
sg146
F0.0002858776443682104
sg405
F0.00714694110920526
sS'Health'
p724
F0.0065751858204688395
sg354
F0.0011435105774728416
sg177
F0.0005717552887364208
sg442
F0.002287021154945683
sg541
F0.005717552887364208
sg443
F0.008862206975414523
sg183
F0.0017152658662092624
sg543
F0.0017152658662092624
sg449
F0.0002858776443682104
sg544
F0.003430531732418525
sg510
F0.004002287021154946
sg673
F0.005717552887364208
sg497
F0.0002858776443682104
sg214
F0.0017152658662092624
sg215
F0.0005717552887364208
sg675
F0.0002858776443682104
sg676
F0.0017152658662092624
sg230
F0.002287021154945683
sg546
F0.0002858776443682104
sg234
F0.001429388221841052
sg678
F0.0031446540880503146
sg679
F0.002287021154945683
sg365
F0.0008576329331046312
sg547
F0.004859919954259577
sg238
F0.0011435105774728416
sg240
F0.001429388221841052
sg241
F0.0008576329331046312
sg680
F0.0031446540880503146
sg460
F0.0002858776443682104
sg285
F0.002001143510577473
sg252
F0.0002858776443682104
sg301
F0.0002858776443682104
sg548
F0.0011435105774728416
sg374
F0.0011435105774728416
sg549
F0.002858776443682104
sg490
F0.0002858776443682104
sg682
F0.0011435105774728416
sg294
F0.004288164665523156
sg481
F0.002001143510577473
sg445
F0.001429388221841052
sg535
F0.0008576329331046312
sg299
F0.0002858776443682104
sg554
F0.002287021154945683
sg5
F0.0002858776443682104
sg52
F0.002287021154945683
sg34
F0.0005717552887364208
sg16
F0.0002858776443682104
sg17
F0.00686106346483705
sg25
F0.002572898799313894
sg436
F0.004288164665523156
sg446
F0.0002858776443682104
sg277
F0.0002858776443682104
sg40
F0.0011435105774728416
sg317
F0.0005717552887364208
sg42
F0.0002858776443682104
sg236
F0.0011435105774728416
sS'civilian'
p725
F0.004002287021154946
sg467
F0.0002858776443682104
sg617
F0.001429388221841052
sg400
F0.0005717552887364208
sg560
F0.0005717552887364208
sg684
F0.0002858776443682104
sg401
F0.0005717552887364208
sg76
F0.0005717552887364208
sS'Authority'
p726
F0.004002287021154946
sg423
F0.003430531732418525
sg466
F0.003430531732418525
sg81
F0.002287021154945683
sg270
F0.001429388221841052
sg84
F0.002287021154945683
sg561
F0.0002858776443682104
sg654
F0.003430531732418525
sg97
F0.004002287021154946
sg98
F0.003430531732418525
sg274
F0.002858776443682104
sg564
F0.0008576329331046312
sg340
F0.0011435105774728416
sg112
F0.0008576329331046312
sS'evacuation'
p727
F0.003430531732418525
sg342
F0.0002858776443682104
sg461
F0.0008576329331046312
sg422
F0.002287021154945683
sg685
F0.0002858776443682104
sg686
F0.002001143510577473
sg566
F0.002572898799313894
sg424
F0.0002858776443682104
sg162
F0.0008576329331046312
sg428
F0.0011435105774728416
sg137
F0.006003430531732418
sS'enormous'
p728
F0.002572898799313894
sg140
F0.004288164665523156
sg11
F0.002572898799313894
sg434
F0.002858776443682104
sg472
F0.0017152658662092624
sg160
F0.008576329331046312
sg351
F0.0011435105774728416
sg165
F0.0005717552887364208
sg559
F0.00714694110920526
sg689
F0.002572898799313894
sg569
F0.0008576329331046312
sg129
F0.0008576329331046312
sg570
F0.0037164093767867354
sg181
F0.0011435105774728416
sg184
F0.0002858776443682104
sg172
F0.0005717552887364208
sg187
F0.002001143510577473
sg691
F0.005145797598627788
sg289
F0.0005717552887364208
sg699
F0.007432818753573471
sg536
F0.001429388221841052
sg573
F0.002572898799313894
sg506
F0.004859919954259577
sg585
F0.0002858776443682104
sg71
F0.002858776443682104
sg692
F0.002287021154945683
sg219
F0.0005717552887364208
sg575
F0.0137221269296741
sg662
F0.0031446540880503146
sg229
F0.003430531732418525
sg693
F0.001429388221841052
sg457
F0.0011435105774728416
sg245
F0.0011435105774728416
sg246
F0.0005717552887364208
sg576
F0.0005717552887364208
sg695
F0.0017152658662092624
sg369
F0.004574042309891366
sg464
F0.0005717552887364208
sg408
F0.001429388221841052
sg265
F0.0002858776443682104
sg266
F0.0002858776443682104
sg697
F0.003430531732418525
sg220
F0.004288164665523156
sg278
F0.0008576329331046312
sg136
F0.002572898799313894
sg578
F0.001429388221841052
sg169
F0.004002287021154946
sg286
F0.023156089193825044
sg288
F0.0002858776443682104
sg291
F0.0002858776443682104
sg295
F0.09519725557461406
sg296
F0.002001143510577473
sg297
F0.0005717552887364208
sg304
F0.0002858776443682104
sg53
F0.0002858776443682104
sg308
F0.002572898799313894
sg2
F0.0065751858204688395
sg312
F0.0011435105774728416
sg582
F0.003430531732418525
sg313
F0.0005717552887364208
sg583
F0.0005717552887364208
sg584
F0.0002858776443682104
sg516
F0.0002858776443682104
sg41
F0.001429388221841052
sg43
F0.005145797598627788
sg396
F0.0011435105774728416
sg586
F0.0011435105774728416
sg114
F0.0017152658662092624
sg59
F0.0008576329331046312
sg393
F0.0011435105774728416
sg361
F0.0002858776443682104
sg68
F0.002572898799313894
sg69
F0.0002858776443682104
sg70
F0.0002858776443682104
sg655
F0.0005717552887364208
sg75
F0.0011435105774728416
sg158
F0.0008576329331046312
sg82
F0.0005717552887364208
sg83
F0.004859919954259577
sg591
F0.0002858776443682104
sg332
F0.002858776443682104
sg86
F0.0011435105774728416
sg592
F0.0011435105774728416
sg93
F0.0017152658662092624
sg79
F0.001429388221841052
sg175
F0.0017152658662092624
sg417
F0.002858776443682104
sg116
F0.009148084619782733
sg594
F0.0005717552887364208
sS'aircraft'
p729
F0.002858776443682104
sg427
F0.0008576329331046312
sg716
F0.002858776443682104
sS'hours'
p730
F0.003430531732418525
sg139
F0.0011435105774728416
sg348
F0.0005717552887364208
sg144
F0.004288164665523156
sg133
F0.0017152658662092624
sS'annual'
p731
F0.003430531732418525
sg148
F0.0011435105774728416
sS'long-term'
p732
F0.002287021154945683
sg161
F0.002287021154945683
sg163
F0.0011435105774728416
sg596
F0.0002858776443682104
sg166
F0.0031446540880503146
sg439
F0.0011435105774728416
sg135
F0.0002858776443682104
sg180
F0.003430531732418525
sS'monthly'
p733
F0.004002287021154946
sg444
F0.0031446540880503146
sS'due'
p734
F0.0005717552887364208
sg185
F0.002572898799313894
sg702
F0.002287021154945683
sg201
F0.002858776443682104
sg191
F0.0002858776443682104
sg599
F0.0017152658662092624
sg200
F0.0005717552887364208
sg600
F0.0037164093767867354
sg138
F0.0037164093767867354
sg203
F0.0002858776443682104
sg703
F0.002572898799313894
sg206
F0.0002858776443682104
sg207
F0.002287021154945683
sg601
F0.0017152658662092624
sg210
F0.0011435105774728416
sg605
F0.0005717552887364208
sg704
F0.0008576329331046312
sg221
F0.002858776443682104
sg222
F0.002858776443682104
sg432
F0.002287021154945683
sg51
F0.0011435105774728416
sg456
F0.0005717552887364208
sg433
F0.001429388221841052
sg609
F0.0031446540880503146
sg242
F0.0011435105774728416
sg94
F0.0005717552887364208
sg250
F0.0002858776443682104
sg707
F0.0008576329331046312
sg254
F0.002287021154945683
sg368
F0.0005717552887364208
sg392
F0.0011435105774728416
sg614
F0.004002287021154946
sS'injured'
p735
F0.004574042309891366
sg708
F0.0017152658662092624
sg709
F0.004002287021154946
sg275
F0.0002858776443682104
sg142
F0.010005717552887363
sg150
F0.0002858776443682104
sg504
F0.0005717552887364208
sg618
F0.001429388221841052
sg476
F0.0008576329331046312
sg290
F0.0005717552887364208
sg399
F0.003430531732418525
sg577
F0.003430531732418525
sS'person'
p736
F0.0037164093767867354
sg370
F0.0017152658662092624
sg620
F0.0065751858204688395
sg283
F0.0005717552887364208
sg580
F0.0002858776443682104
sg622
F0.002858776443682104
sg623
F0.0005717552887364208
sg18
F0.002858776443682104
sg95
F0.0002858776443682104
sg711
F0.0011435105774728416
sg624
F0.0002858776443682104
sg101
F0.002001143510577473
sg263
F0.0008576329331046312
sg625
F0.0011435105774728416
sg626
F0.0002858776443682104
sg256
F0.015437392795883362
sg6
F0.0008576329331046312
sg394
F0.0037164093767867354
sg45
F0.0011435105774728416
sg712
F0.002001143510577473
sg244
F0.0002858776443682104
sg320
F0.008004574042309892
sg628
F0.002572898799313894
sg50
F0.0017152658662092624
sg57
F0.002858776443682104
sg323
F0.0005717552887364208
sg324
F0.0002858776443682104
sg607
F0.0002858776443682104
sg63
F0.006003430531732418
sg67
F0.001429388221841052
sg630
F0.0002858776443682104
sg330
F0.0011435105774728416
sg74
F0.0002858776443682104
sg78
F0.002287021154945683
sg631
F0.0002858776443682104
sg410
F0.002287021154945683
sg85
F0.010291595197255575
sg88
F0.0002858776443682104
sS'home'
p737
F0.003430531732418525
sg634
F0.0011435105774728416
sg336
F0.002572898799313894
sg635
F0.0065751858204688395
sg414
F0.001429388221841052
sg106
F0.0002858776443682104
sS'unit'
p738
F0.003430531732418525
sg636
F0.0005717552887364208
sg501
F0.013150371640937679
sg99
F0.0011435105774728416
sg124
F0.001429388221841052
sS'&amp;'
p739
F0.002858776443682104
sg347
F0.0002858776443682104
sg141
F0.003430531732418525
sS'costs'
p740
F0.012578616352201259
sg640
F0.0008576329331046312
sg597
F0.002572898799313894
sg153
F0.001429388221841052
sg438
F0.0002858776443682104
sg642
F0.0017152658662092624
sg715
F0.004859919954259577
sg473
F0.0005717552887364208
sg15
F0.002001143510577473
sg645
F0.0011435105774728416
sg646
F0.002001143510577473
sg647
F0.00686106346483705
sg104
F0.008576329331046312
sg357
F0.0011435105774728416
sg192
F0.0008576329331046312
sg190
F0.0005717552887364208
sg649
F0.001429388221841052
sg650
F0.0005717552887364208
sg450
F0.0005717552887364208
sg205
F0.0011435105774728416
sg193
F0.002287021154945683
sg226
F0.0017152658662092624
sg228
F0.0008576329331046312
sg231
F0.0002858776443682104
sg152
F0.002572898799313894
sg717
F0.0008576329331046312
sg170
F0.0002858776443682104
sg364
F0.0002858776443682104
sg212
F0.002287021154945683
sg652
F0.004002287021154946
sg718
F0.018010291595197257
sg653
F0.001429388221841052
sg515
F0.01400800457404231
sg202
F0.0017152658662092624
sg258
F0.0002858776443682104
sg656
F0.002858776443682104
sg264
F0.001429388221841052
sg719
F0.002001143510577473
sg657
F0.0005717552887364208
sg658
F0.0011435105774728416
sg665
F0.0008576329331046312
sg276
F0.0005717552887364208
sg660
F0.002001143510577473
sg35
F0.0005717552887364208
sg284
F0.004574042309891366
sg474
F0.0002858776443682104
sg661
F0.0002858776443682104
sg452
F0.0008576329331046312
sg292
F0.0005717552887364208
sg663
F0.0002858776443682104
sg235
F0.004574042309891366
sg239
F0.001429388221841052
sg664
F0.002001143510577473
sg303
F0.001429388221841052
sg305
F0.0008576329331046312
sg307
F0.0002858776443682104
ssI8
(dp741
g554
F0.007736943907156673
sg3
F0.003223726627981947
sg4
F0.012250161186331399
sg519
F0.0025789813023855577
sg622
F0.0019342359767891683
sg6
F0.005802707930367505
sg623
F0.0012894906511927789
sg668
F0.0012894906511927789
sg10
F0.004513217279174726
sg387
F0.0012894906511927789
sg556
F0.0006447453255963894
sg581
F0.0025789813023855577
sg17
F0.004513217279174726
sg18
F0.008381689232753063
sg521
F0.0025789813023855577
sg522
F0.003223726627981947
sg389
F0.0070921985815602835
sg107
F0.015473887814313346
sg524
F0.003223726627981947
sg5
F0.0012894906511927789
sg340
F0.0025789813023855577
sg24
F0.0006447453255963894
sg583
F0.0019342359767891683
sg352
F0.004513217279174726
sg259
F0.005802707930367505
sg28
F0.0012894906511927789
sg29
F0.0025789813023855577
sg161
F0.0025789813023855577
sg527
F0.0038684719535783366
sg77
F0.0025789813023855577
sg37
F0.0025789813023855577
sg627
F0.003223726627981947
sg39
F0.0012894906511927789
sg40
F0.0019342359767891683
sg317
F0.0012894906511927789
sg705
F0.003223726627981947
sg394
F0.0012894906511927789
sg224
F0.0051579626047711154
sg46
F0.0019342359767891683
sg47
F0.0012894906511927789
sg244
F0.0012894906511927789
sg558
F0.01160541586073501
sg628
F0.0006447453255963894
sg50
F0.0012894906511927789
sg397
F0.0012894906511927789
sg52
F0.0006447453255963894
sg467
F0.0012894906511927789
sg327
F0.0012894906511927789
sg85
F0.0012894906511927789
sg636
F0.0012894906511927789
sg617
F0.0012894906511927789
sg57
F0.0006447453255963894
sg586
F0.003223726627981947
sg515
F0.004513217279174726
sg399
F0.0012894906511927789
sg400
F0.007736943907156673
sg324
F0.0051579626047711154
sg607
F0.0051579626047711154
sg684
F0.0025789813023855577
sg391
F0.006447453255963894
sg62
F0.0025789813023855577
sg63
F0.0012894906511927789
sg64
F0.0038684719535783366
sg702
F0.0006447453255963894
sg68
F0.0038684719535783366
sg548
F0.0012894906511927789
sg70
F0.0006447453255963894
sg21
F0.004513217279174726
sg330
F0.0012894906511927789
sg74
F0.0012894906511927789
sg75
F0.003223726627981947
sg407
F0.0070921985815602835
sg69
F0.0012894906511927789
sg529
F0.008381689232753063
sg621
F0.0025789813023855577
sg269
F0.0019342359767891683
sg590
F0.0006447453255963894
sg81
F0.0012894906511927789
sg83
F0.007736943907156673
sg84
F0.0012894906511927789
sg591
F0.0051579626047711154
sg332
F0.0070921985815602835
sg313
F0.0012894906511927789
sg485
F0.009026434558349452
sg333
F0.0006447453255963894
sg87
F0.0006447453255963894
sg562
F0.0012894906511927789
sg89
F0.0012894906511927789
sg90
F0.0038684719535783366
sg91
F0.0006447453255963894
sg412
F0.008381689232753063
sg93
F0.008381689232753063
sg135
F0.0012894906511927789
sg366
F0.0038684719535783366
sg120
F0.0038684719535783366
sg96
F0.0025789813023855577
sg98
F0.004513217279174726
sg51
F0.0006447453255963894
sg100
F0.0006447453255963894
sg421
F0.010315925209542231
sg102
F0.0038684719535783366
sg414
F0.005802707930367505
sg415
F0.0012894906511927789
sg416
F0.016118633139909737
sg105
F0.0019342359767891683
sg123
F0.0012894906511927789
sg106
F0.0012894906511927789
sg624
F0.0012894906511927789
sg108
F0.0006447453255963894
sg109
F0.0012894906511927789
sg111
F0.01096067053513862
sg112
F0.0006447453255963894
sg738
F0.0025789813023855577
sg342
F0.003223726627981947
sg38
F0.0006447453255963894
sg611
F0.009671179883945842
sg115
F0.003223726627981947
sg461
F0.0006447453255963894
sg534
F0.0038684719535783366
sg118
F0.0006447453255963894
sg220
F0.0038684719535783366
sg501
F0.0019342359767891683
sg99
F0.01160541586073501
sg122
F0.0006447453255963894
sg535
F0.0006447453255963894
sg685
F0.0012894906511927789
sg594
F0.003223726627981947
sg126
F0.0025789813023855577
sg566
F0.0025789813023855577
sg686
F0.0012894906511927789
sg425
F0.0019342359767891683
sg606
F0.0006447453255963894
sg729
F0.0012894906511927789
sg129
F0.0051579626047711154
sg284
F0.0012894906511927789
sg131
F0.0019342359767891683
sg676
F0.0019342359767891683
sg428
F0.0006447453255963894
sg133
F0.0025789813023855577
sg739
F0.0012894906511927789
sg127
F0.0051579626047711154
sg430
F0.0025789813023855577
sg137
F0.0025789813023855577
sg567
F0.0019342359767891683
sg728
F0.0019342359767891683
sg347
F0.0019342359767891683
sg140
F0.0012894906511927789
sg570
F0.0006447453255963894
sg431
F0.0006447453255963894
sg279
F0.01160541586073501
sg538
F0.0019342359767891683
sg432
F0.0012894906511927789
sg568
F0.0025789813023855577
sg180
F0.0019342359767891683
sg256
F0.012250161186331399
sg147
F0.0012894906511927789
sg43
F0.0019342359767891683
sg142
F0.0006447453255963894
sg150
F0.0025789813023855577
sg151
F0.0006447453255963894
sg153
F0.0025789813023855577
sg550
F0.0006447453255963894
sg437
F0.0025789813023855577
sg438
F0.0019342359767891683
sg157
F0.0019342359767891683
sg643
F0.007736943907156673
sg423
F0.0006447453255963894
sg376
F0.004513217279174726
sg351
F0.003223726627981947
sg595
F0.0051579626047711154
sg263
F0.0019342359767891683
sg23
F0.0012894906511927789
sg565
F0.009671179883945842
sg559
F0.0025789813023855577
sg487
F0.0012894906511927789
sg724
F0.004513217279174726
sg441
F0.0019342359767891683
sg354
F0.0012894906511927789
sg569
F0.004513217279174726
sg177
F0.0006447453255963894
sg561
F0.0025789813023855577
sg690
F0.0012894906511927789
sg646
F0.0012894906511927789
sg687
F0.0012894906511927789
sg647
F0.0006447453255963894
sg104
F0.0012894906511927789
sg490
F0.0006447453255963894
sg444
F0.0012894906511927789
sg734
F0.007736943907156673
sg187
F0.0012894906511927789
sg543
F0.004513217279174726
sg633
F0.0012894906511927789
sg189
F0.0012894906511927789
sg201
F0.0012894906511927789
sg191
F0.0006447453255963894
sg536
F0.0025789813023855577
sg691
F0.0006447453255963894
sg193
F0.009671179883945842
sg194
F0.0025789813023855577
sg537
F0.0012894906511927789
sS'exposures'
p742
F0.007736943907156673
sg212
F0.0006447453255963894
sg649
F0.0012894906511927789
sg203
F0.003223726627981947
sg450
F0.0006447453255963894
sg205
F0.005802707930367505
sg656
F0.0006447453255963894
sg510
F0.0025789813023855577
sg206
F0.012894906511927788
sg451
F0.01160541586073501
sg290
F0.0025789813023855577
sg305
F0.0012894906511927789
sg603
F0.0006447453255963894
sg496
F0.0019342359767891683
sg211
F0.0012894906511927789
sg674
F0.01096067053513862
sg609
F0.0012894906511927789
sS'Chernobyl'
p743
F0.006447453255963894
sg213
F0.006447453255963894
sg453
F0.006447453255963894
sg478
F0.005802707930367505
sg216
F0.0025789813023855577
sg545
F0.0006447453255963894
sg692
F0.0012894906511927789
sg219
F0.0012894906511927789
sg221
F0.0006447453255963894
sg143
F0.0051579626047711154
sg575
F0.0006447453255963894
sg223
F0.0025789813023855577
sg121
F0.0006447453255963894
sg227
F0.003223726627981947
sg716
F0.003223726627981947
sg229
F0.0006447453255963894
sg638
F0.0012894906511927789
sg233
F0.0019342359767891683
sg234
F0.0038684719535783366
sg717
F0.0006447453255963894
sg170
F0.0012894906511927789
sg679
F0.0006447453255963894
sg365
F0.0012894906511927789
sg693
F0.005802707930367505
sg238
F0.0025789813023855577
sg297
F0.007736943907156673
sg240
F0.0006447453255963894
sg295
F0.05609284332688588
sg237
F0.0012894906511927789
sg242
F0.0019342359767891683
sg243
F0.0019342359767891683
sg457
F0.006447453255963894
sg458
F0.0019342359767891683
sg694
F0.0025789813023855577
sg320
F0.0019342359767891683
sg460
F0.0025789813023855577
sg250
F0.0012894906511927789
sg251
F0.0006447453255963894
sg254
F0.0012894906511927789
sg396
F0.0012894906511927789
sg612
F0.009671179883945842
sg700
F0.0070921985815602835
sg369
F0.0051579626047711154
sg260
F0.0012894906511927789
sg261
F0.003223726627981947
sg465
F0.0012894906511927789
sg264
F0.0012894906511927789
sg350
F0.0012894906511927789
sg653
F0.006447453255963894
sg697
F0.005802707930367505
sg732
F0.0025789813023855577
sg466
F0.0019342359767891683
sg270
F0.005802707930367505
sg615
F0.0025789813023855577
sg373
F0.0012894906511927789
sg175
F0.0019342359767891683
sg273
F0.003223726627981947
sg274
F0.0019342359767891683
sg659
F0.0012894906511927789
sg470
F0.0006447453255963894
sg275
F0.0012894906511927789
sg276
F0.0025789813023855577
sg277
F0.003223726627981947
sg472
F0.0038684719535783366
sg375
F0.0012894906511927789
sg660
F0.0019342359767891683
sg578
F0.0012894906511927789
sg322
F0.0012894906511927789
sg539
F0.0006447453255963894
sg377
F0.0025789813023855577
sg285
F0.0012894906511927789
sg286
F0.012894906511927788
sg287
F0.0012894906511927789
sg288
F0.0051579626047711154
sg476
F0.0019342359767891683
sg500
F0.0019342359767891683
sg651
F0.0025789813023855577
sg682
F0.0051579626047711154
sg452
F0.003223726627981947
sg579
F0.003223726627981947
sg76
F0.0006447453255963894
sg663
F0.006447453255963894
sg235
F0.0006447453255963894
sg378
F0.0006447453255963894
sg480
F0.0012894906511927789
sg664
F0.003223726627981947
sg202
F0.0019342359767891683
sg736
F0.0006447453255963894
sg381
F0.0019342359767891683
sg740
F0.0012894906511927789
sg309
F0.0070921985815602835
sg620
F0.0012894906511927789
sg155
F0.006447453255963894
sg580
F0.0012894906511927789
ss.