(dp0
I1
(dp1
S'childs'
p2
F0.013140604467805518
sS'well-being'
p3
F0.0004380201489268506
sS'committed'
p4
F0.0008760402978537013
sS'children'
p5
F0.010074463425317565
sS'young'
p6
F0.0004380201489268506
sS'opportunities'
p7
F0.001314060446780552
sS'social_#3'
p8
F0.030661410424879545
sS'environment'
p9
F0.0008760402978537013
sS'policy'
p10
F0.0004380201489268506
sS'adequate'
p11
F0.018834866403854577
sS'administrative'
p12
F0.008760402978537012
sS'childs_#-2'
p13
F0.006570302233902759
sS'diseases'
p14
F0.0017520805957074025
sS'means'
p15
F0.0004380201489268506
sS'food'
p16
F0.010950503723171266
sS'safe'
p17
F0.0056942619360490585
sS'primary'
p18
F0.002628120893561104
sS'cultural'
p19
F0.0008760402978537013
sS'effects'
p20
F0.0004380201489268506
sS'schools'
p21
F0.0004380201489268506
sS'provision'
p22
F0.002628120893561104
sS'countries'
p23
F0.002190100744634253
sS'fully'
p24
F0.004818221638195357
sS'performing'
p25
F0.017520805957074025
sS'standards'
p26
F0.002628120893561104
sS'spiritual'
p27
F0.043802014892685065
sS'mental'
p28
F0.039859833552343404
sS'consistent'
p29
F0.005256241787122208
sS'likely'
p30
F0.019272886552781428
sS'economic'
p31
F0.02146298729741568
sS'living'
p32
F0.012702584318878668
sS'reform'
p33
F0.0004380201489268506
sS'access'
p34
F0.008322382829610162
sS'future'
p35
F0.003504161191414805
sS'health'
p36
F0.017082785808147174
sS'spiritual_#1'
p37
F0.03679369250985545
sS'international'
p38
F0.001314060446780552
sS'full'
p39
F0.0004380201489268506
sS'Calls'
p40
F0.005256241787122208
sS'Rights'
p41
F0.008322382829610162
sS'free'
p42
F0.005256241787122208
sS'interfere'
p43
F0.018396846254927726
sS'protection'
p44
F0.01357862461673237
sS'child_#-3'
p45
F0.017520805957074025
sS'article'
p46
F0.008760402978537012
sS'standard'
p47
F0.012264564169951819
sS'protect'
p48
F0.001314060446780552
sS'equal'
p49
F0.002628120893561104
sS'adequate_#-3'
p50
F0.008760402978537012
sS'ensure'
p51
F0.010074463425317565
sS'social'
p52
F0.045116075339465614
sS'childhood'
p53
F0.0008760402978537013
sS'physical_#-1'
p54
F0.04292597459483136
sS'family'
p55
F0.0004380201489268506
sS'number'
p56
F0.0017520805957074025
sS'psychological'
p57
F0.0004380201489268506
sS'moral'
p58
F0.03504161191414805
sS'armed'
p59
F0.0004380201489268506
sS'legislative'
p60
F0.00788436268068331
sS'adopted'
p61
F0.003942181340341655
sS'live'
p62
F0.0017520805957074025
sS'Child'
p63
F0.008760402978537012
sS'Governments'
p64
F0.005256241787122208
sS'hazardous'
p65
F0.019272886552781428
sS'training'
p66
F0.0008760402978537013
sS'child'
p67
F0.058694699956197985
sS'women'
p68
F0.0004380201489268506
sS'developing'
p69
F0.001314060446780552
sS'protected'
p70
F0.010950503723171266
sS'health_#-2'
p71
F0.018396846254927726
sS'emotional'
p72
F0.0017520805957074025
sS'recognize'
p73
F0.007446342531756461
sS'universal'
p74
F0.002628120893561104
sS'moral_#2'
p75
F0.032413491020586944
sS'Convention'
p76
F0.012264564169951819
sS'need'
p77
F0.002190100744634253
sS'aspects'
p78
F0.0030661410424879547
sS'education'
p79
F0.030223390275952694
sS'vulnerable'
p80
F0.0004380201489268506
sS'physical'
p81
F0.04467805519053877
sS'exploitation'
p82
F0.019272886552781428
sS'educational'
p83
F0.007446342531756461
sS'develop'
p84
F0.003942181340341655
sS'able'
p85
F0.004818221638195357
sS'maintain_#-2'
p86
F0.004380201489268506
sS'development_#2'
p87
F0.0008760402978537013
sS'development'
p88
F0.039859833552343404
sS'information'
p89
F0.0004380201489268506
sS'measures'
p90
F0.010950503723171266
sS'harmful'
p91
F0.02014892685063513
sS'The'
p92
F0.007446342531756461
sS'States'
p93
F0.003504161191414805
sS'maintain'
p94
F0.006132282084975909
sS'fact'
p95
F0.001314060446780552
ssI2
(dp96
S'disabled'
p97
F0.0014570179698882952
sS'including'
p98
F0.021855269548324428
sS'human'
p99
F0.009227780475959204
sg5
F0.014570179698882952
sS'promote'
p100
F0.001942690626517727
sS'group'
p101
F0.00048567265662943174
sS'concerned'
p102
F0.006313744536182613
sS'disability'
p103
F0.005342399222923749
sg6
F0.00825643516270034
sg7
F0.007285089849441476
sS'forms'
p104
F0.015541525012141816
sS'treatment'
p105
F0.0024283632831471587
sS'stability'
p106
F0.0009713453132588635
sg10
F0.0029140359397765905
sg11
F0.00048567265662943174
sS'include'
p107
F0.003399708596406022
sg78
F0.0024283632831471587
sg14
F0.00048567265662943174
sS'torture'
p108
F0.001942690626517727
sg16
F0.001942690626517727
sS'material'
p109
F0.001942690626517727
sg18
F0.005828071879553181
sS'early'
p110
F0.005828071879553181
sg19
F0.0048567265662943174
sS'therapy'
p111
F0.005828071879553181
sg20
F0.0048567265662943174
sg21
F0.00048567265662943174
sg22
F0.0029140359397765905
sS'areas'
p112
F0.0024283632831471587
sS'understanding'
p113
F0.003399708596406022
sS'health_#1'
p114
F0.03933948518698397
sS'mothers'
p115
F0.0048567265662943174
sg23
F0.0024283632831471587
sg26
F0.005342399222923749
sg3
F0.005828071879553181
sS'view'
p116
F0.001942690626517727
sS'harm'
p117
F0.0014570179698882952
sg28
F0.054881010199125786
sS'national'
p118
F0.014084507042253521
sS'elderly'
p119
F0.003885381253035454
sS'society'
p120
F0.0014570179698882952
sS'defense'
p121
F0.0009713453132588635
sS'result'
p122
F0.0048567265662943174
sS'girl'
p123
F0.009713453132588635
sS'programmes'
p124
F0.011656143759106362
sS'sexual'
p125
F0.026226323457989316
sS'special'
p126
F0.00048567265662943174
sS'subject'
p127
F0.0029140359397765905
sg32
F0.0009713453132588635
sS'workers'
p128
F0.003399708596406022
sS'Government'
p129
F0.0014570179698882952
sS'quality'
p130
F0.007285089849441476
sS'assistance'
p131
F0.004371053909664886
sg34
F0.018455560951918408
sg70
F0.0009713453132588635
sg36
F0.07916464303059738
sg38
F0.012627489072365225
sS'conditions'
p132
F0.0024283632831471587
sS'public'
p133
F0.00048567265662943174
sg39
F0.003399708596406022
sS'patient'
p134
F0.0029140359397765905
sg40
F0.0009713453132588635
sS'nature'
p135
F0.0009713453132588635
sg42
F0.0009713453132588635
sg47
F0.006799417192812044
sS'regional'
p136
F0.003399708596406022
sS'situation'
p137
F0.003399708596406022
sg46
F0.00048567265662943174
sS'strong'
p138
F0.00048567265662943174
sS'care'
p139
F0.01942690626517727
sg48
F0.003885381253035454
sS'disabilities'
p140
F0.005828071879553181
sS'violence'
p141
F0.021369596891694997
sg82
F0.012627489072365225
sS'amount'
p142
F0.00048567265662943174
sS'levels'
p143
F0.003885381253035454
sg51
F0.005342399222923749
sS'Committee'
p144
F0.0048567265662943174
sg52
F0.014570179698882952
sg53
F0.0048567265662943174
sg54
F0.045167557066537155
sS'legislation'
p145
F0.0029140359397765905
sg56
F0.00048567265662943174
sg57
F0.006799417192812044
sS'aimed'
p146
F0.005828071879553181
sS'female'
p147
F0.007770762506070908
sg59
F0.0009713453132588635
sS'discrimination'
p148
F0.010199125789218067
sS'girls'
p149
F0.015541525012141816
sg61
F0.0014570179698882952
sg62
F0.0024283632831471587
sS'basic'
p150
F0.00048567265662943174
sg64
F0.0048567265662943174
sg66
F0.0009713453132588635
sS'bodily'
p151
F0.001942690626517727
sg67
F0.014570179698882952
sS'attainable'
p152
F0.006799417192812044
sS'highest'
p153
F0.010684798445847498
sS'spirit'
p154
F0.00048567265662943174
sS'Falungong'
p155
F0.00048567265662943174
sg68
F0.01894123360854784
sS'abuse_#3'
p156
F0.006313744536182613
sS'standard_#-2'
p157
F0.005828071879553181
sS'matter'
p158
F0.0009713453132588635
sg31
F0.012627489072365225
sg71
F0.0009713453132588635
sS'meet'
p159
F0.006313744536182613
sS'age'
p160
F0.006313744536182613
sS'illness'
p161
F0.004371053909664886
sS'strengthen'
p162
F0.0024283632831471587
sg73
F0.00048567265662943174
sg74
F0.003399708596406022
sS'general'
p163
F0.001942690626517727
sg77
F0.0009713453132588635
sS'victims'
p164
F0.005828071879553181
sg79
F0.012141816415735794
sg80
F0.00048567265662943174
sg81
F0.0398251578436134
sg89
F0.0048567265662943174
sg83
F0.0009713453132588635
sg84
F0.00048567265662943174
sg85
F0.00048567265662943174
sS'practice'
p165
F0.00048567265662943174
sS'attend'
p166
F0.003885381253035454
sS'enjoyment'
p167
F0.005828071879553181
sg90
F0.001942690626517727
sS'problems'
p168
F0.0029140359397765905
sS'needs'
p169
F0.013598834385624089
sg91
F0.003885381253035454
sS'persons'
p170
F0.00048567265662943174
sS'abuse'
p171
F0.014084507042253521
sS'services'
p172
F0.015541525012141816
sg92
F0.009713453132588635
sS'rights'
p173
F0.02428363283147159
sg17
F0.00048567265662943174
sS'especially'
p174
F0.0048567265662943174
sS'medical'
p175
F0.00048567265662943174
sS'attainable_#-3'
p176
F0.005828071879553181
sS'suffering'
p177
F0.00048567265662943174
sS'order'
p178
F0.00048567265662943174
sg93
F0.006799417192812044
sS'person'
p179
F0.00048567265662943174
sS'practices'
p180
F0.006313744536182613
sS'institutions'
p181
F0.0029140359397765905
sg95
F0.003885381253035454
ssI3
(dp182
S'developed'
p183
F0.006695069993913573
sg114
F0.0006086427267194157
sg99
F0.016433353621424222
sg4
F0.00426049908703591
sS'religious'
p184
F0.006086427267194157
sg5
F0.0006086427267194157
sg173
F0.002434570906877663
sg101
F0.006086427267194157
sS'knowledge'
p185
F0.005477784540474742
sg128
F0.0018259281801582471
sg6
F0.0012172854534388314
sg104
F0.0006086427267194157
sg105
F0.01582471089470481
sg10
F0.0018259281801582471
sg11
F0.0012172854534388314
sg107
F0.0030432136335970784
sS'activities'
p186
F0.009738283627510651
sg14
F0.01278149726110773
sg108
F0.00426049908703591
sg15
F0.006086427267194157
sg137
F0.012172854534388313
sg109
F0.014607425441265977
sg19
F0.006086427267194157
sS'party'
p187
F0.01582471089470481
sg112
F0.004869141813755326
sg106
F0.004869141813755326
sS'level'
p188
F0.009738283627510651
sg132
F0.012172854534388313
sg23
F0.0030432136335970784
sg24
F0.002434570906877663
sg117
F0.004869141813755326
sg28
F0.12172854534388314
sg118
F0.005477784540474742
sg119
F0.0012172854534388314
sS'culture'
p189
F0.012172854534388313
sg121
F0.007303712720632989
sg122
F0.0036518563603164943
sS'terms'
p190
F0.006086427267194157
sS'scientific'
p191
F0.006695069993913573
sg32
F0.0012172854534388314
sg129
F0.0018259281801582471
sg130
F0.012172854534388313
sg34
F0.0006086427267194157
sS'punishment'
p192
F0.0030432136335970784
sS'China'
p193
F0.009129640900791236
sg38
F0.00426049908703591
sS'issue'
p194
F0.007303712720632989
sg133
F0.004869141813755326
sS'outlook_#1'
p195
F0.012172854534388313
sg134
F0.004869141813755326
sS'ability'
p196
F0.007303712720632989
sg135
F0.007303712720632989
sS'This'
p197
F0.00852099817407182
sS'activity'
p198
F0.007912355447352405
sg42
F0.002434570906877663
sg113
F0.00426049908703591
sS'cadres'
p199
F0.015216068167985392
sg136
F0.0030432136335970784
sS'members'
p200
F0.006086427267194157
sg159
F0.0006086427267194157
sg46
F0.0018259281801582471
sg138
F0.007303712720632989
sS'suffering_#-2'
p201
F0.007303712720632989
sg66
F0.0030432136335970784
sS'Chinese'
p202
F0.012172854534388313
sS'country'
p203
F0.007303712720632989
sS'study'
p204
F0.007912355447352405
sg142
F0.002434570906877663
sg143
F0.002434570906877663
sg31
F0.0006086427267194157
sS'military'
p205
F0.01582471089470481
sS'efforts'
p206
F0.002434570906877663
sS'physical_#1'
p207
F0.0012172854534388314
sS'outlook'
p208
F0.012172854534388313
sg54
F0.016433353621424222
sg56
F0.0006086427267194157
sg58
F0.009738283627510651
sg59
F0.01278149726110773
sg60
F0.0012172854534388314
sg9
F0.0018259281801582471
sS'practitioners'
p209
F0.00852099817407182
sS'leading'
p210
F0.006695069993913573
sS'political'
p211
F0.019476567255021303
sS'attack'
p212
F0.0036518563603164943
sS'forward'
p213
F0.007303712720632989
sg151
F0.00426049908703591
sS'construction'
p214
F0.007303712720632989
sS'lives'
p215
F0.005477784540474742
sg100
F0.0018259281801582471
sg154
F0.009129640900791236
sg155
F0.010346926354230066
sS'population'
p216
F0.006695069993913573
sg69
F0.006086427267194157
sS'socialist'
p217
F0.00852099817407182
sg158
F0.0036518563603164943
sg35
F0.002434570906877663
sg72
F0.006086427267194157
sS'Taiwan'
p218
F0.0012172854534388314
sg175
F0.0006086427267194157
sS'control'
p219
F0.010955569080949483
sg27
F0.0036518563603164943
sS'give'
p220
F0.0006086427267194157
sg162
F0.00426049908703591
sg74
F0.0006086427267194157
sS'modern'
p221
F0.007303712720632989
sg163
F0.0012172854534388314
sg77
F0.0012172854534388314
sg79
F0.004869141813755326
sg81
F0.03164942178940962
sg89
F0.0036518563603164943
sg83
F0.0012172854534388314
sg84
F0.0006086427267194157
sS'causing'
p222
F0.007303712720632989
sS'forces'
p223
F0.015216068167985392
sg51
F0.002434570906877663
sg127
F0.0030432136335970784
sg86
F0.002434570906877663
sg88
F0.006086427267194157
sg165
F0.009738283627510651
sS'comprehensive'
p224
F0.0006086427267194157
sg90
F0.0012172854534388314
sg168
F0.009738283627510651
sg170
F0.009129640900791236
sS'important'
p225
F0.010346926354230066
sg120
F0.007912355447352405
sg92
F0.019476567255021303
sg160
F0.002434570906877663
sg33
F0.009129640900791236
sg177
F0.018867924528301886
sS'element'
p226
F0.00852099817407182
sg179
F0.01278149726110773
sS'severe'
p227
F0.007303712720632989
sg94
F0.00426049908703591
sS'ideological'
p228
F0.016433353621424222
sg178
F0.009738283627510651
sg95
F0.0018259281801582471
ssI4
(dp229
g183
F0.0007930214115781126
sg97
F0.008723235527359239
sg98
F0.013481363996827915
sg99
F0.004758128469468675
sg4
F0.0055511498810467885
sg184
F0.0031720856463124504
sg5
F0.0761300555114988
sg101
F0.0007930214115781126
sg185
F0.0023790642347343376
sg102
F0.0023790642347343376
sg103
F0.0023790642347343376
sg6
F0.007930214115781126
sg7
F0.004758128469468675
sg104
F0.0023790642347343376
sg105
F0.003965107057890563
sg10
F0.0015860428231562252
sg36
F0.004758128469468675
sg68
F0.007930214115781126
sg12
F0.0015860428231562252
sg3
F0.0023790642347343376
sg13
F0.0007930214115781126
sg108
F0.0007930214115781126
sg15
F0.0007930214115781126
sg16
F0.0007930214115781126
sg165
F0.003965107057890563
sg18
F0.004758128469468675
sg19
F0.0015860428231562252
sg111
F0.0015860428231562252
sg20
F0.0007930214115781126
sg21
F0.025376685170499604
sg112
F0.003965107057890563
sg106
F0.0015860428231562252
sS'school'
p230
F0.00951625693893735
sg23
F0.0007930214115781126
sg24
F0.0007930214115781126
sg156
F0.0007930214115781126
sg26
F0.0007930214115781126
sg198
F0.0007930214115781126
sg204
F0.0007930214115781126
sS'Education'
p231
F0.007930214115781126
sg116
F0.007930214115781126
sg117
F0.0007930214115781126
sg28
F0.07137192704203013
sg29
F0.0015860428231562252
sS'welfare'
p232
F0.011102299762093577
sg119
F0.0015860428231562252
sg120
F0.017446471054718478
sg115
F0.0015860428231562252
sg126
F0.019825535289452814
sg127
F0.003965107057890563
sg32
F0.01823949246629659
sg128
F0.0015860428231562252
sg129
F0.004758128469468675
sg131
F0.0023790642347343376
sg70
F0.0023790642347343376
sg193
F0.003965107057890563
sg132
F0.0007930214115781126
sg133
F0.010309278350515464
sg39
F0.007930214115781126
sg190
F0.0015860428231562252
sg191
F0.0007930214115781126
sg41
F0.0007930214115781126
sg197
F0.0031720856463124504
sg47
F0.004758128469468675
sg199
F0.0007930214115781126
sg44
F0.0007930214115781126
sg200
F0.0031720856463124504
sg138
F0.003965107057890563
sS'improve'
p233
F0.00951625693893735
sg48
F0.0055511498810467885
sS'healthy'
p234
F0.023790642347343377
sg203
F0.0015860428231562252
sg140
F0.011102299762093577
sg49
F0.004758128469468675
sg142
F0.0055511498810467885
sg171
F0.0007930214115781126
sg51
F0.0031720856463124504
sg144
F0.006344171292624901
sg148
F0.0007930214115781126
sg206
F0.006344171292624901
sg207
F0.022204599524187154
sg54
F0.02696272799365583
sS'groups'
p235
F0.012688342585249802
sg55
F0.019825535289452814
sg56
F0.007930214115781126
sg57
F0.003965107057890563
sg58
F0.0015860428231562252
sg130
F0.0007930214115781126
sg9
F0.011895321173671689
sg210
F0.0007930214115781126
sg145
F0.004758128469468675
sg62
F0.008723235527359239
sg150
F0.008723235527359239
sg66
F0.01506740681998414
sg151
F0.0007930214115781126
sg215
F0.003965107057890563
sg192
F0.0055511498810467885
sg100
F0.003965107057890563
sg154
F0.004758128469468675
sg216
F0.003965107057890563
sg69
F0.0007930214115781126
sg90
F0.0055511498810467885
sg158
F0.0031720856463124504
sg35
F0.0031720856463124504
sg137
F0.0007930214115781126
sg218
F0.004758128469468675
sg160
F0.0007930214115781126
sg52
F0.030927835051546393
sg161
F0.0023790642347343376
sg220
F0.010309278350515464
sg163
F0.004758128469468675
sg77
F0.007137192704203013
sg78
F0.0015860428231562252
sg79
F0.020618556701030927
sg80
F0.00951625693893735
sg81
F0.063441712926249
sg89
F0.0007930214115781126
sg83
F0.01506740681998414
sg84
F0.013481363996827915
sg85
F0.0015860428231562252
sg180
F0.0007930214115781126
sg223
F0.0007930214115781126
sg187
F0.0015860428231562252
sg88
F0.011895321173671689
sg17
F0.0015860428231562252
sg166
F0.0031720856463124504
sS'students'
p236
F0.011102299762093577
sg224
F0.008723235527359239
sg87
F0.011102299762093577
sg168
F0.006344171292624901
sg169
F0.0015860428231562252
sg170
F0.004758128469468675
sg225
F0.0023790642347343376
sg92
F0.02458366375892149
sg174
F0.0015860428231562252
sg175
F0.00951625693893735
sg177
F0.0015860428231562252
sg178
F0.0023790642347343376
sg227
F0.0015860428231562252
sg94
F0.0007930214115781126
sg228
F0.0007930214115781126
sg181
F0.006344171292624901
ss.