(dp0
I1
(dp1
S'limited'
p2
F0.0005593884020137983
sS'Governments_#-2'
p3
F0.0013052396046988625
sS'consider'
p4
F0.0032630990117471564
sS'Governments_#-1'
p5
F0.002424016408726459
sS'global'
p6
F0.0031698676114115232
sS'development_#-1'
p7
F0.00018646280067126608
sS'development_#-3'
p8
F0.00037292560134253216
sS'existing'
p9
F0.0012120082043632296
sS'regional_#-2'
p10
F0.0010255454036919634
sS'regional_#-3'
p11
F9.323140033563304e-05
sS'cooperative'
p12
F0.0013984710050344957
sS'regional_#-1'
p13
F0.00027969420100689915
sS'contributions'
p14
F0.0025172478090620923
sS'terms'
p15
F0.0013052396046988625
sS'concerned'
p16
F0.0041954130151034864
sS'opportunities'
p17
F0.0011187768040275966
sS'environment'
p18
F0.0007458512026850643
sS'concessional'
p19
F0.0007458512026850643
sS'promoting'
p20
F0.0012120082043632296
sS'stable'
p21
F0.0009323140033563305
sS'safety'
p22
F0.0010255454036919634
sS'Programme'
p23
F0.0035427932127540555
sS'resources'
p24
F0.01594256945739325
sS'activities'
p25
F0.0036360246130896887
sS'United_#-3'
p26
F0.0029834048107402573
sS'dynamic'
p27
F9.323140033563304e-05
sS'regional'
p28
F0.011747156442289764
sS'assistance_#-2'
p29
F0.0013052396046988625
sS'emphasized'
p30
F0.00037292560134253216
sS'level'
p31
F0.002610479209397725
sS'companies'
p32
F0.00027969420100689915
sS'standards'
p33
F9.323140033563304e-05
sS'large'
p34
F0.0012120082043632296
sS'session'
p35
F0.002330785008390826
sS'participation'
p36
F0.0015849338057057616
sS'small'
p37
F0.00018646280067126608
sS'enhance'
p38
F0.0006526198023494313
sS'programme'
p39
F0.0032630990117471564
sS'consistent'
p40
F0.00046615700167816523
sS'State'
p41
F0.0005593884020137983
sS'functioning'
p42
F0.0007458512026850643
sS'investment'
p43
F0.0010255454036919634
sS'established'
p44
F0.00037292560134253216
sS'Calls'
p45
F0.004568338616446019
sS'decisions'
p46
F0.00037292560134253216
sS'assistance'
p47
F0.0047548014171172855
sS'current'
p48
F9.323140033563304e-05
sS'capital'
p49
F0.0006526198023494313
sS'international'
p50
F0.018832742867797875
sS'increasing'
p51
F0.0047548014171172855
sS'public'
p52
F0.0016781652060413948
sS'supporting'
p53
F0.0019578594070482937
sS'full'
p54
F0.0010255454036919634
sS'exchange'
p55
F9.323140033563304e-05
sS'commercial'
p56
F0.0015849338057057616
sS'bilateral_#-1'
p57
F0.0063397352228230465
sS'bilateral_#-2'
p58
F9.323140033563304e-05
sS'bilateral_#-3'
p59
F0.00046615700167816523
sS'poverty'
p60
F9.323140033563304e-05
sS'groups'
p61
F0.0005593884020137983
sS'strategies'
p62
F0.002610479209397725
sS'active'
p63
F0.0008390826030206974
sS'strong'
p64
F0.00046615700167816523
sS'technical'
p65
F0.010162222636584001
sS'funded'
p66
F0.0011187768040275966
sS'women'
p67
F0.004661570016781652
sS'development_#1'
p68
F0.0014917024053701287
sS'social'
p69
F0.005314189819131084
sS'action'
p70
F0.001864628006712661
sS'implement'
p71
F0.005034495618124185
sS'Conference'
p72
F0.00214432220771956
sS'secure'
p73
F0.0009323140033563305
sS'private'
p74
F0.01165392504195413
sS'including_#2'
p75
F0.001864628006712661
sS'brought'
p76
F0.00027969420100689915
sS'Also'
p77
F0.0013052396046988625
sS'addressed'
p78
F0.0007458512026850643
sS'operational'
p79
F0.0006526198023494313
sS'crisis'
p80
F0.0005593884020137983
sS'market'
p81
F0.00046615700167816523
sS'working'
p82
F0.00027969420100689915
sS'objectives'
p83
F0.00027969420100689915
sS'transparent_#-1'
p84
F9.323140033563304e-05
sS'approach'
p85
F9.323140033563304e-05
sS'call'
p86
F0.0008390826030206974
sS'Declaration'
p87
F0.0005593884020137983
sS'analysing'
p88
F9.323140033563304e-05
sS'markets'
p89
F0.0007458512026850643
sS'entails'
p90
F0.00018646280067126608
sS'Governments'
p91
F0.014917024053701287
sS'Stresses'
p92
F0.0009323140033563305
sS'successful'
p93
F0.0011187768040275966
sS'American'
p94
F0.0010255454036919634
sS'countries_#-3'
p95
F0.0019578594070482937
sS'consider_#3'
p96
F0.0014917024053701287
sS'effort'
p97
F0.00046615700167816523
sS'circumstances'
p98
F9.323140033563304e-05
sS'organizations'
p99
F0.025638635092299085
sS'account'
p100
F0.0019578594070482937
sS'include'
p101
F0.0012120082043632296
sS'rights'
p102
F9.323140033563304e-05
sS'pursue'
p103
F0.0005593884020137983
sS'alia'
p104
F0.0036360246130896887
sS'paragraph'
p105
F9.323140033563304e-05
sS'transparency'
p106
F9.323140033563304e-05
sS'growing'
p107
F9.323140033563304e-05
sS'meet'
p108
F9.323140033563304e-05
sS'specialized'
p109
F0.002051090807383927
sS'Decade'
p110
F0.0007458512026850643
sS'control'
p111
F0.00037292560134253216
sS'give'
p112
F0.00037292560134253216
sS'process'
p113
F0.0006526198023494313
sS'share'
p114
F0.0007458512026850643
sS'effectively'
p115
F0.00037292560134253216
sS'needs'
p116
F0.002051090807383927
sS'sources_#3'
p117
F0.0029834048107402573
sS'mutually'
p118
F0.0005593884020137983
sS'provide'
p119
F0.0015849338057057616
sS'globalization'
p120
F0.0015849338057057616
sS'plans'
p121
F0.0011187768040275966
sS'respective'
p122
F0.00027969420100689915
sS'response'
p123
F0.0015849338057057616
sS'effective'
p124
F0.0047548014171172855
sS'sources_#1'
p125
F0.00027969420100689915
sS'acknowledged'
p126
F0.0006526198023494313
sS'responsibility'
p127
F0.0012120082043632296
sS'fundamental'
p128
F0.00018646280067126608
sS'banks'
p129
F0.0015849338057057616
sS'order'
p130
F0.004568338616446019
sS'help'
p131
F9.323140033563304e-05
sS'institutional'
p132
F0.0007458512026850643
sS'developed'
p133
F0.0041954130151034864
sS'donors_#1'
p134
F0.0013984710050344957
sS'held'
p135
F9.323140033563304e-05
sS'including'
p136
F0.018739511467462243
sS'agricultural'
p137
F9.323140033563304e-05
sS'welcomes'
p138
F0.0005593884020137983
sS'World_#3'
p139
F0.0010255454036919634
sS'community_#-3'
p140
F0.0009323140033563305
sS'production'
p141
F0.00018646280067126608
sS'World'
p142
F0.001864628006712661
sS'WTO'
p143
F9.323140033563304e-05
sS'donors'
p144
F0.004661570016781652
sS'affected'
p145
F0.0012120082043632296
sS'finance'
p146
F0.0006526198023494313
sS'views'
p147
F9.323140033563304e-05
sS'food'
p148
F9.323140033563304e-05
sS'framework'
p149
F9.323140033563304e-05
sS'organizations_#-2'
p150
F0.0033563304120827896
sS'communities'
p151
F0.0011187768040275966
sS'provision'
p152
F0.00046615700167816523
sS'Control'
p153
F0.00046615700167816523
sS'including_#-1'
p154
F0.005407421219466716
sS'fully'
p155
F0.0010255454036919634
sS'including_#-2'
p156
F0.0008390826030206974
sS'Council'
p157
F9.323140033563304e-05
sS'found'
p158
F9.323140033563304e-05
sS'financial'
p159
F0.02358754428491516
sS'energy'
p160
F0.002237553608055193
sS'reduce'
p161
F0.0009323140033563305
sS'related'
p162
F0.00018646280067126608
sS'challenges'
p163
F0.0013052396046988625
sS'Platform'
p164
F0.002237553608055193
sS'Recognizing'
p165
F0.0009323140033563305
sS'programmes'
p166
F0.008390826030206973
sS'special'
p167
F0.0027969420100689914
sS'initiatives'
p168
F0.0014917024053701287
sS'funding'
p169
F0.012120082043632295
sS'rational'
p170
F9.323140033563304e-05
sS'increase'
p171
F0.0011187768040275966
sS'health'
p172
F9.323140033563304e-05
sS'emerged'
p173
F0.0006526198023494313
sS'support_#2'
p174
F0.0007458512026850643
sS'integrated'
p175
F0.00018646280067126608
sS'private_#2'
p176
F0.0035427932127540555
sS'reporting'
p177
F0.00046615700167816523
sS'mechanisms'
p178
F0.0047548014171172855
sS'free'
p179
F9.323140033563304e-05
sS'members'
p180
F0.00018646280067126608
sS'mobilize'
p181
F0.0019578594070482937
sS'Urges'
p182
F0.0007458512026850643
sS'Invites'
p183
F0.00027969420100689915
sS'advance'
p184
F0.0007458512026850643
sS'benefits'
p185
F0.0007458512026850643
sS'transition'
p186
F0.0015849338057057616
sS'programming'
p187
F0.0012120082043632296
sS'priorities'
p188
F0.00027969420100689915
sS'illicit'
p189
F0.00018646280067126608
sS'conducted'
p190
F0.0011187768040275966
sS'place'
p191
F0.00018646280067126608
sS'support'
p192
F0.008390826030206973
sS'partnerships'
p193
F0.0019578594070482937
sS'major'
p194
F0.0013052396046988625
sS'industrial'
p195
F0.00018646280067126608
sS'There'
p196
F0.0006526198023494313
sS'primary'
p197
F0.0008390826030206974
sS'strategic'
p198
F0.00046615700167816523
sS'management'
p199
F0.00018646280067126608
sS'heads'
p200
F0.0008390826030206974
sS'leading'
p201
F0.00046615700167816523
sS'system'
p202
F0.006712660824165579
sS'adopted'
p203
F0.0017713966063770278
sS'priority'
p204
F0.00037292560134253216
sS'needed'
p205
F0.00027969420100689915
sS'Such'
p206
F0.00046615700167816523
sS'technical_#3'
p207
F0.0005593884020137983
sS'urban'
p208
F0.0009323140033563305
sS'enhancing'
p209
F9.323140033563304e-05
sS'Summit'
p210
F0.0005593884020137983
sS'predictable'
p211
F0.0013984710050344957
sS'financing'
p212
F0.00027969420100689915
sS'sectors'
p213
F0.0008390826030206974
sS'preparation'
p214
F0.0009323140033563305
sS'mechanisms_#-2'
p215
F0.001864628006712661
sS'future'
p216
F9.323140033563304e-05
sS'providing'
p217
F0.0005593884020137983
sS'result'
p218
F0.00018646280067126608
sS'strengthen'
p219
F0.0015849338057057616
sS'South-South'
p220
F0.002051090807383927
sS'partnership'
p221
F0.0005593884020137983
sS'substantial'
p222
F0.0008390826030206974
sS'manner'
p223
F0.00037292560134253216
sS'need'
p224
F0.0027969420100689914
sS'organs'
p225
F0.0012120082043632296
sS'Development'
p226
F0.004661570016781652
sS'documents'
p227
F0.00027969420100689915
sS'proliferation'
p228
F0.00018646280067126608
sS'responsible'
p229
F0.00037292560134253216
sS'mechanism'
p230
F9.323140033563304e-05
sS'concerns'
p231
F0.00018646280067126608
sS'donor'
p232
F0.0016781652060413948
sS'Bank'
p233
F0.0005593884020137983
sS'worldwide'
p234
F9.323140033563304e-05
sS'measures'
p235
F0.00027969420100689915
sS'involving'
p236
F0.0006526198023494313
sS'significant'
p237
F9.323140033563304e-05
sS'The'
p238
F0.002330785008390826
sS'especially'
p239
F0.002237553608055193
sS'considered'
p240
F0.0010255454036919634
sS'humanitarian'
p241
F0.0007458512026850643
sS'Reaffirms'
p242
F0.0017713966063770278
sS'Secretary-General'
p243
F0.0012120082043632296
sS'part'
p244
F0.0005593884020137983
sS'principle'
p245
F9.323140033563304e-05
sS'Copenhagen'
p246
F0.0006526198023494313
sS'institutions'
p247
F0.01985828827148984
sS'fact'
p248
F0.00018646280067126608
sS'sector'
p249
F0.007085586425508111
sS'emerging'
p250
F0.00018646280067126608
sS'effective_#-3'
p251
F0.00046615700167816523
sS'agreed'
p252
F0.0007458512026850643
sS'supported'
p253
F0.0007458512026850643
sS'representatives'
p254
F0.00018646280067126608
sS'planning'
p255
F0.0008390826030206974
sS'participate'
p256
F0.0008390826030206974
sS'multilateral'
p257
F0.03365653552116353
sS'intergovernmental'
p258
F9.323140033563304e-05
sS'impact'
p259
F9.323140033563304e-05
sS'based'
p260
F0.0013984710050344957
sS'assistance_#2'
p261
F9.323140033563304e-05
sS'implementation'
p262
F0.002610479209397725
sS'efforts_#2'
p263
F0.0009323140033563305
sS'crime'
p264
F9.323140033563304e-05
sS'implemented'
p265
F0.0005593884020137983
sS'rich'
p266
F9.323140033563304e-05
sS'adequate'
p267
F0.007085586425508111
sS'local'
p268
F0.002703710609733358
sS'achieve'
p269
F0.0005593884020137983
sS'officials'
p270
F9.323140033563304e-05
sS'means'
p271
F9.323140033563304e-05
sS'joint'
p272
F0.00018646280067126608
sS'shared'
p273
F0.00018646280067126608
sS'report'
p274
F0.00018646280067126608
sS'Organization'
p275
F0.0006526198023494313
sS'international_#3'
p276
F0.0025172478090620923
sS'areas'
p277
F0.0017713966063770278
sS'processes'
p278
F0.0013052396046988625
sS'America'
p279
F0.0006526198023494313
sS'resource'
p280
F0.00018646280067126608
sS'countries'
p281
F0.025545403691963453
sS'fields'
p282
F9.323140033563304e-05
sS'private_#3'
p283
F0.0011187768040275966
sS'common'
p284
F0.0006526198023494313
sS'allocations'
p285
F0.0033563304120827896
sS'recommendations'
p286
F0.0012120082043632296
sS'sustainable'
p287
F0.005127727018459817
sS'identify'
p288
F0.0019578594070482937
sS'set'
p289
F0.0007458512026850643
sS'questions'
p290
F9.323140033563304e-05
sS'For'
p291
F9.323140033563304e-05
sS'national'
p292
F0.00885698303188514
sS'individual'
p293
F0.00046615700167816523
sS'migration'
p294
F0.0007458512026850643
sS'enhanced'
p295
F0.0009323140033563305
sS'discussions'
p296
F9.323140033563304e-05
sS'close'
p297
F0.0008390826030206974
sS'liberalization'
p298
F0.00027969420100689915
sS'encouraged'
p299
F0.0007458512026850643
sS'project'
p300
F0.0009323140033563305
sS'capacity'
p301
F0.0009323140033563305
sS'review'
p302
F0.0012120082043632296
sS'commitments'
p303
F0.0014917024053701287
sS'cooperation'
p304
F0.014171172851016222
sS'conditions'
p305
F0.0005593884020137983
sS'Central'
p306
F0.002051090807383927
sS'importance'
p307
F0.002237553608055193
sS'non-governmental'
p308
F0.006526198023494313
sS'attention'
p309
F0.0005593884020137983
sS'agencies'
p310
F0.005873578221144882
sS'African'
p311
F0.00037292560134253216
sS'competent'
p312
F0.0005593884020137983
sS'financial_#1'
p313
F0.009416371433898937
sS'financial_#3'
p314
F0.00018646280067126608
sS'improve'
p315
F9.323140033563304e-05
sS'received'
p316
F0.00018646280067126608
sS'improved'
p317
F0.0006526198023494313
sS'non-governmental_#-2'
p318
F0.0011187768040275966
sS'country'
p319
F0.0006526198023494313
sS'invited'
p320
F0.0006526198023494313
sS'drug'
p321
F0.0013052396046988625
sS'enabling'
p322
F0.0011187768040275966
sS'connection'
p323
F9.323140033563304e-05
sS'context'
p324
F0.0009323140033563305
sS'contribution'
p325
F9.323140033563304e-05
sS'invites'
p326
F0.0012120082043632296
sS'relevant'
p327
F0.010348685437255268
sS'community'
p328
F0.008484057430542606
sS'Board'
p329
F0.0005593884020137983
sS'maximize'
p330
F0.0016781652060413948
sS'private_#-2'
p331
F0.00018646280067126608
sS'private_#-1'
p332
F0.0011187768040275966
sS'conference'
p333
F0.00046615700167816523
sS'Assembly'
p334
F0.0009323140033563305
sS'basis'
p335
F0.0005593884020137983
sS'institutions_#2'
p336
F0.010255454036919635
sS'institutions_#3'
p337
F0.0013052396046988625
sS'create'
p338
F9.323140033563304e-05
sS'banks_#2'
p339
F9.323140033563304e-05
sS'informed'
p340
F9.323140033563304e-05
sS'due'
p341
F0.00027969420100689915
sS'But'
p342
F0.0007458512026850643
sS'strategy'
p343
F0.0008390826030206974
sS'existing_#-1'
p344
F0.00018646280067126608
sS'expected'
p345
F0.00018646280067126608
sS'flexible'
p346
F0.0011187768040275966
sS'financial_#2'
p347
F0.00214432220771956
sS'dialogue'
p348
F0.00037292560134253216
sS'enable'
p349
F0.0008390826030206974
sS'Nations'
p350
F0.016408726459071415
sS'ensuring'
p351
F9.323140033563304e-05
sS'coordinated'
p352
F0.0007458512026850643
sS'external'
p353
F0.0013984710050344957
sS'covered'
p354
F0.00018646280067126608
sS'Action'
p355
F0.00428864441543912
sS'presented'
p356
F0.0010255454036919634
sS'resources_#-2'
p357
F0.00018646280067126608
sS'developing'
p358
F0.014823792653365654
sS'economies'
p359
F0.002424016408726459
sS'General'
p360
F0.0005593884020137983
sS'ongoing'
p361
F9.323140033563304e-05
sS'policies'
p362
F0.0009323140033563305
sS'region'
p363
F0.0008390826030206974
sS'engaged'
p364
F0.0007458512026850643
sS'UNDP'
p365
F0.0010255454036919634
sS'arrangements'
p366
F0.0009323140033563305
sS'regional_#1'
p367
F0.0019578594070482937
sS'regional_#2'
p368
F0.00046615700167816523
sS'regional_#3'
p369
F0.0033563304120827896
sS'develop'
p370
F0.0013984710050344957
sS'seek'
p371
F0.00046615700167816523
sS'entitled'
p372
F0.00027969420100689915
sS'development'
p373
F0.02368077568525079
sS'assist'
p374
F0.0010255454036919634
sS'flows'
p375
F0.002051090807383927
sS'relevant_#-1'
p376
F9.323140033563304e-05
sS'allocation'
p377
F0.00046615700167816523
sS'levels'
p378
F0.005780346820809248
sS'changing'
p379
F0.0005593884020137983
sS'requests'
p380
F0.0007458512026850643
sS'renewable'
p381
F0.0011187768040275966
sS'recent'
p382
F0.0010255454036919634
sS'organizations_#-1'
p383
F0.0031698676114115232
sS'substantive'
p384
F0.00018646280067126608
sS'States'
p385
F0.00037292560134253216
sS'concrete'
p386
F0.0014917024053701287
sS'practices'
p387
F0.00018646280067126608
sS'undertaken'
p388
F0.00046615700167816523
sS'bodies'
p389
F0.00214432220771956
sS'stressed'
p390
F0.00018646280067126608
sS'United'
p391
F0.017247809062092112
sS'settlements'
p392
F0.0015849338057057616
sS'domestic'
p393
F0.0008390826030206974
sS'sources'
p394
F0.006805892224501212
sS'Nations_#-2'
p395
F0.0030766362110758905
sS'Nations_#-3'
p396
F0.002424016408726459
sS'human'
p397
F0.00522095841879545
sS'alternative'
p398
F0.00037292560134253216
sS'coordination'
p399
F0.0011187768040275966
sS'advancement'
p400
F0.0013984710050344957
sS'instrument'
p401
F9.323140033563304e-05
sS'governmental'
p402
F0.0012120082043632296
sS'potential'
p403
F0.00018646280067126608
sS'adoption'
p404
F9.323140033563304e-05
sS'aspects'
p405
F0.00046615700167816523
sS'rules'
p406
F0.00018646280067126608
sS'posed'
p407
F0.0005593884020137983
sS'Sustainable'
p408
F0.002051090807383927
sS'taking'
p409
F0.0009323140033563305
sS'Requests'
p410
F0.0014917024053701287
sS'projects'
p411
F0.0010255454036919634
sS'Member'
p412
F0.00018646280067126608
sS'specific'
p413
F0.00037292560134253216
sS'benefit'
p414
F0.0006526198023494313
sS'continue'
p415
F0.0010255454036919634
sS'steps'
p416
F0.0007458512026850643
sS'inter'
p417
F0.0036360246130896887
sS'essential'
p418
F0.00037292560134253216
sS'agencies_#2'
p419
F0.00046615700167816523
sS'deal'
p420
F9.323140033563304e-05
sS'Commission'
p421
F0.0015849338057057616
sS'trends'
p422
F0.0009323140033563305
sS'economic'
p423
F0.006246503822487414
sS'respect'
p424
F9.323140033563304e-05
sS'International'
p425
F0.001864628006712661
sS'supportive'
p426
F0.00018646280067126608
sS'developmental'
p427
F0.00018646280067126608
sS'Government'
p428
F0.0015849338057057616
sS'bilateral_#2'
p429
F0.0010255454036919634
sS'bilateral_#3'
p430
F0.00046615700167816523
sS'decision'
p431
F0.00046615700167816523
sS'bilateral_#1'
p432
F0.007738206227857543
sS'integration'
p433
F0.00027969420100689915
sS'Fund'
p434
F0.0010255454036919634
sS'critical'
p435
F0.00018646280067126608
sS'demonstrated'
p436
F0.0006526198023494313
sS'Population'
p437
F0.0011187768040275966
sS'core'
p438
F0.0008390826030206974
sS'scientific'
p439
F0.00027969420100689915
sS'business'
p440
F0.0012120082043632296
sS'political'
p441
F0.00018646280067126608
sS'relating'
p442
F0.00018646280067126608
sS'global_#-1'
p443
F0.0012120082043632296
sS'island'
p444
F0.00018646280067126608
sS'mobilization'
p445
F0.0031698676114115232
sS'recognized'
p446
F0.00027969420100689915
sS'Trade'
p447
F0.0013052396046988625
sS'addition'
p448
F9.323140033563304e-05
sS'ensure'
p449
F0.007924669028528808
sS'Committee'
p450
F0.0012120082043632296
sS'efforts'
p451
F0.007831437628193175
sS'institutions_#1'
p452
F0.0031698676114115232
sS'modalities'
p453
F0.002424016408726459
sS'civil'
p454
F0.004008950214432221
sS'instruments'
p455
F0.0012120082043632296
sS'integral'
p456
F0.0006526198023494313
sS'commitment'
p457
F0.00018646280067126608
sS'cent'
p458
F9.323140033563304e-05
sS'balanced'
p459
F0.0007458512026850643
sS'additional'
p460
F0.004941264217788551
sS'area'
p461
F0.0009323140033563305
sS'subregional'
p462
F0.001864628006712661
sS'funding_#-3'
p463
F0.0027969420100689914
sS'organizations_#1'
p464
F0.003915718814096587
sS'national_#-3'
p465
F0.0005593884020137983
sS'complete'
p466
F0.00018646280067126608
sS'form'
p467
F0.0010255454036919634
sS'funds'
p468
F0.00214432220771956
sS'triangular'
p469
F0.002237553608055193
sS'goals'
p470
F0.0013984710050344957
sS'sustained'
p471
F0.0006526198023494313
sS'promote'
p472
F0.0032630990117471564
sS'commercial_#-3'
p473
F0.0009323140033563305
sS'engaging'
p474
F9.323140033563304e-05
sS'society'
p475
F0.004008950214432221
sS'Africa'
p476
F0.002237553608055193
sS'growth'
p477
F0.00046615700167816523
sS'problem'
p478
F0.0013984710050344957
sS'called'
p479
F9.323140033563304e-05
sS'recognize'
p480
F0.0007458512026850643
sS'universal'
p481
F0.00027969420100689915
sS'contribute'
p482
F0.0015849338057057616
sS'international_#-1'
p483
F0.0011187768040275966
sS'international_#-2'
p484
F0.0008390826030206974
sS'international_#-3'
p485
F0.0015849338057057616
sS'traditional'
p486
F0.0006526198023494313
sS'system_#-1'
p487
F0.0016781652060413948
sS'field'
p488
F0.0012120082043632296
sS'actors'
p489
F0.002610479209397725
sS'poor'
p490
F0.00018646280067126608
sS'requested'
p491
F0.0009323140033563305
sS'elements'
p492
F0.0008390826030206974
sS'provided'
p493
F9.323140033563304e-05
sS'cooperation_#-3'
p494
F0.0009323140033563305
sS'authorities'
p495
F0.0013052396046988625
sS'gap'
p496
F0.0007458512026850643
sS'structure'
p497
F0.0008390826030206974
sS'building'
p498
F0.00037292560134253216
sS'bilateral'
p499
F0.014823792653365654
sS'calls'
p500
F0.0017713966063770278
sS'required'
p501
F0.0033563304120827896
sS'rule'
p502
F9.323140033563304e-05
sS'shelter'
p503
F0.0014917024053701287
sS'resolution'
p504
F0.0005593884020137983
sS'mobilized'
p505
F0.00046615700167816523
ssI2
(dp506
g4
F0.000994530084535057
sg6
F0.0002486325211337643
sS'focus'
p507
F0.0002486325211337643
sg9
F0.0032322227747389356
sS'issues'
p508
F0.0014917951268025858
sS'level_#1'
p509
F0.00174042764793635
sg16
F0.003978120338140228
sS'relevant_#3'
p510
F0.0002486325211337643
sS'China'
p511
F0.0002486325211337643
sg28
F0.0002486325211337643
sS'results'
p512
F0.0004972650422675286
sg31
F0.0007458975634012929
sg33
F0.000994530084535057
sS'1999'
p513
F0.0014917951268025858
sS'race'
p514
F0.0069617105917454
sg37
F0.0007458975634012929
sS'NPT'
p515
F0.002486325211337643
sg39
F0.000994530084535057
sS'prevent'
p516
F0.0004972650422675286
sS'force'
p517
F0.0014917951268025858
sS'verifiable'
p518
F0.014917951268025857
sS'guidelines'
p519
F0.002486325211337643
sS'direct'
p520
F0.0007458975634012929
sS'likely'
p521
F0.000994530084535057
sg44
F0.0004972650422675286
sg48
F0.0012431626056688214
sg50
F0.004226752859273993
sg279
F0.0002486325211337643
sg52
F0.0012431626056688214
sS'body'
p522
F0.000994530084535057
sg53
F0.002486325211337643
sg54
F0.0004972650422675286
sS'understanding'
p523
F0.000994530084535057
sg61
F0.0004972650422675286
sS'address'
p524
F0.0004972650422675286
sS'consideration'
p525
F0.0014917951268025858
sg64
F0.0014917951268025858
sS'forum'
p526
F0.0044753853804077575
sS'action_#1'
p527
F0.0007458975634012929
sS'development_#3'
p528
F0.0029835902536051715
sg70
F0.004226752859273993
sS'military'
p529
F0.0027349577324714074
sg71
F0.0004972650422675286
sS'contained_#-2'
p530
F0.0034808552958727
sg72
F0.014420686225758329
sg76
F0.0027349577324714074
sg77
F0.001989060169070114
sS'treaty_#1'
p531
F0.0002486325211337643
sS'total'
p532
F0.002486325211337643
sS'establish'
p533
F0.0012431626056688214
sS'Europe'
p534
F0.0029835902536051715
sg82
F0.000994530084535057
sg83
F0.00174042764793635
sS'arms'
p535
F0.013426156141223273
sg86
F0.0029835902536051715
sg91
F0.0002486325211337643
sS'These'
p536
F0.0007458975634012929
sg97
F0.00174042764793635
sg100
F0.000994530084535057
sS'1995'
p537
F0.001989060169070114
sS'1994'
p538
F0.0004972650422675286
sS'1996'
p539
F0.0004972650422675286
sg103
F0.0004972650422675286
sg104
F0.0004972650422675286
sg105
F0.0014917951268025858
sg106
F0.0004972650422675286
sg107
F0.0002486325211337643
sg108
F0.0034808552958727
sg111
F0.002486325211337643
sS'negotiations_#1'
p540
F0.001989060169070114
sS'purposes'
p541
F0.0034808552958727
sg115
F0.013674788662357036
sg122
F0.0007458975634012929
sS'monitoring'
p542
F0.0004972650422675286
sS'hoc'
p543
F0.005469915464942815
sS'discussion'
p544
F0.0002486325211337643
sS'responsibilities'
p545
F0.0027349577324714074
sS'establishment'
p546
F0.004226752859273993
sg121
F0.000994530084535057
sS'applications'
p547
F0.0034808552958727
sS'goal'
p548
F0.0014917951268025858
sg124
F0.0027349577324714074
sS'non_#-2'
p549
F0.005469915464942815
sg127
F0.0004972650422675286
sg128
F0.0007458975634012929
sg130
F0.0007458975634012929
sg132
F0.0002486325211337643
sg133
F0.000994530084535057
sg135
F0.0004972650422675286
sS'committee'
p550
F0.0044753853804077575
sS'innovative'
p551
F0.002486325211337643
sS'discriminatory_#-1'
p552
F0.005469915464942815
sS'group'
p553
F0.0002486325211337643
sS'internationally'
p554
F0.013426156141223273
sg140
F0.0002486325211337643
sg141
F0.02013923421183491
sS'international_#1'
p555
F0.0004972650422675286
sS'non'
p556
F0.006464445549477871
sS'material'
p557
F0.02013923421183491
sS'supporting_#-1'
p558
F0.0029835902536051715
sg149
F0.000994530084535057
sS'mandate'
p559
F0.007956240676280457
sS'transparent'
p560
F0.0002486325211337643
sg155
F0.0007458975634012929
sS'Coordinator'
p561
F0.005967180507210343
sS'principles'
p562
F0.0002486325211337643
sg162
F0.0007458975634012929
sg165
F0.0002486325211337643
sg167
F0.0004972650422675286
sS'space'
p563
F0.008950770760815515
sg171
F0.0002486325211337643
sS'contained'
p564
F0.009448035803083043
sg22
F0.0012431626056688214
sS'banning'
p565
F0.01093983092988563
sS'issue'
p566
F0.0004972650422675286
sS'This'
p567
F0.0004972650422675286
sg179
F0.0004972650422675286
sS'Security'
p568
F0.0027349577324714074
sS'cooperation_#2'
p569
F0.002486325211337643
sg188
F0.0002486325211337643
sg191
F0.000994530084535057
sS'barriers'
p570
F0.0004972650422675286
sg194
F0.0007458975634012929
sg197
F0.0012431626056688214
sg198
F0.0027349577324714074
sS'single_#-1'
p571
F0.002486325211337643
sg200
F0.0004972650422675286
sg201
F0.000994530084535057
sS'draft'
p572
F0.0002486325211337643
sS'statement'
p573
F0.000994530084535057
sS'convention'
p574
F0.002486325211337643
sS'technical_#1'
p575
F0.002486325211337643
sS'legally'
p576
F0.003978120338140228
sS'negotiating'
p577
F0.004724017901541522
sg210
F0.0002486325211337643
sS'norms'
p578
F0.000994530084535057
sS'believe'
p579
F0.001989060169070114
sS'wide'
p580
F0.0027349577324714074
sS'accordance'
p581
F0.0004972650422675286
sg41
F0.0007458975634012929
sS'nations'
p582
F0.0002486325211337643
sg214
F0.0004972650422675286
sg216
F0.0027349577324714074
sS'promote_#-3'
p583
F0.0002486325211337643
sS'Welcomes'
p584
F0.001989060169070114
sg219
F0.0002486325211337643
sg222
F0.0002486325211337643
sg223
F0.0014917951268025858
sg224
F0.0002486325211337643
sg371
F0.0012431626056688214
sg228
F0.002486325211337643
sS'forces'
p585
F0.0002486325211337643
sS'objective'
p586
F0.0037294878170064643
sS'subject'
p587
F0.000994530084535057
sS'agenda'
p588
F0.006215813028344107
sS'Cessation'
p589
F0.003978120338140228
sg238
F0.006464445549477871
sS'achievement'
p590
F0.0012431626056688214
sg240
F0.0007458975634012929
sS'treaty'
p591
F0.01914470412729985
sS'High'
p592
F0.0027349577324714074
sg244
F0.0002486325211337643
sg245
F0.0004972650422675286
sS'Union'
p593
F0.0022376926902038788
sg252
F0.00174042764793635
sg253
F0.002486325211337643
sS'pursuant'
p594
F0.0004972650422675286
sg35
F0.0029835902536051715
sg256
F0.0004972650422675286
sg257
F0.03555445052212829
sS'measures_#1'
p595
F0.0002486325211337643
sS'European'
p596
F0.001989060169070114
sS'efforts_#1'
p597
F0.0002486325211337643
sS'gradual'
p598
F0.0002486325211337643
sg267
F0.000994530084535057
sS'hope'
p599
F0.0007458975634012929
sg271
F0.0002486325211337643
sS'express'
p600
F0.0004972650422675286
sS'prohibition'
p601
F0.0029835902536051715
sg272
F0.0002486325211337643
sS'While'
p602
F0.0004972650422675286
sg274
F0.0072103431128791645
sg275
F0.005469915464942815
sg277
F0.0007458975634012929
sS'regarding'
p603
F0.0029835902536051715
sg280
F0.0002486325211337643
sg281
F0.0032322227747389356
sg85
F0.0037294878170064643
sg287
F0.0002486325211337643
sS'view'
p604
F0.001989060169070114
sg397
F0.0004972650422675286
sg291
F0.0012431626056688214
sg476
F0.0002486325211337643
sS'actively'
p605
F0.0002486325211337643
sg295
F0.0002486325211337643
sg297
F0.0029835902536051715
sS'forthcoming'
p606
F0.0004972650422675286
sS'concern'
p607
F0.0002486325211337643
sS'expert'
p608
F0.0002486325211337643
sS'ways'
p609
F0.0002486325211337643
sS'nuclear'
p610
F0.06364992541024365
sS'weapons'
p611
F0.02958727001491795
sg304
F0.0032322227747389356
sS'progress'
p612
F0.000994530084535057
sg138
F0.0007458975634012929
sg305
F0.0004972650422675286
sS'explosive'
p613
F0.0139234211834908
sS'creating'
p614
F0.0002486325211337643
sg307
F0.0032322227747389356
sg309
F0.0007458975634012929
sS'key'
p615
F0.0007458975634012929
sS'outer'
p616
F0.007956240676280457
sg319
F0.0012431626056688214
sg409
F0.001989060169070114
sg323
F0.0004972650422675286
sS'negotiation'
p617
F0.0034808552958727
sS'conclude'
p618
F0.0004972650422675286
sS'disarmament'
p619
F0.026355047240179015
sg328
F0.00174042764793635
sS'initiative'
p620
F0.0004972650422675286
sS'trust'
p621
F0.0002486325211337643
sS'War'
p622
F0.0002486325211337643
sg334
F0.000994530084535057
sg335
F0.00870213823968175
sg339
F0.0002486325211337643
sg340
F0.0007458975634012929
sg341
F0.000994530084535057
sg342
F0.0002486325211337643
sS'reduction'
p623
F0.000994530084535057
sg344
F0.0012431626056688214
sS'interest'
p624
F0.0007458975634012929
sS'peaceful'
p625
F0.002486325211337643
sg348
F0.0027349577324714074
sS'concerning'
p626
F0.0004972650422675286
sg350
F0.004972650422675286
sS'Chinese'
p627
F0.0007458975634012929
sg360
F0.0014917951268025858
sS'situation'
p628
F0.0004972650422675286
sS'non-proliferation'
p629
F0.0029835902536051715
sS'binding'
p630
F0.004972650422675286
sS'Convention'
p631
F0.0002486325211337643
sg370
F0.0002486325211337643
sS'things'
p632
F0.0002486325211337643
sg372
F0.0034808552958727
sS'effectively_#2'
p633
F0.01093983092988563
sS'negotiate'
p634
F0.009696668324216808
sS'destruction'
p635
F0.0032322227747389356
sS'verifiable_#3'
p636
F0.011934361014420686
sS'IAEA'
p637
F0.002486325211337643
sg225
F0.0004972650422675286
sS'wide_#3'
p638
F0.002486325211337643
sS'analysis'
p639
F0.0004972650422675286
sg384
F0.0004972650422675286
sg385
F0.004724017901541522
sg386
F0.0012431626056688214
sg388
F0.0002486325211337643
sS'prevention'
p640
F0.000994530084535057
sg391
F0.004972650422675286
sS'negotiating_#1'
p641
F0.002486325211337643
sS'States_#-3'
p642
F0.0002486325211337643
sS'actions'
p643
F0.0014917951268025858
sg290
F0.0007458975634012929
sg401
F0.0014917951268025858
sg404
F0.000994530084535057
sS'extensive'
p644
F0.0002486325211337643
sS'guarantees'
p645
F0.0004972650422675286
sS'discriminatory'
p646
F0.005469915464942815
sg407
F0.0002486325211337643
sS'internationally_#1'
p647
F0.011437095972153158
sS'early'
p648
F0.0032322227747389356
sS'matters'
p649
F0.0014917951268025858
sS'consensus'
p650
F0.0007458975634012929
sg415
F0.0004972650422675286
sg416
F0.000994530084535057
sS'security'
p651
F0.003978120338140228
sg418
F0.0014917951268025858
sg420
F0.0007458975634012929
sS'delegation'
p652
F0.0014917951268025858
sS'urgent'
p653
F0.000994530084535057
sS'Cooperation'
p654
F0.0029835902536051715
sg425
F0.0029835902536051715
sg493
F0.0002486325211337643
sS'lead'
p655
F0.000994530084535057
sg428
F0.000994530084535057
sS'avoid'
p656
F0.0004972650422675286
sS'legal'
p657
F0.0007458975634012929
sg435
F0.0004972650422675286
sg438
F0.0004972650422675286
sS'continuing'
p658
F0.0022376926902038788
sS'agreement'
p659
F0.007956240676280457
sS'constructive'
p660
F0.0032322227747389356
sS'step'
p661
F0.0037294878170064643
sg441
F0.0004972650422675286
sg442
F0.0002486325211337643
sS'Disarmament'
p662
F0.014669318746892094
sg446
F0.0014917951268025858
sS'practical'
p663
F0.0034808552958727
sS'range'
p664
F0.0027349577324714074
sg450
F0.004226752859273993
sS'urges'
p665
F0.000994530084535057
sg455
F0.000994530084535057
sg459
F0.000994530084535057
sg461
F0.0032322227747389356
sS'transfer'
p666
F0.0002486325211337643
sg192
F0.0007458975634012929
sS'strict'
p667
F0.002486325211337643
sS'forward'
p668
F0.0007458975634012929
sg466
F0.0034808552958727
sg470
F0.0004972650422675286
sS'elimination'
p669
F0.0029835902536051715
sg472
F0.0004972650422675286
sg421
F0.0002486325211337643
sS'fissile'
p670
F0.020387866732968673
sS'official'
p671
F0.0012431626056688214
sS'attached'
p672
F0.0027349577324714074
sS'devices'
p673
F0.0139234211834908
sS'Europe_#-3'
p674
F0.0027349577324714074
sS'Special'
p675
F0.008453505718547987
sS'item'
p676
F0.004972650422675286
sS'defined'
p677
F0.0004972650422675286
sg481
F0.000994530084535057
sS'deep'
p678
F0.0007458975634012929
sS'single'
p679
F0.0034808552958727
sS'face'
p680
F0.0004972650422675286
sS'negotiations'
p681
F0.013426156141223273
sS'Commissioner'
p682
F0.0032322227747389356
sS'non-discriminatory_#-1'
p683
F0.006464445549477871
sg488
F0.0027349577324714074
sS'1299'
p684
F0.004972650422675286
sg489
F0.0004972650422675286
sS'conclusion'
p685
F0.004972650422675286
sS'disarmament_#1'
p686
F0.004724017901541522
sS'disarmament_#3'
p687
F0.0034808552958727
sS'mandate_#-3'
p688
F0.0034808552958727
sS'tackle'
p689
F0.0004972650422675286
sg496
F0.0002486325211337643
sg500
F0.0002486325211337643
sS'non-discriminatory'
p690
F0.0072103431128791645
sg501
F0.0004972650422675286
sS'mass'
p691
F0.001989060169070114
sg504
F0.0014917951268025858
sg431
F0.0014917951268025858
ssI3
(dp692
g6
F0.003857566765578635
sg7
F0.0001483679525222552
sg507
F0.00044510385756676556
sg9
F0.0010385756676557863
sS'talks'
p693
F0.0026706231454005935
sS'adjustment'
p694
F0.000741839762611276
sg46
F0.000741839762611276
sg508
F0.002225519287833828
sg509
F0.0002967359050445104
sS'crises'
p695
F0.0008902077151335311
sg16
F0.0019287833827893175
sg17
F0.0010385756676557863
sg18
F0.0048961424332344215
sg510
F0.0002967359050445104
sg20
F0.002225519287833828
sg21
F0.0028189910979228485
sg101
F0.0002967359050445104
sS'meetings'
p696
F0.0002967359050445104
sg24
F0.0001483679525222552
sg25
F0.00044510385756676556
sg26
F0.0011869436201780415
sg27
F0.0019287833827893175
sg28
F0.0008902077151335311
sg100
F0.002225519287833828
sg512
F0.0005934718100890207
sS'reforms'
p697
F0.0005934718100890207
sg413
F0.0017804154302670622
sg30
F0.00044510385756676556
sS'open_#-1'
p698
F0.0017804154302670622
sg31
F0.00044510385756676556
sg102
F0.0008902077151335311
sS'solution'
p699
F0.0002967359050445104
sg33
F0.0005934718100890207
sg103
F0.0005934718100890207
sg36
F0.002225519287833828
sg37
F0.002373887240356083
sg38
F0.00044510385756676556
sS'round'
p700
F0.0032640949554896144
sg39
F0.000741839762611276
sS'concluded'
p701
F0.0001483679525222552
sS'dealing'
p702
F0.0020771513353115725
sg520
F0.000741839762611276
sg521
F0.0002967359050445104
sg42
F0.0005934718100890207
sS'Uruguay_#-2'
p703
F0.002373887240356083
sg43
F0.004747774480712166
sg45
F0.0005934718100890207
sg47
F0.00044510385756676556
sS'expressed'
p704
F0.0008902077151335311
sg387
F0.00044510385756676556
sS'access'
p705
F0.004154302670623145
sS'conduct'
p706
F0.001483679525222552
sg50
F0.021513353115727003
sS'contributes'
p707
F0.0017804154302670622
sg54
F0.0002967359050445104
sg55
F0.0008902077151335311
sg56
F0.0002967359050445104
sS'monetary'
p708
F0.0010385756676557863
sS'favourable'
p709
F0.0019287833827893175
sS'focused'
p710
F0.00044510385756676556
sg524
F0.0005934718100890207
sg64
F0.0005934718100890207
sS'knowledge'
p711
F0.0001483679525222552
sg627
F0.0008902077151335311
sS'involved'
p712
F0.00044510385756676556
sg68
F0.001483679525222552
sg69
F0.002225519287833828
sg71
F0.00044510385756676556
sS'studies'
p713
F0.0008902077151335311
sg73
F0.006528189910979229
sS'rule-based'
p714
F0.007121661721068249
sg76
F0.0005934718100890207
sg78
F0.0013353115727002967
sS'aimed'
p715
F0.0001483679525222552
sS'resolutions'
p716
F0.000741839762611276
sg533
F0.00044510385756676556
sg81
F0.003115727002967359
sS'positive'
p717
F0.0026706231454005935
sg83
F0.0011869436201780415
sS'negative'
p718
F0.001483679525222552
sS'governance'
p719
F0.0011869436201780415
sS'trading_#1'
p720
F0.015578635014836795
sg86
F0.0001483679525222552
sg87
F0.0010385756676557863
sg89
F0.0034124629080118695
sS'achieving'
p721
F0.0013353115727002967
sg91
F0.00044510385756676556
sg93
F0.0008902077151335311
sS'aware'
p722
F0.0017804154302670622
sS'Morocco'
p723
F0.0008902077151335311
sg94
F0.0001483679525222552
sS'countries_#-2'
p724
F0.0001483679525222552
sg95
F0.0008902077151335311
sS'countries_#-1'
p725
F0.000741839762611276
sS'participation_#-1'
p726
F0.0011869436201780415
sg97
F0.0001483679525222552
sg403
F0.002225519287833828
sS'Charter'
p727
F0.0017804154302670622
sg538
F0.001483679525222552
sg539
F0.0008902077151335311
sg513
F0.00044510385756676556
sg104
F0.003115727002967359
sS'challenge'
p728
F0.0005934718100890207
sS'irreparable'
p729
F0.0017804154302670622
sg599
F0.0002967359050445104
sg106
F0.0011869436201780415
sg107
F0.00044510385756676556
sg62
F0.0002967359050445104
sg72
F0.0019287833827893175
sg540
F0.0001483679525222552
sS'unilateral'
p730
F0.0035608308605341245
sg113
F0.00044510385756676556
sg114
F0.0001483679525222552
sg115
F0.0001483679525222552
sS'information'
p731
F0.0002967359050445104
sg116
F0.000741839762611276
sS'productive'
p732
F0.0016320474777448072
sg542
F0.0001483679525222552
sg544
F0.0005934718100890207
sg120
F0.0028189910979228485
sg546
F0.0017804154302670622
sS'economy'
p733
F0.0048961424332344215
sS'developing_#-2'
p734
F0.0011869436201780415
sS'improving'
p735
F0.0010385756676557863
sS'end'
p736
F0.0005934718100890207
sS'trade_#2'
p737
F0.00044510385756676556
sS'law'
p738
F0.002967359050445104
sg123
F0.00044510385756676556
sg124
F0.0034124629080118695
sS'scourge'
p739
F0.0017804154302670622
sS'light'
p740
F0.0005934718100890207
sg126
F0.0001483679525222552
sg51
F0.0020771513353115725
sg588
F0.001483679525222552
sg129
F0.001483679525222552
sS'democratic'
p741
F0.002225519287833828
sg130
F0.0017804154302670622
sS'UNCTAD'
p742
F0.002225519287833828
sg132
F0.000741839762611276
sg133
F0.005934718100890208
sS'trade'
p743
F0.04881305637982196
sS'stability'
p744
F0.0035608308605341245
sg135
F0.004154302670623145
sg136
F0.000741839762611276
sg137
F0.001483679525222552
sS'agreements_#-2'
p745
F0.0001483679525222552
sg141
F0.000741839762611276
sS'systems'
p746
F0.002225519287833828
sS'policy'
p747
F0.0005934718100890207
sg142
F0.004154302670623145
sS'main'
p748
F0.0001483679525222552
sS'undermines'
p749
F0.0017804154302670622
sg143
F0.008605341246290801
sS'greater'
p750
F0.00044510385756676556
sg147
F0.0005934718100890207
sg197
F0.0002967359050445104
sg149
F0.0040059347181008904
sS'effects'
p751
F0.001483679525222552
sg559
F0.0001483679525222552
sg560
F0.008160237388724036
sS'structural'
p752
F0.0001483679525222552
sg154
F0.0001483679525222552
sg356
F0.0001483679525222552
sS'establishing'
p753
F0.0001483679525222552
sg372
F0.0001483679525222552
sg159
F0.0025222551928783385
sg354
F0.0005934718100890207
sS'formulate'
p754
F0.0005934718100890207
sg160
F0.0001483679525222552
sg562
F0.0034124629080118695
sg163
F0.0001483679525222552
sg165
F0.0001483679525222552
sS'trading'
p755
F0.021068249258160237
sg166
F0.0002967359050445104
sS'agriculture'
p756
F0.0019287833827893175
sg167
F0.004747774480712166
sg168
F0.0005934718100890207
sg171
F0.0001483679525222552
sg511
F0.00044510385756676556
sg170
F0.00044510385756676556
sg566
F0.00044510385756676556
sg179
F0.0019287833827893175
sg180
F0.0019287833827893175
sg181
F0.0001483679525222552
sS'put'
p757
F0.0001483679525222552
sg182
F0.0011869436201780415
sg185
F0.003115727002967359
sg186
F0.0001483679525222552
sg187
F0.0001483679525222552
sg569
F0.0001483679525222552
sg188
F0.0008902077151335311
sg191
F0.0002967359050445104
sg570
F0.0010385756676557863
sS'promotion'
p758
F0.0017804154302670622
sg192
F0.0010385756676557863
sg194
F0.003115727002967359
sg196
F0.0002967359050445104
sS'number'
p759
F0.00044510385756676556
sS'Asia'
p760
F0.0001483679525222552
sS'relations'
p761
F0.0017804154302670622
sS'trade_#1'
p762
F0.016023738872403562
sS'open'
p763
F0.01083086053412463
sg571
F0.0001483679525222552
sg202
F0.02937685459940653
sg203
F0.0001483679525222552
sg204
F0.0020771513353115725
sg205
F0.0010385756676557863
sg573
F0.0002967359050445104
sS'interests'
p764
F0.0005934718100890207
sg209
F0.0016320474777448072
sg210
F0.0001483679525222552
sg211
F0.0075667655786350145
sg578
F0.0001483679525222552
sg212
F0.0001483679525222552
sS'commodity'
p765
F0.0016320474777448072
sg581
F0.0002967359050445104
sS'require'
p766
F0.0001483679525222552
sg582
F0.001483679525222552
sg214
F0.0002967359050445104
sg216
F0.0011869436201780415
sS'historical'
p767
F0.0001483679525222552
sg217
F0.0016320474777448072
sg219
F0.0026706231454005935
sS'modern'
p768
F0.0001483679525222552
sS'mind'
p769
F0.0005934718100890207
sg222
F0.0011869436201780415
sg223
F0.0011869436201780415
sS'Ministerial'
p770
F0.0025222551928783385
sg224
F0.0026706231454005935
sg225
F0.0016320474777448072
sS'clearly'
p771
F0.00044510385756676556
sg466
F0.0005934718100890207
sg226
F0.0005934718100890207
sS'affairs'
p772
F0.0002967359050445104
sg298
F0.006231454005934718
sS'relationship'
p773
F0.0008902077151335311
sg231
F0.001483679525222552
sg585
F0.000741839762611276
sS'conducive'
p774
F0.0011869436201780415
sg234
F0.0016320474777448072
sS'combat'
p775
F0.0017804154302670622
sg235
F0.006824925816023739
sg388
F0.0013353115727002967
sS'services'
p776
F0.0017804154302670622
sg238
F0.0063798219584569734
sg590
F0.0008902077151335311
sg239
F0.0028189910979228485
sg240
F0.0019287833827893175
sS'adopt'
p777
F0.0026706231454005935
sg242
F0.00044510385756676556
sg245
F0.0011869436201780415
sS'detriment'
p778
F0.0001483679525222552
sg246
F0.0001483679525222552
sS'laws'
p779
F0.0005934718100890207
sg250
F0.00044510385756676556
sS'obligations'
p780
F0.001483679525222552
sg252
F0.002373887240356083
sS'Ministers'
p781
F0.0005934718100890207
sS'solutions'
p782
F0.0002967359050445104
sg257
F0.03620178041543027
sS'technologies'
p783
F0.0005934718100890207
sS'round_#-1'
p784
F0.0020771513353115725
sg259
F0.004451038575667656
sg48
F0.0011869436201780415
sS'negotiations_#2'
p785
F0.0060830860534124625
sg260
F0.0025222551928783385
sS'Round_#-1'
p786
F0.002373887240356083
sg262
F0.0001483679525222552
sg597
F0.0001483679525222552
sg79
F0.0002967359050445104
sS'entities'
p787
F0.0001483679525222552
sg265
F0.0005934718100890207
sg266
F0.0001483679525222552
sg267
F0.0008902077151335311
sg269
F0.0001483679525222552
sg272
F0.0008902077151335311
sg602
F0.00044510385756676556
sg275
F0.0040059347181008904
sS'international_#2'
p788
F0.002373887240356083
sg276
F0.00044510385756676556
sg277
F0.0019287833827893175
sg278
F0.0005934718100890207
sg279
F0.00044510385756676556
sg281
F0.029080118694362018
sS'differential'
p789
F0.0017804154302670622
sS'need_#3'
p790
F0.0017804154302670622
sg284
F0.000741839762611276
sg287
F0.0020771513353115725
sg604
F0.0002967359050445104
sg289
F0.002967359050445104
sS'fair'
p791
F0.001483679525222552
sg292
F0.0008902077151335311
sg270
F0.0001483679525222552
sg218
F0.0001483679525222552
sg296
F0.0001483679525222552
sg606
F0.00044510385756676556
sg607
F0.0011869436201780415
sg301
F0.0008902077151335311
sg608
F0.0001483679525222552
sS'reform'
p792
F0.00044510385756676556
sS'Emphasizes'
p793
F0.0005934718100890207
sg304
F0.0028189910979228485
sg612
F0.0002967359050445104
sg305
F0.0020771513353115725
sS'accord'
p794
F0.002225519287833828
sg15
F0.0008902077151335311
sg307
F0.0017804154302670622
sg615
F0.0001483679525222552
sg311
F0.0010385756676557863
sg314
F0.0005934718100890207
sg347
F0.0005934718100890207
sg319
F0.0034124629080118695
sg409
F0.00044510385756676556
sS'equal'
p795
F0.0005934718100890207
sS'foreign'
p796
F0.00044510385756676556
sg322
F0.000741839762611276
sg323
F0.0005934718100890207
sg324
F0.002967359050445104
sg60
F0.0019287833827893175
sg325
F0.0001483679525222552
sg617
F0.0002967359050445104
sg327
F0.0026706231454005935
sg328
F0.004154302670623145
sg330
F0.0001483679525222552
sS'coercive'
p797
F0.00370919881305638
sg424
F0.00044510385756676556
sg333
F0.00044510385756676556
sg334
F0.00044510385756676556
sS'eradication'
p798
F0.0008902077151335311
sg335
F0.0002967359050445104
sg338
F0.00044510385756676556
sg452
F0.0001483679525222552
sg340
F0.0001483679525222552
sg623
F0.0005934718100890207
sS'LDCs'
p799
F0.0017804154302670622
sS'maintenance'
p800
F0.00044510385756676556
sS'basic'
p801
F0.002225519287833828
sg345
F0.0010385756676557863
sg315
F0.0002967359050445104
sS'meeting'
p802
F0.0035608308605341245
sg349
F0.0013353115727002967
sg213
F0.0002967359050445104
sg350
F0.0057863501483679525
sS'predictable_#-1'
p803
F0.004154302670623145
sg351
F0.00044510385756676556
sS'lives'
p804
F0.0017804154302670622
sS'demand'
p805
F0.0001483679525222552
sS'Round'
p806
F0.004451038575667656
sS'sound'
p807
F0.0017804154302670622
sg357
F0.0001483679525222552
sS'predictable_#-2'
p808
F0.0017804154302670622
sg358
F0.02462908011869436
sS'expanded'
p809
F0.0010385756676557863
sg359
F0.0035608308605341245
sS'frameworks'
p810
F0.0001483679525222552
sg361
F0.0013353115727002967
sg362
F0.00370919881305638
sS'future_#-1'
p811
F0.0013353115727002967
sg364
F0.0001483679525222552
sg366
F0.001483679525222552
sS'experts'
p812
F0.0002967359050445104
sS'technology'
p813
F0.000741839762611276
sg146
F0.0013353115727002967
sg371
F0.0001483679525222552
sS'member'
p814
F0.0017804154302670622
sS'peoples'
p815
F0.0019287833827893175
sS'products'
p816
F0.001483679525222552
sS'higher'
p817
F0.0020771513353115725
sg373
F0.01543026706231454
sS'partners'
p818
F0.0008902077151335311
sS'comprehensive'
p819
F0.0005934718100890207
sg374
F0.0002967359050445104
sS'effect'
p820
F0.0001483679525222552
sg375
F0.000741839762611276
sS'arrangements_#2'
p821
F0.0001483679525222552
sS'rule-based_#1'
p822
F0.0017804154302670622
sg382
F0.000741839762611276
sg639
F0.00044510385756676556
sg384
F0.000741839762611276
sg385
F0.003857566765578635
sS'costs'
p823
F0.0020771513353115725
sS'organization'
p824
F0.0002967359050445104
sS'model'
p825
F0.0005934718100890207
sS'investments'
p826
F0.0005934718100890207
sg640
F0.0001483679525222552
sg390
F0.0005934718100890207
sg391
F0.005489614243323442
sS'proposed'
p827
F0.0002967359050445104
sS'heavily'
p828
F0.0002967359050445104
sS'increasingly'
p829
F0.0002967359050445104
sg393
F0.0010385756676557863
sg643
F0.00044510385756676556
sS'system_#2'
p830
F0.018397626112759646
sS'system_#1'
p831
F0.0001483679525222552
sg395
F0.0010385756676557863
sg397
F0.0026706231454005935
sg398
F0.0005934718100890207
sg400
F0.001483679525222552
sS'improvement'
p832
F0.00044510385756676556
sS'APEC'
p833
F0.0019287833827893175
sg404
F0.0005934718100890207
sS'treatment'
p834
F0.004747774480712166
sS'technological'
p835
F0.000741839762611276
sg644
F0.0005934718100890207
sg405
F0.0011869436201780415
sS'increased'
p836
F0.0001483679525222552
sS'provisions'
p837
F0.001483679525222552
sS'loss'
p838
F0.0017804154302670622
sg406
F0.0017804154302670622
sS'Fully'
p839
F0.0017804154302670622
sg646
F0.0005934718100890207
sS'cultural'
p840
F0.0002967359050445104
sS'burden'
p841
F0.0001483679525222552
sg412
F0.0001483679525222552
sS'success'
p842
F0.0005934718100890207
sg650
F0.0002967359050445104
sg414
F0.0008902077151335311
sg417
F0.0040059347181008904
sg418
F0.00044510385756676556
sS'beneficial'
p843
F0.0002967359050445104
sg420
F0.0002967359050445104
sS'creation'
p844
F0.00044510385756676556
sg652
F0.0002967359050445104
sg653
F0.0016320474777448072
sg423
F0.027893175074183978
sg425
F0.0001483679525222552
sg426
F0.001483679525222552
sS'employment'
p845
F0.0040059347181008904
sg427
F0.0001483679525222552
sg655
F0.0011869436201780415
sg428
F0.000741839762611276
sS'broad'
p846
F0.000741839762611276
sg433
F0.004599406528189911
sg657
F0.0001483679525222552
sS'agreements_#2'
p847
F0.0008902077151335311
sg435
F0.001483679525222552
sS'eliminate'
p848
F0.0017804154302670622
sg436
F0.0001483679525222552
sg439
F0.0001483679525222552
sg440
F0.0002967359050445104
sg659
F0.0028189910979228485
sS'expansion'
p849
F0.001483679525222552
sg442
F0.0005934718100890207
sS'central'
p850
F0.0002967359050445104
sg444
F0.0008902077151335311
sg447
F0.0060830860534124625
sg118
F0.0002967359050445104
sg449
F0.0013353115727002967
sg450
F0.0013353115727002967
sg665
F0.0005934718100890207
sg451
F0.002967359050445104
sg339
F0.0016320474777448072
sg453
F0.0001483679525222552
sg441
F0.0026706231454005935
sg457
F0.002373887240356083
sg84
F0.0019287833827893175
sg689
F0.0002967359050445104
sS'transparent_#-2'
p851
F0.0035608308605341245
sg459
F0.00044510385756676556
sS'Meeting'
p852
F0.0020771513353115725
sS'prepare'
p853
F0.0002967359050445104
sg461
F0.0011869436201780415
sg462
F0.00044510385756676556
sg667
F0.0002967359050445104
sg497
F0.0002967359050445104
sg668
F0.0005934718100890207
sS'agreements'
p854
F0.0020771513353115725
sg624
F0.0011869436201780415
sS'regard'
p855
F0.0020771513353115725
sS'construction'
p856
F0.0001483679525222552
sg470
F0.00044510385756676556
sg669
F0.00044510385756676556
sg471
F0.0011869436201780415
sS'line'
p857
F0.0002967359050445104
sg472
F0.001483679525222552
sg473
F0.0001483679525222552
sg474
F0.0002967359050445104
sS'Uruguay'
p858
F0.004747774480712166
sg476
F0.0011869436201780415
sg90
F0.001483679525222552
sg477
F0.006231454005934718
sS'They'
p859
F0.0010385756676557863
sS'strengthening'
p860
F0.0017804154302670622
sg482
F0.0016320474777448072
sg678
F0.0001483679525222552
sS'general'
p861
F0.0016320474777448072
sg681
F0.008902077151335312
sg683
F0.0008902077151335311
sS'non-discriminatory_#-2'
p862
F0.002967359050445104
sS'non-discriminatory_#-3'
p863
F0.004154302670623145
sg487
F0.0017804154302670622
sS'principles_#-1'
p864
F0.0017804154302670622
sS'role'
p865
F0.0008902077151335311
sS'income'
p866
F0.0011869436201780415
sg685
F0.0016320474777448072
sg490
F0.0001483679525222552
sg492
F0.0005934718100890207
sg494
F0.0002967359050445104
sS'problems'
p867
F0.0001483679525222552
sS'April'
p868
F0.0011869436201780415
sS'important'
p869
F0.0005934718100890207
sS'included'
p870
F0.0020771513353115725
sS'equitable'
p871
F0.010534124629080118
sg496
F0.0001483679525222552
sS'South'
p872
F0.0002967359050445104
sg498
F0.0005934718100890207
sg500
F0.0010385756676557863
sg690
F0.009050445103857567
sg501
F0.0010385756676557863
sg502
F0.0002967359050445104
sS'requires'
p873
F0.0001483679525222552
ssI4
(dp874
S'concept'
p875
F0.000310896937665164
sg4
F0.000155448468832582
sS'caused'
p876
F0.001399036219493238
sg6
F0.002176278563656148
sS'narcotic'
p877
F0.002176278563656148
sg10
F0.000466345406497746
sg13
F0.00699518109746619
sg14
F0.000466345406497746
sg508
F0.001243587750660656
sg16
F0.00077724234416291
sg18
F0.002020830094823566
sg510
F0.002020830094823566
sg20
F0.000155448468832582
sg101
F0.002953520907819058
sg24
F0.00233172703248873
sg25
F0.003575314783149386
sS'landlocked'
p878
F0.000621793875330328
sg28
F0.018032022384579512
sg697
F0.000155448468832582
sS'assistance_#-3'
p879
F0.00077724234416291
sg29
F0.000310896937665164
sg745
F0.001709933157158402
sg9
F0.007927871910461681
sS'continued'
p880
F0.000310896937665164
sg31
F0.006062490284470698
sg32
F0.000155448468832582
sS'applicable'
p881
F0.002798072438986476
sS'viable'
p882
F0.00155448468832582
sg676
F0.000466345406497746
sg35
F0.00233172703248873
sg37
F0.000155448468832582
sg38
F0.00077724234416291
sg39
F0.000310896937665164
sg701
F0.00310896937665164
sg516
F0.002020830094823566
sg517
F0.001243587750660656
sg702
F0.002798072438986476
sg519
F0.000310896937665164
sg41
F0.000466345406497746
sg44
F0.001243587750660656
sg47
F0.0155448468832582
sg704
F0.000310896937665164
sg705
F0.001088139281828074
sg50
F0.027048033576869267
sg51
F0.000310896937665164
sg52
F0.000155448468832582
sg54
F0.000621793875330328
sg55
F0.00388621172081455
sg56
F0.001088139281828074
sg57
F0.023628167262552464
sg58
F0.007927871910461681
sg59
F0.000155448468832582
sS'combating'
p883
F0.002487175501321312
sS'protection'
p884
F0.000932690812995492
sg710
F0.001865381625990984
sg61
F0.001399036219493238
sg524
F0.001088139281828074
sg63
F0.000155448468832582
sS'assistance_#3'
p885
F0.00077724234416291
sg65
F0.008083320379294264
sg712
F0.00233172703248873
sS'justice'
p886
F0.002798072438986476
sg816
F0.000310896937665164
sg69
F0.000310896937665164
sg529
F0.000155448468832582
sg71
F0.00077724234416291
sg713
F0.000310896937665164
sS'Group'
p887
F0.000155448468832582
sS'Justice'
p888
F0.002487175501321312
sS'transit'
p889
F0.002487175501321312
sg74
F0.000310896937665164
sg75
F0.000466345406497746
sg412
F0.007461526503963936
sg77
F0.000621793875330328
sg78
F0.000155448468832582
sg715
F0.001399036219493238
sg716
F0.002487175501321312
sg79
F0.000310896937665164
sS'armed'
p890
F0.000155448468832582
sg534
F0.000155448468832582
sS'illegal'
p891
F0.001399036219493238
sg535
F0.000466345406497746
sg719
F0.000466345406497746
sg86
F0.000310896937665164
sg87
F0.000155448468832582
sg91
F0.000621793875330328
sS'sharing'
p892
F0.00155448468832582
sS'substances'
p893
F0.00233172703248873
sg114
F0.000155448468832582
sS'cooperate'
p894
F0.003730763251981968
sg723
F0.000155448468832582
sg99
F0.000310896937665164
sg537
F0.000310896937665164
sg538
F0.000466345406497746
sg539
F0.000155448468832582
sg104
F0.000155448468832582
sg105
F0.001399036219493238
sg107
F0.000932690812995492
sS'making'
p895
F0.000310896937665164
sg109
F0.000310896937665164
sg111
F0.004352557127312296
sg730
F0.002487175501321312
sg112
F0.000155448468832582
sS'organized'
p896
F0.006528835690968444
sS'high'
p897
F0.000621793875330328
sg115
F0.002176278563656148
sg731
F0.009171459661122337
sg116
F0.000466345406497746
sg736
F0.000466345406497746
sg548
F0.000155448468832582
sg119
F0.000466345406497746
sg544
F0.000155448468832582
sS'regions'
p898
F0.000155448468832582
sg546
F0.00077724234416291
sg122
F0.000466345406497746
sS'collection'
p899
F0.001709933157158402
sg735
F0.000155448468832582
sg738
F0.010570495880615576
sS'data'
p900
F0.002487175501321312
sg124
F0.011036841287113321
sg740
F0.000310896937665164
sg128
F0.00155448468832582
sS'Parties'
p901
F0.007150629566298772
sg130
F0.00233172703248873
sS'operations'
p902
F0.000310896937665164
sg136
F0.0077724234416291
sg553
F0.000310896937665164
sS'forms'
p903
F0.002176278563656148
sg746
F0.002176278563656148
sg354
F0.001243587750660656
sS'criminal'
p904
F0.009016011192289756
sg147
F0.000155448468832582
sS'practice'
p905
F0.00155448468832582
sg149
F0.005129799471475206
sg751
F0.000310896937665164
sg151
F0.000155448468832582
sg152
F0.004352557127312296
sg153
F0.000155448468832582
sS'articles'
p906
F0.003419866314316804
sS'logistical_#3'
p907
F0.002176278563656148
sg156
F0.00077724234416291
sS'mechanisms_#1'
p908
F0.000155448468832582
sS'reasonable'
p909
F0.00077724234416291
sg372
F0.001088139281828074
sS'status'
p910
F0.001865381625990984
sg159
F0.00310896937665164
sS'crimes'
p911
F0.002798072438986476
sg562
F0.001399036219493238
sg162
F0.004197108658479714
sS'conventions'
p912
F0.002020830094823566
sg474
F0.000621793875330328
sg165
F0.000155448468832582
sS'Criminal'
p913
F0.002176278563656148
sg167
F0.00077724234416291
sg168
F0.001399036219493238
sg563
F0.000155448468832582
sg171
F0.001865381625990984
sg511
F0.000155448468832582
sg566
F0.000155448468832582
sg175
F0.001399036219493238
sg62
F0.001243587750660656
sg567
F0.000310896937665164
sg286
F0.002487175501321312
sg178
F0.000932690812995492
sS'approaches'
p914
F0.000466345406497746
sS'disputes'
p915
F0.000155448468832582
sg757
F0.000932690812995492
sg184
F0.000310896937665164
sS'training'
p916
F0.004818902533810042
sg185
F0.000155448468832582
sS'cooperation_#3'
p917
F0.000932690812995492
sS'cooperation_#1'
p918
F0.002487175501321312
sg189
F0.006839732628633608
sS'arrangements_#3'
p919
F0.002020830094823566
sg191
F0.001088139281828074
sg758
F0.000466345406497746
sS'facilitate'
p920
F0.002953520907819058
sg759
F0.000155448468832582
sg760
F0.001399036219493238
sg202
F0.002176278563656148
sg572
F0.003730763251981968
sg574
F0.00155448468832582
sg575
F0.002798072438986476
sg206
F0.00077724234416291
sg207
F0.001709933157158402
sg292
F0.006684284159801026
sS'enforcement'
p921
F0.007150629566298772
sg773
F0.001243587750660656
sg577
F0.000466345406497746
sS'money-laundering'
p922
F0.001865381625990984
sg244
F0.000155448468832582
sg212
F0.000155448468832582
sS'ensuring_#3'
p923
F0.001709933157158402
sg581
F0.001709933157158402
sS'unilateral_#-3'
p924
F0.001865381625990984
sg214
F0.000310896937665164
sg216
F0.002176278563656148
sg583
F0.00155448468832582
sg217
F0.000466345406497746
sS'instruments_#1'
p925
F0.000621793875330328
sg221
F0.000310896937665164
sg224
F0.000466345406497746
sS'material_#2'
p926
F0.002487175501321312
sg225
F0.000155448468832582
sg771
F0.000621793875330328
sg227
F0.001865381625990984
sS'pursued'
p927
F0.000310896937665164
sg229
F0.002176278563656148
sS'transnational'
p928
F0.008083320379294264
sg587
F0.001865381625990984
sS'With'
p929
F0.000155448468832582
sg774
F0.000466345406497746
sg234
F0.000310896937665164
sg588
F0.000310896937665164
sg775
F0.002798072438986476
sg235
F0.008394217316959428
sg236
F0.002642623970153894
sg776
F0.000310896937665164
sg238
F0.002798072438986476
sg239
F0.000155448468832582
sg240
F0.000310896937665164
sg777
F0.002020830094823566
sg243
F0.001865381625990984
sg245
F0.000155448468832582
sg778
F0.002020830094823566
sg779
F0.001709933157158402
sg780
F0.000310896937665164
sg252
F0.000621793875330328
sg253
F0.000155448468832582
sg594
F0.002176278563656148
sS'treaties'
p930
F0.005907041815638116
sg255
F0.000310896937665164
sg257
F0.03653039017565677
sg595
F0.002642623970153894
sg258
F0.000155448468832582
sg48
F0.001709933157158402
sg260
F0.002798072438986476
sg261
F0.001865381625990984
sg262
F0.004974351002642624
sg597
F0.000466345406497746
sg264
F0.008238768848126845
sg787
F0.001865381625990984
sg271
F0.00466345406497746
sg600
F0.000310896937665164
sg272
F0.000466345406497746
sS'coordinating'
p931
F0.001709933157158402
sg274
F0.00466345406497746
sg788
F0.000155448468832582
sg276
F0.00155448468832582
sg277
F0.000310896937665164
sg603
F0.001865381625990984
sg279
F0.001709933157158402
sS'activities_#1'
p932
F0.001243587750660656
sg287
F0.001865381625990984
sg604
F0.001088139281828074
sS'strengthened'
p933
F0.000310896937665164
sg289
F0.000932690812995492
sg291
F0.000932690812995492
sg555
F0.000155448468832582
sS'detection'
p934
F0.002176278563656148
sS'legal_#1'
p935
F0.001865381625990984
sg270
F0.000310896937665164
sg218
F0.000621793875330328
sg295
F0.000466345406497746
sg296
F0.000155448468832582
sg297
F0.000310896937665164
sg299
F0.001088139281828074
sg301
F0.000310896937665164
sS'That'
p936
F0.001088139281828074
sg254
F0.00077724234416291
sg611
F0.000621793875330328
sg304
F0.021607337167728898
sg612
F0.002953520907819058
sS'infrastructure'
p937
F0.001088139281828074
sg306
F0.001243587750660656
sg614
F0.000155448468832582
sg307
F0.001399036219493238
sg310
F0.000621793875330328
sg312
F0.004352557127312296
sS'article'
p938
F0.001865381625990984
sg523
F0.000310896937665164
sg314
F0.000310896937665164
sg316
F0.001243587750660656
sg709
F0.000155448468832582
sg319
F0.000155448468832582
sg320
F0.000466345406497746
sg321
F0.001865381625990984
sg796
F0.000155448468832582
sS'participating'
p939
F0.000155448468832582
sg324
F0.001243587750660656
sg325
F0.002642623970153894
sg327
F0.006062490284470698
sg618
F0.003419866314316804
sg619
F0.002020830094823566
sS'period'
p940
F0.000310896937665164
sg525
F0.00310896937665164
sg424
F0.001399036219493238
sg622
F0.000155448468832582
sg798
F0.001243587750660656
sg335
F0.003264417845484222
sg340
F0.00077724234416291
sg344
F0.001399036219493238
sg854
F0.018187470853412095
sg800
F0.000466345406497746
sS'utilizing'
p941
F0.00155448468832582
sg768
F0.000466345406497746
sS'drugs'
p942
F0.002487175501321312
sg626
F0.002176278563656148
sg350
F0.00310896937665164
sg351
F0.002487175501321312
sS'child'
p943
F0.002020830094823566
sg355
F0.000155448468832582
sS'present'
p944
F0.00466345406497746
sS'judicial'
p945
F0.004352557127312296
sg810
F0.000621793875330328
sg362
F0.000155448468832582
sg811
F0.000155448468832582
sg628
F0.000466345406497746
sg363
F0.001088139281828074
sg364
F0.000310896937665164
sg365
F0.000155448468832582
sg366
F0.011036841287113321
sg631
F0.008705114254624592
sg367
F0.004041660189647132
sg368
F0.001865381625990984
sS'spheres'
p946
F0.001865381625990984
sg814
F0.000155448468832582
sS'geographical'
p947
F0.00077724234416291
sS'terrorism'
p948
F0.004974351002642624
sS'difficult'
p949
F0.000932690812995492
sg373
F0.004352557127312296
sS'independent'
p950
F0.00155448468832582
sg557
F0.00233172703248873
sg819
F0.000155448468832582
sg374
F0.000310896937665164
sg820
F0.000621793875330328
sg376
F0.00155448468832582
sg377
F0.000310896937665164
sS'arrangements_#1'
p951
F0.002020830094823566
sg821
F0.001709933157158402
sg378
F0.001709933157158402
sS'purpose'
p952
F0.001243587750660656
sg379
F0.000155448468832582
sg380
F0.000621793875330328
sg635
F0.000155448468832582
sg385
F0.030778796828851235
sg387
F0.000466345406497746
sS'coordinate'
p953
F0.001399036219493238
sg388
F0.002020830094823566
sg825
F0.002642623970153894
sg640
F0.007927871910461681
sg390
F0.000155448468832582
sg391
F0.003264417845484222
sg827
F0.001243587750660656
sg642
F0.00233172703248873
sg393
F0.002487175501321312
sg643
F0.00155448468832582
sS'Crime'
p954
F0.002798072438986476
sg394
F0.000621793875330328
sg398
F0.000932690812995492
sS'trafficking'
p955
F0.004041660189647132
sg399
F0.003575314783149386
sS'tourism'
p956
F0.000621793875330328
sS'regulatory'
p957
F0.001088139281828074
sg832
F0.000310896937665164
sg401
F0.00077724234416291
sg411
F0.000310896937665164
sS'delegations'
p958
F0.000310896937665164
sg835
F0.00233172703248873
sg865
F0.000155448468832582
sS'administrative'
p959
F0.00155448468832582
sg405
F0.000932690812995492
sg837
F0.002020830094823566
sg406
F0.001709933157158402
sg407
F0.00077724234416291
sg649
F0.004352557127312296
sg409
F0.00310896937665164
sg410
F0.000932690812995492
sS'Prevention'
p960
F0.002487175501321312
sg413
F0.001243587750660656
sS'levels_#1'
p961
F0.000310896937665164
sg414
F0.000155448468832582
sg416
F0.000621793875330328
sg155
F0.000155448468832582
sg651
F0.00233172703248873
sg417
F0.000155448468832582
sg418
F0.000466345406497746
sg420
F0.001088139281828074
sS'authority'
p962
F0.00077724234416291
sg652
F0.000466345406497746
sg421
F0.004197108658479714
sg423
F0.000155448468832582
sS'contribute_#2'
p963
F0.001709933157158402
sg493
F0.006684284159801026
sg429
F0.001709933157158402
sg430
F0.000155448468832582
sg431
F0.000155448468832582
sg432
F0.000621793875330328
sS'Parties_#-3'
p964
F0.002798072438986476
sg657
F0.006373387222135862
sg847
F0.001399036219493238
sS'agreements_#3'
p965
F0.002020830094823566
sS'agreements_#1'
p966
F0.008705114254624592
sg439
F0.002487175501321312
sg45
F0.00233172703248873
sg659
F0.000310896937665164
sg442
F0.002642623970153894
sg88
F0.001709933157158402
sg850
F0.00155448468832582
sS'conclude_#-2'
p967
F0.002487175501321312
sS'violence'
p968
F0.002798072438986476
sg449
F0.002798072438986476
sS'logistical'
p969
F0.00233172703248873
sS'commit'
p970
F0.001865381625990984
sg451
F0.001399036219493238
sg433
F0.000310896937665164
sg453
F0.000155448468832582
sg455
F0.00310896937665164
sg456
F0.000155448468832582
sg689
F0.000155448468832582
sS'parties'
p971
F0.00155448468832582
sg853
F0.00155448468832582
sg461
F0.000466345406497746
sg666
F0.000932690812995492
sg462
F0.000621793875330328
sS'legislation'
p972
F0.00388621172081455
sg389
F0.00077724234416291
sS'national_#-2'
p973
F0.000310896937665164
sg467
F0.000310896937665164
sg472
F0.003730763251981968
sg672
F0.000466345406497746
sS'signed'
p974
F0.000155448468832582
sg478
F0.000155448468832582
sg860
F0.003730763251981968
sg677
F0.000155448468832582
sg482
F0.003264417845484222
sg861
F0.002020830094823566
sg485
F0.001865381625990984
sS'mutual'
p975
F0.005596144877972952
sg166
F0.002642623970153894
sS'preventing'
p976
F0.001709933157158402
sS'application'
p977
F0.002487175501321312
sg489
F0.000155448468832582
sS'attaining'
p978
F0.001865381625990984
sg685
F0.001709933157158402
sg491
F0.000155448468832582
sg494
F0.000466345406497746
sS'prosecution'
p979
F0.00310896937665164
sS'regulations'
p980
F0.000621793875330328
sg869
F0.000155448468832582
sg533
F0.000310896937665164
sg495
F0.003730763251981968
sg499
F0.035131353956163534
sS'treaties_#1'
p981
F0.002642623970153894
sg502
F0.000932690812995492
sg691
F0.000310896937665164
sg873
F0.000155448468832582
sg656
F0.001243587750660656
ssI5
(dp982
g2
F0.0008589589417625838
sg390
F0.0003435835767050335
sg4
F0.0017179178835251675
sg6
F0.0029204604019927847
sg7
F0.0005153753650575503
sg8
F0.0005153753650575503
sg9
F0.0008589589417625838
sS'facilities'
p983
F0.0018897096718776842
sg11
F0.0003435835767050335
sg12
F0.0003435835767050335
sg694
F0.004123002920460402
sg14
F0.0012025425184676172
sg508
F0.0008589589417625838
sg509
F0.0003435835767050335
sS'eligible'
p984
F0.002061501460230201
sg17
F0.0005153753650575503
sg780
F0.0003435835767050335
sg19
F0.0037794193437553684
sg20
F0.0010307507301151005
sg21
F0.00017179178835251675
sg101
F0.0032640439786978184
sg696
F0.0003435835767050335
sg24
F0.010822882666208556
sg25
F0.0008589589417625838
sg878
F0.002748668613640268
sg27
F0.00017179178835251675
sS'forums'
p985
F0.0003435835767050335
sg697
F0.0015461260951726507
sg879
F0.0015461260951726507
sg745
F0.0003435835767050335
sg880
F0.003951211132107885
sS'Facility'
p986
F0.0017179178835251675
sg32
F0.00017179178835251675
sg699
F0.0025768768252877514
sg33
F0.00017179178835251675
sg34
F0.0005153753650575503
sg676
F0.00017179178835251675
sg37
F0.0018897096718776842
sg38
F0.0029204604019927847
sS'noted'
p987
F0.0012025425184676172
sg40
F0.0012025425184676172
sS'requirements'
p988
F0.0017179178835251675
sg520
F0.0022332932485827177
sS'past'
p989
F0.0012025425184676172
sS'East'
p990
F0.000687167153410067
sg43
F0.0046383782855179525
sg47
F0.015117677375021473
sg704
F0.0005153753650575503
sg387
F0.0005153753650575503
sg48
F0.004294794708812919
sg49
F0.005497337227280536
sg50
F0.00635629616904312
sg51
F0.00017179178835251675
sg52
F0.004123002920460402
sg53
F0.000687167153410067
sg54
F0.000687167153410067
sg55
F0.001374334306820134
sg56
F0.006184504380690603
sg57
F0.010307507301151006
sg58
F0.0010307507301151005
sg59
F0.0005153753650575503
sg710
F0.0012025425184676172
sg524
F0.003951211132107885
sg63
F0.0003435835767050335
sg525
F0.0008589589417625838
sg65
F0.005497337227280536
sg712
F0.00017179178835251675
sg68
F0.0018897096718776842
sg528
F0.0012025425184676172
sS'development_#2'
p991
F0.0022332932485827177
sg70
F0.0005153753650575503
sg887
F0.0003435835767050335
sS'lending'
p992
F0.0037794193437553684
sg783
F0.0003435835767050335
sg74
F0.004981961862222986
sg75
F0.0010307507301151005
sg412
F0.00017179178835251675
sg77
F0.0010307507301151005
sg78
F0.000687167153410067
sg715
F0.0012025425184676172
sg532
F0.0012025425184676172
sg533
F0.00017179178835251675
sg80
F0.002061501460230201
sg81
F0.0024050850369352343
sg82
F0.00017179178835251675
sg83
F0.0010307507301151005
sg510
F0.000687167153410067
sg86
F0.00017179178835251675
sg87
F0.0003435835767050335
sg89
F0.0036076275554028517
sg721
F0.0030922521903453013
sg92
F0.0018897096718776842
sg893
F0.00017179178835251675
sg93
F0.0012025425184676172
sg894
F0.0003435835767050335
sg724
F0.0015461260951726507
sg95
F0.004810170073870469
sg725
F0.0036076275554028517
sS'financial_#-3'
p993
F0.002748668613640268
sg97
F0.00017179178835251675
sg23
F0.00017179178835251675
sg100
F0.00017179178835251675
sg537
F0.00017179178835251675
sg538
F0.0018897096718776842
sg539
F0.000687167153410067
sg513
F0.0003435835767050335
sg104
F0.0010307507301151005
sg599
F0.00017179178835251675
sg106
F0.00017179178835251675
sg107
F0.0018897096718776842
sg895
F0.0003435835767050335
sg110
F0.0010307507301151005
sg69
F0.005669129015633052
sg72
F0.0003435835767050335
sg112
F0.0008589589417625838
sg113
F0.000687167153410067
sg114
F0.0003435835767050335
sg541
F0.000687167153410067
sg897
F0.001374334306820134
sg115
F0.002061501460230201
sg731
F0.0008589589417625838
sg116
F0.001374334306820134
sg736
F0.0010307507301151005
sg548
F0.0015461260951726507
sg125
F0.0015461260951726507
sg119
F0.005153753650575503
sg120
F0.0005153753650575503
sg546
F0.0008589589417625838
sg733
F0.0024050850369352343
sg122
F0.00017179178835251675
sg665
F0.001374334306820134
sg735
F0.0017179178835251675
sg542
F0.0003435835767050335
sg126
F0.0008589589417625838
sg128
F0.0003435835767050335
sg129
F0.004294794708812919
sg130
F0.0032640439786978184
sg902
F0.0003435835767050335
sg742
F0.000687167153410067
sg132
F0.0017179178835251675
sg133
F0.014602302009963923
sS'exchanges'
p994
F0.00017179178835251675
sg134
F0.0010307507301151005
sg136
F0.005325545438928019
sg551
F0.002748668613640268
sg137
F0.0003435835767050335
sg30
F0.0005153753650575503
sg138
F0.00017179178835251675
sg140
F0.00017179178835251675
sg746
F0.0012025425184676172
sg747
F0.0032640439786978184
sg142
F0.0036076275554028517
sg748
F0.00017179178835251675
sg144
F0.0024050850369352343
sg145
F0.0005153753650575503
sg146
F0.0018897096718776842
sg603
F0.0003435835767050335
sg197
F0.0003435835767050335
sg149
F0.0015461260951726507
sg751
F0.0003435835767050335
sg152
F0.002061501460230201
sg752
F0.004294794708812919
sg154
F0.0015461260951726507
sg155
F0.0008589589417625838
sg31
F0.002061501460230201
sS'identified'
p995
F0.0005153753650575503
sg909
F0.00017179178835251675
sg158
F0.0005153753650575503
sg372
F0.0008589589417625838
sS'lasting'
p996
F0.0008589589417625838
sg159
F0.030235354750042947
sg754
F0.001374334306820134
sg160
F0.0015461260951726507
sg161
F0.0032640439786978184
sg912
F0.00017179178835251675
sg165
F0.00017179178835251675
sg755
F0.001374334306820134
sg166
F0.00687167153410067
sg167
F0.0025768768252877514
sg168
F0.0025768768252877514
sS'creditor'
p997
F0.003435835767050335
sg563
F0.0003435835767050335
sg171
F0.0017179178835251675
sg172
F0.0003435835767050335
sg566
F0.0012025425184676172
sg175
F0.0008589589417625838
sg177
F0.0003435835767050335
sg567
F0.0005153753650575503
sg178
F0.0003435835767050335
sg914
F0.0005153753650575503
sg182
F0.0010307507301151005
sg183
F0.0029204604019927847
sg569
F0.00017179178835251675
sg919
F0.00017179178835251675
sg191
F0.00017179178835251675
sg734
F0.0003435835767050335
sg192
F0.00687167153410067
sg193
F0.0003435835767050335
sS'indebted'
p998
F0.006528087957395637
sg194
F0.001374334306820134
sg195
F0.0022332932485827177
sg196
F0.00017179178835251675
sg759
F0.0025768768252877514
sg760
F0.0005153753650575503
sg202
F0.0005153753650575503
sg204
F0.0012025425184676172
sg205
F0.0024050850369352343
sS'stock'
p999
F0.002061501460230201
sg575
F0.0003435835767050335
sg207
F0.0008589589417625838
sS'IMF'
p1000
F0.0024050850369352343
sg244
F0.000687167153410067
sg212
F0.005325545438928019
sg582
F0.00017179178835251675
sg216
F0.0005153753650575503
sg767
F0.0005153753650575503
sg217
F0.0005153753650575503
sS'creditors'
p1001
F0.003435835767050335
sg584
F0.000687167153410067
sg221
F0.0015461260951726507
sg769
F0.000687167153410067
sg223
F0.00017179178835251675
sg770
F0.00017179178835251675
sg224
F0.0072152551108057034
sg226
F0.0017179178835251675
sg265
F0.0010307507301151005
sS'efficient'
p1002
F0.0003435835767050335
sg927
F0.001374334306820134
sg403
F0.0005153753650575503
sg859
F0.0005153753650575503
sg586
F0.0012025425184676172
sg232
F0.0032640439786978184
sg929
F0.000687167153410067
sg233
F0.003951211132107885
sg235
F0.007730630475863254
sg237
F0.0008589589417625838
sg776
F0.002748668613640268
sg238
F0.0030922521903453013
sg805
F0.00017179178835251675
sg239
F0.0003435835767050335
sg240
F0.000687167153410067
sg777
F0.0003435835767050335
sg243
F0.0003435835767050335
sg245
F0.0003435835767050335
sg246
F0.000687167153410067
sg247
F0.01906888850712936
sg249
F0.000687167153410067
sg250
F0.000687167153410067
sg251
F0.00017179178835251675
sg252
F0.0010307507301151005
sg253
F0.0005153753650575503
sg793
F0.002061501460230201
sg255
F0.00017179178835251675
sg782
F0.000687167153410067
sg256
F0.0022332932485827177
sg257
F0.0410582374162515
sg595
F0.0005153753650575503
sg258
F0.00017179178835251675
sg131
F0.0024050850369352343
sg259
F0.000687167153410067
sg705
F0.0024050850369352343
sg885
F0.0012025425184676172
sg261
F0.0015461260951726507
sg262
F0.008589589417625838
sg266
F0.0008589589417625838
sg792
F0.002061501460230201
sg267
F0.00017179178835251675
sg268
F0.00017179178835251675
sg269
F0.0010307507301151005
sg272
F0.0017179178835251675
sg602
F0.0005153753650575503
sS'closely'
p1003
F0.0005153753650575503
sg931
F0.0005153753650575503
sg277
F0.0003435835767050335
sg278
F0.0017179178835251675
sg280
F0.00017179178835251675
sg281
F0.055145164061157874
sg85
F0.0029204604019927847
sg284
F0.0012025425184676172
sg287
F0.0029204604019927847
sg604
F0.000687167153410067
sg933
F0.0018897096718776842
sg791
F0.0005153753650575503
sg292
F0.001374334306820134
sg294
F0.00017179178835251675
sg296
F0.0008589589417625838
sg298
F0.00017179178835251675
sg299
F0.0012025425184676172
sg628
F0.0008589589417625838
sg301
F0.0017179178835251675
sg608
F0.00017179178835251675
sg936
F0.00017179178835251675
sg609
F0.0010307507301151005
sg302
F0.0003435835767050335
sg303
F0.0003435835767050335
sS'multifaceted'
p1004
F0.00017179178835251675
sg304
F0.0015461260951726507
sg305
F0.0003435835767050335
sg15
F0.003435835767050335
sg614
F0.0005153753650575503
sS'extend'
p1005
F0.0010307507301151005
sg307
F0.0003435835767050335
sg309
F0.0012025425184676172
sg310
F0.0029204604019927847
sg615
F0.0008589589417625838
sg311
F0.004294794708812919
sS'debt'
p1006
F0.032640439786978184
sg313
F0.011166466242913588
sg799
F0.0003435835767050335
sg315
F0.0012025425184676172
sg317
F0.0008589589417625838
sg319
F0.0022332932485827177
sg363
F0.0005153753650575503
sg795
F0.0003435835767050335
sg796
F0.0030922521903453013
sg323
F0.0003435835767050335
sg324
F0.0005153753650575503
sg60
F0.004810170073870469
sg325
F0.0012025425184676172
sg326
F0.0012025425184676172
sg327
F0.0003435835767050335
sg940
F0.0003435835767050335
sg328
F0.001374334306820134
sg620
F0.004981961862222986
sS'debt_#1'
p1007
F0.004466586497165435
sg621
F0.0005153753650575503
sg798
F0.002748668613640268
sg335
F0.000687167153410067
sg336
F0.009963923724445971
sg337
F0.0015461260951726507
sg339
F0.0012025425184676172
sg441
F0.0003435835767050335
sg458
F0.0015461260951726507
sg343
F0.003435835767050335
sg623
F0.004810170073870469
sg344
F0.0008589589417625838
sg314
F0.000687167153410067
sg800
F0.000687167153410067
sg801
F0.002748668613640268
sg347
F0.00017179178835251675
sg349
F0.001374334306820134
sg626
F0.0010307507301151005
sg496
F0.00017179178835251675
sS'fund'
p1008
F0.0018897096718776842
sg351
F0.0017179178835251675
sg353
F0.0037794193437553684
sg943
F0.00017179178835251675
sg807
F0.0008589589417625838
sg357
F0.0012025425184676172
sg358
F0.018038137777014258
sg810
F0.00017179178835251675
sg361
F0.0018897096718776842
sg362
F0.0008589589417625838
sS'aid'
p1009
F0.002748668613640268
sg365
F0.0003435835767050335
sg813
F0.0032640439786978184
sg750
F0.00017179178835251675
sg218
F0.0008589589417625838
sS'countries_#3'
p1010
F0.0010307507301151005
sg947
F0.0008589589417625838
sg816
F0.0003435835767050335
sg949
F0.00017179178835251675
sg373
F0.023535475004294794
sg950
F0.00017179178835251675
sg818
F0.0005153753650575503
sg819
F0.0003435835767050335
sg374
F0.0022332932485827177
sg820
F0.000687167153410067
sg375
F0.0036076275554028517
sg376
F0.001374334306820134
sg377
F0.0003435835767050335
sS'macroeconomic'
p1011
F0.0012025425184676172
sg378
F0.0003435835767050335
sg952
F0.00017179178835251675
sg380
F0.0010307507301151005
sg385
F0.003435835767050335
sg386
F0.0010307507301151005
sg823
F0.0003435835767050335
sS'relief'
p1012
F0.0030922521903453013
sS'alleviate'
p1013
F0.002061501460230201
sg953
F0.0012025425184676172
sg826
F0.0024050850369352343
sg108
F0.0022332932485827177
sg391
F0.00017179178835251675
sg827
F0.000687167153410067
sg828
F0.004466586497165435
sg829
F0.0005153753650575503
sg643
F0.0003435835767050335
sg394
F0.0003435835767050335
sg396
F0.0010307507301151005
sg290
F0.0003435835767050335
sg398
F0.000687167153410067
sg399
F0.00017179178835251675
sS'capacity-building'
p1014
F0.0012025425184676172
sg832
F0.0015461260951726507
sg404
F0.000687167153410067
sg834
F0.00017179178835251675
sg958
F0.0010307507301151005
sg835
F0.0003435835767050335
sg865
F0.0005153753650575503
sg644
F0.0003435835767050335
sg645
F0.0022332932485827177
sg889
F0.0010307507301151005
sg836
F0.0010307507301151005
sg837
F0.0005153753650575503
sg406
F0.0003435835767050335
sg648
F0.00017179178835251675
sg841
F0.0036076275554028517
sg411
F0.0018897096718776842
sg842
F0.00017179178835251675
sS'communications'
p1015
F0.0010307507301151005
sg414
F0.00017179178835251675
sg415
F0.003951211132107885
sg416
F0.00017179178835251675
sg417
F0.0005153753650575503
sg418
F0.0003435835767050335
sg419
F0.0003435835767050335
sS'agencies_#3'
p1016
F0.0022332932485827177
sg420
F0.00017179178835251675
sg844
F0.0003435835767050335
sg652
F0.0008589589417625838
sg653
F0.000687167153410067
sg422
F0.0010307507301151005
sg423
F0.005325545438928019
sg331
F0.0015461260951726507
sg425
F0.0029204604019927847
sg845
F0.00017179178835251675
sS'transport'
p1017
F0.0010307507301151005
sg430
F0.0010307507301151005
sg431
F0.0010307507301151005
sg432
F0.0022332932485827177
sg433
F0.0003435835767050335
sg434
F0.0018897096718776842
sg435
F0.000687167153410067
sg436
F0.0003435835767050335
sg438
F0.00017179178835251675
sg658
F0.004466586497165435
sg849
F0.0003435835767050335
sg661
F0.0003435835767050335
sS'loans'
p1018
F0.002748668613640268
sg444
F0.0017179178835251675
sg445
F0.001374334306820134
sg448
F0.0024050850369352343
sg449
F0.0005153753650575503
sg450
F0.0012025425184676172
sg273
F0.00017179178835251675
sg451
F0.008074214052568288
sg452
F0.0029204604019927847
sg455
F0.00017179178835251675
sg457
F0.0015461260951726507
sg689
F0.0010307507301151005
sg459
F0.00017179178835251675
sg460
F0.0046383782855179525
sg666
F0.0017179178835251675
sg462
F0.00017179178835251675
sS'organizations_#2'
p1019
F0.0003435835767050335
sS'ODA'
p1020
F0.0025768768252877514
sg467
F0.000687167153410067
sg468
F0.0032640439786978184
sg855
F0.0012025425184676172
sg856
F0.0010307507301151005
sg669
F0.0003435835767050335
sg471
F0.0018897096718776842
sg857
F0.0015461260951726507
sg472
F0.0005153753650575503
sg473
F0.00017179178835251675
sS'aid_#2'
p1021
F0.0003435835767050335
sS'assessment'
p1022
F0.00017179178835251675
sg671
F0.0073870468991582205
sg476
F0.0017179178835251675
sg477
F0.0037794193437553684
sg478
F0.003951211132107885
sg479
F0.0008589589417625838
sg860
F0.0008589589417625838
sg482
F0.000687167153410067
sg861
F0.00017179178835251675
sg484
F0.0008589589417625838
sS'education'
p1023
F0.00017179178835251675
sg975
F0.000687167153410067
sg489
F0.00017179178835251675
sg866
F0.0005153753650575503
sg685
F0.00017179178835251675
sg490
F0.006528087957395637
sg492
F0.0003435835767050335
sg494
F0.00017179178835251675
sS'cooperation_#-2'
p1024
F0.00017179178835251675
sg867
F0.006184504380690603
sg868
F0.000687167153410067
sg869
F0.00017179178835251675
sg870
F0.0012025425184676172
sg871
F0.0008589589417625838
sg499
F0.02009963923724446
sg501
F0.001374334306820134
sS'resolving'
p1025
F0.000687167153410067
sg873
F0.0015461260951726507
sg505
F0.00017179178835251675
ssI6
(dp1026
g875
F0.002555729092716172
sg4
F0.0001419849495953429
sS'diplomacy'
p1027
F0.0034076387902882295
sg876
F0.0005679397983813716
sg6
F0.006389322731790431
sg7
F0.0007099247479767144
sg507
F0.0017038193951441148
sg8
F0.0011358795967627432
sg13
F0.0017038193951441148
sg693
F0.0008519096975720574
sg694
F0.0001419849495953429
sg14
F0.001561834445548772
sg508
F0.009087036774101945
sg509
F0.0007099247479767144
sg695
F0.0008519096975720574
sg16
F0.001277864546358086
sg18
F0.0034076387902882295
sg251
F0.0005679397983813716
sg20
F0.0018458043447394576
sg21
F0.001277864546358086
sg22
F0.0002839698991906858
sg23
F0.0008519096975720574
sg696
F0.0002839698991906858
sg24
F0.0004259548487860287
sg25
F0.0029816839415022006
sg170
F0.0019877892943348007
sg28
F0.011074826068436745
sg100
F0.0002839698991906858
sg512
F0.0005679397983813716
sg413
F0.0002839698991906858
sg30
F0.0008519096975720574
sg880
F0.0004259548487860287
sg31
F0.006673292630981116
sS'skills'
p1028
F0.0008519096975720574
sg699
F0.0009938946471674003
sg33
F0.0005679397983813716
sg34
F0.0008519096975720574
sg103
F0.0005679397983813716
sg37
F0.001277864546358086
sg987
F0.0004259548487860287
sg39
F0.0005679397983813716
sg701
F0.0001419849495953429
sg516
F0.0007099247479767144
sg517
F0.002413744143120829
sS'leaders'
p1029
F0.001561834445548772
sg989
F0.0021297742439301435
sg521
F0.0008519096975720574
sg990
F0.0018458043447394576
sg439
F0.0007099247479767144
sg44
F0.002555729092716172
sg47
F0.0001419849495953429
sg704
F0.001561834445548772
sg705
F0.0008519096975720574
sg706
F0.0011358795967627432
sg50
F0.04216953002981684
sg51
F0.0001419849495953429
sg522
F0.0008519096975720574
sg53
F0.0002839698991906858
sg54
F0.0005679397983813716
sg55
F0.0005679397983813716
sg57
F0.010222916370864688
sg58
F0.0011358795967627432
sg59
F0.0002839698991906858
sg709
F0.0002839698991906858
sg884
F0.0014198494959534289
sg63
F0.0035496237398835724
sg64
F0.001561834445548772
sg526
F0.0011358795967627432
sg65
F0.0005679397983813716
sg712
F0.0008519096975720574
sg946
F0.0005679397983813716
sg528
F0.0004259548487860287
sg991
F0.0004259548487860287
sg70
F0.004969473235837001
sg529
F0.004259548487860287
sg975
F0.004259548487860287
sg72
F0.0008519096975720574
sg887
F0.0008519096975720574
sg783
F0.0001419849495953429
sg74
F0.0002839698991906858
sg75
F0.0011358795967627432
sg76
F0.0002839698991906858
sg715
F0.0007099247479767144
sg716
F0.0005679397983813716
sg79
F0.0009938946471674003
sg985
F0.0001419849495953429
sg80
F0.0002839698991906858
sg534
F0.0004259548487860287
sg82
F0.0001419849495953429
sg891
F0.0004259548487860287
sg83
F0.001561834445548772
sg535
F0.0001419849495953429
sg89
F0.0001419849495953429
sg92
F0.0001419849495953429
sg748
F0.0022717591935254864
sg892
F0.0002839698991906858
sg536
F0.0001419849495953429
sg114
F0.0005679397983813716
sg722
F0.0005679397983813716
sg94
F0.0008519096975720574
sg724
F0.0004259548487860287
sg95
F0.0007099247479767144
sg725
F0.0008519096975720574
sg97
F0.0008519096975720574
sg403
F0.0005679397983813716
sg98
F0.0011358795967627432
sg99
F0.0017038193951441148
sg727
F0.003123668891097544
sg537
F0.0001419849495953429
sg538
F0.0002839698991906858
sg102
F0.0034076387902882295
sg513
F0.0004259548487860287
sg728
F0.0014198494959534289
sg599
F0.0014198494959534289
sg107
F0.0001419849495953429
sg895
F0.0017038193951441148
sg591
F0.0014198494959534289
sg111
F0.004543518387050973
sg540
F0.0017038193951441148
sg112
F0.0009938946471674003
sg113
F0.0073832173789578305
sg896
F0.0008519096975720574
sg731
F0.0007099247479767144
sg116
F0.0007099247479767144
sg736
F0.0004259548487860287
sg898
F0.0018458043447394576
sg120
F0.001277864546358086
sg546
F0.003833593639074258
sg600
F0.0002839698991906858
sg121
F0.0002839698991906858
sg735
F0.0009938946471674003
sg542
F0.0017038193951441148
sg737
F0.0007099247479767144
sg738
F0.003123668891097544
sg123
F0.0002839698991906858
sg124
F0.0032656538406928867
sg740
F0.0009938946471674003
sg126
F0.0001419849495953429
sS'Middle'
p1030
F0.0017038193951441148
sg127
F0.0005679397983813716
sg128
F0.0001419849495953429
sg741
F0.0001419849495953429
sg130
F0.003833593639074258
sg902
F0.0011358795967627432
sg708
F0.0029816839415022006
sg742
F0.0001419849495953429
sg132
F0.0007099247479767144
sg133
F0.0001419849495953429
sg134
F0.0001419849495953429
sg744
F0.0028396989919068577
sg135
F0.001561834445548772
sg136
F0.0017038193951441148
sg551
F0.0002839698991906858
sg137
F0.0007099247479767144
sg138
F0.0002839698991906858
sg553
F0.0005679397983813716
sg903
F0.0008519096975720574
sg747
F0.002555729092716172
sg352
F0.001561834445548772
sg555
F0.0018458043447394576
sg143
F0.0004259548487860287
sg145
F0.0002839698991906858
sg750
F0.0017038193951441148
sS'seeking'
p1031
F0.0017038193951441148
sg905
F0.0014198494959534289
sg603
F0.0005679397983813716
sg149
F0.0001419849495953429
sS'resolve'
p1032
F0.0009938946471674003
sg560
F0.0005679397983813716
sg153
F0.0017038193951441148
sg155
F0.0008519096975720574
sg995
F0.0002839698991906858
sg753
F0.0021297742439301435
sg908
F0.0014198494959534289
sg157
F0.0014198494959534289
sg282
F0.001561834445548772
sg996
F0.001277864546358086
sg93
F0.0002839698991906858
sg159
F0.002555729092716172
sg160
F0.0001419849495953429
sg161
F0.0001419849495953429
sg562
F0.0029816839415022006
sg162
F0.0019877892943348007
sg163
F0.0029816839415022006
sg166
F0.0005679397983813716
sg167
F0.0001419849495953429
sg563
F0.0004259548487860287
sg147
F0.0028396989919068577
sg171
F0.0005679397983813716
sg564
F0.0002839698991906858
sg511
F0.005963367883004401
sg173
F0.0007099247479767144
sg653
F0.0007099247479767144
sg566
F0.0005679397983813716
sg175
F0.0004259548487860287
sg567
F0.004117563538264944
sg286
F0.0002839698991906858
sg178
F0.0021297742439301435
sg179
F0.0014198494959534289
sg634
F0.0001419849495953429
sg915
F0.0018458043447394576
sg180
F0.0008519096975720574
sg757
F0.0011358795967627432
sg568
F0.0004259548487860287
sg184
F0.0011358795967627432
sg917
F0.0008519096975720574
sg569
F0.0028396989919068577
sg918
F0.006815277580576459
sg191
F0.0011358795967627432
sg734
F0.0002839698991906858
sg758
F0.0008519096975720574
sg920
F0.0002839698991906858
sg192
F0.0019877892943348007
sg193
F0.0001419849495953429
sg194
F0.0036916086894789152
sg195
F0.0001419849495953429
sg196
F0.0008519096975720574
sg759
F0.0004259548487860287
sg760
F0.0007099247479767144
sg198
F0.0009938946471674003
sg761
F0.010222916370864688
sg763
F0.0001419849495953429
sg199
F0.0002839698991906858
sg791
F0.0007099247479767144
sg201
F0.0004259548487860287
sg202
F0.006105352832599744
sg203
F0.0009938946471674003
sg204
F0.0005679397983813716
sg572
F0.0004259548487860287
sg573
F0.0011358795967627432
sg575
F0.0005679397983813716
sg206
F0.0001419849495953429
sg764
F0.0017038193951441148
sg921
F0.0002839698991906858
sg577
F0.0005679397983813716
sS'environmental'
p1033
F0.0011358795967627432
sg244
F0.004827488286241658
sg578
F0.002413744143120829
sg580
F0.0004259548487860287
sg923
F0.0001419849495953429
sg581
F0.0007099247479767144
sg766
F0.0011358795967627432
sS'diplomatic'
p1034
F0.0022717591935254864
sg582
F0.0017038193951441148
sg300
F0.0005679397983813716
sg216
F0.0028396989919068577
sg767
F0.0008519096975720574
sg583
F0.0001419849495953429
sg217
F0.0004259548487860287
sg925
F0.0008519096975720574
sg219
F0.002413744143120829
sg768
F0.0008519096975720574
sg222
F0.0002839698991906858
sg223
F0.001561834445548772
sg224
F0.0036916086894789152
sg527
F0.0018458043447394576
sg771
F0.0004259548487860287
sg772
F0.0019877892943348007
sg927
F0.0002839698991906858
sg229
F0.0005679397983813716
sg230
F0.005537413034218373
sS'peacekeeping'
p1035
F0.0019877892943348007
sg231
F0.0001419849495953429
sg585
F0.0014198494959534289
sg586
F0.0032656538406928867
sg232
F0.0001419849495953429
sg587
F0.0005679397983813716
sg929
F0.0009938946471674003
sg774
F0.0008519096975720574
sS'play'
p1036
F0.0034076387902882295
sg855
F0.0008519096975720574
sg236
F0.0002839698991906858
sg388
F0.0004259548487860287
sS'threats'
p1037
F0.002555729092716172
sg238
F0.016044299304273747
sg590
F0.0009938946471674003
sg239
F0.0002839698991906858
sg241
F0.0029816839415022006
sg680
F0.0014198494959534289
sg592
F0.0004259548487860287
sg245
F0.0001419849495953429
sg247
F0.001277864546358086
sg248
F0.0011358795967627432
sg779
F0.0004259548487860287
sg250
F0.0008519096975720574
sg593
F0.0029816839415022006
sg252
F0.001277864546358086
sg253
F0.0014198494959534289
sg781
F0.0005679397983813716
sg930
F0.002555729092716172
sg782
F0.0014198494959534289
sg257
F0.04855885276160727
sg258
F0.0008519096975720574
sg596
F0.003123668891097544
sg259
F0.0021297742439301435
sg48
F0.0002839698991906858
sg260
F0.0018458043447394576
sg711
F0.0005679397983813716
sg263
F0.0005679397983813716
sg597
F0.001561834445548772
sg264
F0.0001419849495953429
sg266
F0.0007099247479767144
sg598
F0.0014198494959534289
sg268
F0.0005679397983813716
sg269
F0.001561834445548772
sg271
F0.0019877892943348007
sg49
F0.002697714042311515
sg272
F0.0021297742439301435
sg1003
F0.0002839698991906858
sg994
F0.002413744143120829
sg274
F0.0004259548487860287
sg275
F0.003833593639074258
sg743
F0.0018458043447394576
sg788
F0.0019877892943348007
sg276
F0.004117563538264944
sg277
F0.001277864546358086
sg278
F0.0001419849495953429
sg707
F0.0005679397983813716
sg280
F0.0005679397983813716
sg281
F0.015050404657106347
sg85
F0.0017038193951441148
sg790
F0.0005679397983813716
sg284
F0.005111458185432344
sg932
F0.0005679397983813716
sg287
F0.0021297742439301435
sg604
F0.004259548487860287
sg933
F0.0021297742439301435
sg289
F0.002697714042311515
sg290
F0.0018458043447394576
sg291
F0.0018458043447394576
sS'principal'
p1038
F0.0019877892943348007
sS'diplomacy_#1'
p1039
F0.0022717591935254864
sg292
F0.008377112026125231
sg605
F0.002697714042311515
sg294
F0.0011358795967627432
sg295
F0.0005679397983813716
sg296
F0.0007099247479767144
sg606
F0.0008519096975720574
sg607
F0.0007099247479767144
sg301
F0.0001419849495953429
sg608
F0.0001419849495953429
sg936
F0.0005679397983813716
sg609
F0.0008519096975720574
sg302
F0.0001419849495953429
sg303
F0.0007099247479767144
sg1004
F0.0014198494959534289
sg304
F0.025131336078375692
sg612
F0.003123668891097544
sg305
F0.0002839698991906858
sg614
F0.0005679397983813716
sg1005
F0.0007099247479767144
sg307
F0.003123668891097544
sg792
F0.0017038193951441148
sg615
F0.0017038193951441148
sg523
F0.0017038193951441148
sg478
F0.0005679397983813716
sg314
F0.0002839698991906858
sg316
F0.0002839698991906858
sg319
F0.0032656538406928867
sg320
F0.0001419849495953429
sg795
F0.0005679397983813716
sg321
F0.002555729092716172
sg796
F0.00539542808462303
sg322
F0.0001419849495953429
sg323
F0.0002839698991906858
sg325
F0.0001419849495953429
sg327
F0.0007099247479767144
sg619
F0.0002839698991906858
sg328
F0.002413744143120829
sg620
F0.0001419849495953429
sg329
F0.0008519096975720574
sg330
F0.0001419849495953429
sg424
F0.0018458043447394576
sg621
F0.0028396989919068577
sg622
F0.0014198494959534289
sg334
F0.0001419849495953429
sg798
F0.0001419849495953429
sg335
F0.003123668891097544
sg338
F0.0029816839415022006
sg452
F0.0002839698991906858
sg441
F0.009371006673292631
sg341
F0.0001419849495953429
sg342
F0.0002839698991906858
sg343
F0.0005679397983813716
sg854
F0.0005679397983813716
sg624
F0.0007099247479767144
sg801
F0.0014198494959534289
sg345
F0.0001419849495953429
sg346
F0.0002839698991906858
sg802
F0.002697714042311515
sg348
F0.0018458043447394576
sg349
F0.0002839698991906858
sg942
F0.0002839698991906858
sg350
F0.010364901320460031
sg1008
F0.0001419849495953429
sg351
F0.0001419849495953429
sg353
F0.0001419849495953429
sg805
F0.0001419849495953429
sg533
F0.0009938946471674003
sg944
F0.001277864546358086
sg807
F0.0011358795967627432
sg357
F0.0001419849495953429
sg904
F0.0002839698991906858
sg627
F0.0004259548487860287
sg358
F0.004827488286241658
sg360
F0.0002839698991906858
sg361
F0.0007099247479767144
sg362
F0.0017038193951441148
sg628
F0.0022717591935254864
sg363
F0.00539542808462303
sS'concerted'
p1040
F0.0022717591935254864
sS'Shanghai'
p1041
F0.0014198494959534289
sg364
F0.0009938946471674003
sg631
F0.0005679397983813716
sg367
F0.0004259548487860287
sg368
F0.0004259548487860287
sg369
F0.001277864546358086
sg813
F0.0009938946471674003
sg939
F0.001561834445548772
sg370
F0.0001419849495953429
sg632
F0.001277864546358086
sg1010
F0.0008519096975720574
sg814
F0.001277864546358086
sg947
F0.0004259548487860287
sg815
F0.0011358795967627432
sg948
F0.0002839698991906858
sg949
F0.0004259548487860287
sg373
F0.006673292630981116
sg950
F0.002413744143120829
sg818
F0.0009938946471674003
sg819
F0.0034076387902882295
sg69
F0.0035496237398835724
sg820
F0.0009938946471674003
sg375
F0.0014198494959534289
sg376
F0.0009938946471674003
sg1011
F0.0002839698991906858
sg952
F0.0017038193951441148
sg379
F0.0004259548487860287
sg273
F0.0019877892943348007
sg384
F0.0009938946471674003
sg385
F0.0032656538406928867
sg387
F0.0001419849495953429
sg824
F0.0011358795967627432
sg825
F0.0001419849495953429
sg826
F0.0001419849495953429
sg640
F0.0005679397983813716
sg390
F0.0005679397983813716
sg391
F0.012636660513985518
sg641
F0.0002839698991906858
sg829
F0.0014198494959534289
sg392
F0.0001419849495953429
sg393
F0.0008519096975720574
sg643
F0.0001419849495953429
sg831
F0.0029816839415022006
sg396
F0.0002839698991906858
sg397
F0.0028396989919068577
sg399
F0.0021297742439301435
sg1014
F0.0002839698991906858
sg131
F0.0001419849495953429
sg400
F0.0001419849495953429
sg832
F0.0001419849495953429
sg401
F0.001277864546358086
sg402
F0.0001419849495953429
sg833
F0.0009938946471674003
sg404
F0.0005679397983813716
sg835
F0.0022717591935254864
sg644
F0.001277864546358086
sg645
F0.0001419849495953429
sg959
F0.0005679397983813716
sg405
F0.0005679397983813716
sg836
F0.0011358795967627432
sg406
F0.002413744143120829
sg648
F0.0009938946471674003
sg840
F0.0017038193951441148
sg928
F0.0002839698991906858
sg409
F0.0008519096975720574
sg412
F0.0002839698991906858
sg842
F0.001277864546358086
sg650
F0.0018458043447394576
sg414
F0.0004259548487860287
sg415
F0.0014198494959534289
sg416
F0.0002839698991906858
sg651
F0.011926735766008802
sg418
F0.002555729092716172
sg531
F0.0018458043447394576
sg843
F0.0014198494959534289
sg420
F0.0002839698991906858
sg844
F0.0004259548487860287
sg962
F0.001277864546358086
sg652
F0.0005679397983813716
sg421
F0.001277864546358086
sg422
F0.0001419849495953429
sg477
F0.0001419849495953429
sg654
F0.0002839698991906858
sg425
F0.006247337782195088
sg963
F0.0001419849495953429
sg1017
F0.0002839698991906858
sg493
F0.0002839698991906858
sg532
F0.0001419849495953429
sg429
F0.0002839698991906858
sg846
F0.001277864546358086
sg656
F0.0002839698991906858
sg433
F0.0014198494959534289
sg657
F0.0011358795967627432
sg847
F0.0001419849495953429
sg494
F0.0002839698991906858
sg435
F0.0002839698991906858
sg848
F0.0005679397983813716
sg909
F0.0005679397983813716
sg659
F0.0004259548487860287
sg660
F0.0007099247479767144
sg661
F0.0004259548487860287
sg443
F0.0004259548487860287
sg850
F0.0014198494959534289
sg444
F0.0001419849495953429
sS'industry'
p1042
F0.0002839698991906858
sg662
F0.0001419849495953429
sg446
F0.001277864546358086
sg663
F0.003123668891097544
sg118
F0.001277864546358086
sg664
F0.0017038193951441148
sg449
F0.001277864546358086
sg450
F0.0005679397983813716
sg717
F0.0021297742439301435
sg970
F0.0001419849495953429
sg451
F0.006673292630981116
sg455
F0.0008519096975720574
sg456
F0.0002839698991906858
sg457
F0.001277864546358086
sg718
F0.0014198494959534289
sg689
F0.0001419849495953429
sg971
F0.0018458043447394576
sg459
F0.001561834445548772
sg460
F0.0001419849495953429
sg461
F0.0002839698991906858
sg462
F0.0008519096975720574
sg221
F0.0018458043447394576
sg1019
F0.0001419849495953429
sg497
F0.001561834445548772
sg668
F0.0009938946471674003
sg785
F0.0001419849495953429
sg465
F0.0005679397983813716
sg800
F0.0008519096975720574
sg467
F0.0001419849495953429
sg625
F0.002555729092716172
sg856
F0.0009938946471674003
sg669
F0.0001419849495953429
sg471
F0.0002839698991906858
sg857
F0.0001419849495953429
sg472
F0.004543518387050973
sg474
F0.0008519096975720574
sg858
F0.0002839698991906858
sg476
F0.0007099247479767144
sg974
F0.0001419849495953429
sg423
F0.017322163850631834
sg859
F0.0008519096975720574
sg674
F0.0001419849495953429
sg479
F0.0009938946471674003
sg860
F0.002697714042311515
sg677
F0.0009938946471674003
sg480
F0.001277864546358086
sg481
F0.0011358795967627432
sg482
F0.0004259548487860287
sg678
F0.0009938946471674003
sg861
F0.0008519096975720574
sg679
F0.0011358795967627432
sg780
F0.0002839698991906858
sg483
F0.0007099247479767144
sg484
F0.001561834445548772
sg485
F0.001277864546358086
sg681
F0.0035496237398835724
sg486
F0.001277864546358086
sg682
F0.0001419849495953429
sS'peace'
p1043
F0.009087036774101945
sg976
F0.0001419849495953429
sg488
F0.0007099247479767144
sg865
F0.009087036774101945
sg490
F0.0009938946471674003
sg686
F0.0001419849495953429
sg1024
F0.0014198494959534289
sg867
F0.00440153343745563
sg869
F0.005111458185432344
sg890
F0.0018458043447394576
sg870
F0.0001419849495953429
sg871
F0.0002839698991906858
sS'sides'
p1044
F0.0028396989919068577
sg872
F0.0017038193951441148
sg498
F0.0017038193951441148
sg499
F0.01178475081641346
sg500
F0.0004259548487860287
sg981
F0.0002839698991906858
sg504
F0.0008519096975720574
sg827
F0.0002839698991906858
sg1025
F0.0011358795967627432
sg502
F0.0005679397983813716
sg691
F0.0002839698991906858
sg873
F0.0021297742439301435
ssI7
(dp1045
g2
F0.00021482277121374866
sg875
F0.0004296455424274973
sg3
F0.0004296455424274973
sg4
F0.00021482277121374866
sg876
F0.0006444683136412459
sg6
F0.003651987110633727
sg7
F0.00021482277121374866
sg507
F0.0017185821697099893
sg8
F0.0010741138560687433
sg9
F0.004940923737916219
sg983
F0.00021482277121374866
sg11
F0.001933404940923738
sg12
F0.00021482277121374866
sg13
F0.0004296455424274973
sg46
F0.0010741138560687433
sg726
F0.0017185821697099893
sg508
F0.006015037593984963
sg18
F0.0030075187969924814
sg780
F0.0021482277121374865
sg21
F0.00021482277121374866
sg511
F0.00021482277121374866
sg101
F0.0006444683136412459
sg696
F0.0021482277121374865
sg24
F0.008378088077336197
sg25
F0.00322234156820623
sg27
F0.0010741138560687433
sg28
F0.004081632653061225
sg512
F0.0008592910848549946
sg697
F0.0008592910848549946
sg413
F0.005585392051557465
sg880
F0.0012889366272824919
sg31
F0.0004296455424274973
sg1028
F0.0012889366272824919
sg102
F0.0027926960257787323
sg32
F0.0015037593984962407
sg33
F0.0021482277121374865
sg676
F0.0004296455424274973
sg35
F0.0051557465091299675
sg36
F0.005585392051557465
sg37
F0.0025778732545649837
sg515
F0.0004296455424274973
sg987
F0.0004296455424274973
sg517
F0.00021482277121374866
sg1029
F0.00021482277121374866
sg40
F0.0012889366272824919
sg988
F0.003866809881847476
sg520
F0.00021482277121374866
sg41
F0.0004296455424274973
sg990
F0.00021482277121374866
sg43
F0.0017185821697099893
sg439
F0.0006444683136412459
sg44
F0.0021482277121374865
sg47
F0.004081632653061225
sg704
F0.0004296455424274973
sg705
F0.0010741138560687433
sg50
F0.017185821697099892
sg51
F0.0010741138560687433
sg52
F0.0008592910848549946
sg522
F0.0008592910848549946
sg53
F0.00021482277121374866
sg54
F0.00021482277121374866
sg818
F0.003866809881847476
sg57
F0.012030075187969926
sg58
F0.0004296455424274973
sg59
F0.00021482277121374866
sg884
F0.003866809881847476
sg61
F0.0010741138560687433
sg524
F0.0012889366272824919
sg63
F0.0006444683136412459
sg525
F0.00021482277121374866
sg64
F0.0008592910848549946
sg65
F0.002363050483351235
sg712
F0.0010741138560687433
sg886
F0.0004296455424274973
sg68
F0.00021482277121374866
sg528
F0.0008592910848549946
sg991
F0.0008592910848549946
sg70
F0.0015037593984962407
sg71
F0.0004296455424274973
sg713
F0.0008592910848549946
sg887
F0.0010741138560687433
sg783
F0.001933404940923738
sg74
F0.0051557465091299675
sg75
F0.00021482277121374866
sg412
F0.0008592910848549946
sg957
F0.0015037593984962407
sg716
F0.00021482277121374866
sg532
F0.0004296455424274973
sg985
F0.003651987110633727
sg82
F0.0006444683136412459
sg717
F0.00021482277121374866
sg83
F0.00322234156820623
sg719
F0.0006444683136412459
sg720
F0.0006444683136412459
sg86
F0.00021482277121374866
sg87
F0.0004296455424274973
sg1022
F0.0027926960257787323
sg721
F0.0010741138560687433
sg91
F0.0017185821697099893
sg536
F0.0025778732545649837
sg723
F0.0006444683136412459
sg724
F0.0006444683136412459
sg993
F0.0004296455424274973
sg98
F0.0027926960257787323
sg99
F0.00021482277121374866
sg100
F0.004081632653061225
sg539
F0.0006444683136412459
sg513
F0.0004296455424274973
sg104
F0.0015037593984962407
sg105
F0.0004296455424274973
sg107
F0.0010741138560687433
sg108
F0.0004296455424274973
sg109
F0.0017185821697099893
sg730
F0.0034371643394199786
sg112
F0.00021482277121374866
sg113
F0.005585392051557465
sg541
F0.0008592910848549946
sg897
F0.0012889366272824919
sg731
F0.002363050483351235
sg116
F0.00021482277121374866
sg732
F0.001933404940923738
sg736
F0.0051557465091299675
sg543
F0.0004296455424274973
sg119
F0.0017185821697099893
sg544
F0.0025778732545649837
sg545
F0.0010741138560687433
sS'forest'
p1046
F0.0030075187969924814
sg733
F0.00021482277121374866
sg23
F0.004511278195488722
sg122
F0.0012889366272824919
sg899
F0.00021482277121374866
sg735
F0.00021482277121374866
sg542
F0.00021482277121374866
sg737
F0.0008592910848549946
sg738
F0.0004296455424274973
sg900
F0.0004296455424274973
sg123
F0.0004296455424274973
sg548
F0.0004296455424274973
sg124
F0.00021482277121374866
sg740
F0.001933404940923738
sg127
F0.0010741138560687433
sg588
F0.004940923737916219
sg632
F0.0004296455424274973
sg129
F0.0004296455424274973
sg130
F0.002363050483351235
sg902
F0.0004296455424274973
sg742
F0.0012889366272824919
sg132
F0.001933404940923738
sg598
F0.00021482277121374866
sg994
F0.0004296455424274973
sg743
F0.006015037593984963
sg135
F0.0008592910848549946
sg136
F0.0053705692803437165
sg551
F0.0004296455424274973
sg137
F0.0012889366272824919
sg553
F0.00322234156820623
sg554
F0.0004296455424274973
sS'environmental_#1'
p1047
F0.0034371643394199786
sg139
F0.00021482277121374866
sg141
F0.0021482277121374865
sg746
F0.0012889366272824919
sg747
F0.007518796992481203
sg142
F0.0027926960257787323
sg748
F0.0017185821697099893
sg143
F0.0012889366272824919
sg146
F0.0006444683136412459
sg147
F0.0008592910848549946
sg148
F0.00322234156820623
sg197
F0.0017185821697099893
sg149
F0.0027926960257787323
sg751
F0.0017185821697099893
sS'Agenda'
p1048
F0.0034371643394199786
sg559
F0.002363050483351235
sg151
F0.00021482277121374866
sg152
F0.0015037593984962407
sg752
F0.0004296455424274973
sg995
F0.001933404940923738
sg908
F0.00021482277121374866
sg157
F0.004511278195488722
sg158
F0.0017185821697099893
sg93
F0.00021482277121374866
sg910
F0.0004296455424274973
sg354
F0.0004296455424274973
sg160
F0.005800214822771214
sg162
F0.0034371643394199786
sg912
F0.0034371643394199786
sg474
F0.00021482277121374866
sg475
F0.00021482277121374866
sg166
F0.001933404940923738
sg756
F0.002363050483351235
sg167
F0.004081632653061225
sg563
F0.0008592910848549946
sg564
F0.0012889366272824919
sg172
F0.002363050483351235
sg174
F0.0008592910848549946
sg566
F0.0006444683136412459
sg175
F0.00021482277121374866
sg178
F0.0030075187969924814
sg179
F0.0021482277121374865
sg914
F0.0025778732545649837
sg180
F0.0010741138560687433
sg38
F0.0017185821697099893
sg757
F0.00021482277121374866
sg568
F0.0012889366272824919
sg916
F0.004081632653061225
sg185
F0.0012889366272824919
sg186
F0.0012889366272824919
sg188
F0.0021482277121374865
sg378
F0.006659505907626208
sg191
F0.0012889366272824919
sg570
F0.0006444683136412459
sg758
F0.0006444683136412459
sg920
F0.004511278195488722
sg759
F0.0017185821697099893
sg198
F0.0006444683136412459
sg571
F0.00021482277121374866
sg199
F0.009881847475832439
sg200
F0.00021482277121374866
sg202
F0.0004296455424274973
sg203
F0.0006444683136412459
sg204
F0.0006444683136412459
sg206
F0.00021482277121374866
sg764
F0.0012889366272824919
sg208
F0.0008592910848549946
sg209
F0.0004296455424274973
sg1033
F0.016756176154672394
sg210
F0.0034371643394199786
sg579
F0.0008592910848549946
sg580
F0.0004296455424274973
sg212
F0.0004296455424274973
sg765
F0.0010741138560687433
sg581
F0.0004296455424274973
sg766
F0.0015037593984962407
sg216
F0.001933404940923738
sg767
F0.0008592910848549946
sg217
F0.0012889366272824919
sg925
F0.0004296455424274973
sg219
F0.0010741138560687433
sg768
F0.0004296455424274973
sg769
F0.0008592910848549946
sg770
F0.0012889366272824919
sg224
F0.0034371643394199786
sg225
F0.00021482277121374866
sg771
F0.0004296455424274973
sg226
F0.0012889366272824919
sg772
F0.0012889366272824919
sg265
F0.0004296455424274973
sg1002
F0.0034371643394199786
sg231
F0.001933404940923738
sg859
F0.0008592910848549946
sg586
F0.00021482277121374866
sg232
F0.0004296455424274973
sg299
F0.0004296455424274973
sg929
F0.0025778732545649837
sg233
F0.0015037593984962407
sg774
F0.00021482277121374866
sg855
F0.00322234156820623
sg235
F0.00945220193340494
sg237
F0.0017185821697099893
sg388
F0.00021482277121374866
sg776
F0.003866809881847476
sg238
F0.010526315789473684
sg805
F0.001933404940923738
sg240
F0.0006444683136412459
sg241
F0.00021482277121374866
sg591
F0.00021482277121374866
sg243
F0.0027926960257787323
sg245
F0.0006444683136412459
sg246
F0.0008592910848549946
sg247
F0.00021482277121374866
sg248
F0.0004296455424274973
sg779
F0.0004296455424274973
sg249
F0.00644468313641246
sg250
F0.00021482277121374866
sg251
F0.0008592910848549946
sg252
F0.0004296455424274973
sg253
F0.0012889366272824919
sg781
F0.0008592910848549946
sg254
F0.002363050483351235
sg930
F0.0004296455424274973
sg255
F0.0008592910848549946
sg256
F0.0004296455424274973
sg257
F0.04640171858216971
sg595
F0.0010741138560687433
sg258
F0.0006444683136412459
sg259
F0.0017185821697099893
sg48
F0.0004296455424274973
sg260
F0.0015037593984962407
sg711
F0.0027926960257787323
sg262
F0.0010741138560687433
sg597
F0.0008592910848549946
sg264
F0.00021482277121374866
sg787
F0.0010741138560687433
sg133
F0.00021482277121374866
sg267
F0.0010741138560687433
sg269
F0.0034371643394199786
sg270
F0.0017185821697099893
sg271
F0.0008592910848549946
sg600
F0.0017185821697099893
sg272
F0.0006444683136412459
sg602
F0.0021482277121374865
sg1003
F0.0015037593984962407
sg931
F0.0004296455424274973
sg274
F0.0025778732545649837
sg275
F0.00021482277121374866
sg788
F0.0006444683136412459
sg276
F0.00021482277121374866
sg277
F0.004296455424274973
sg278
F0.00021482277121374866
sg1032
F0.0015037593984962407
sg280
F0.0030075187969924814
sg281
F0.006874328678839957
sg790
F0.0004296455424274973
sg284
F0.0006444683136412459
sg285
F0.0004296455424274973
sg286
F0.00021482277121374866
sg287
F0.007733619763694952
sg604
F0.004081632653061225
sg933
F0.0012889366272824919
sg289
F0.002363050483351235
sg290
F0.0006444683136412459
sg291
F0.0006444683136412459
sg292
F0.013104189044038667
sg293
F0.002363050483351235
sg294
F0.00021482277121374866
sg296
F0.0010741138560687433
sg297
F0.0006444683136412459
sg606
F0.00021482277121374866
sg607
F0.0004296455424274973
sg628
F0.0004296455424274973
sg301
F0.0006444683136412459
sg608
F0.0025778732545649837
sg792
F0.00021482277121374866
sg609
F0.001933404940923738
sg302
F0.0008592910848549946
sg303
F0.004081632653061225
sg1004
F0.00021482277121374866
sg611
F0.00021482277121374866
sg304
F0.00021482277121374866
sg612
F0.00021482277121374866
sg85
F0.00021482277121374866
sg794
F0.0006444683136412459
sg937
F0.001933404940923738
sg15
F0.0004296455424274973
sg614
F0.0006444683136412459
sg1005
F0.00021482277121374866
sg309
F0.0012889366272824919
sg587
F0.0017185821697099893
sg310
F0.0017185821697099893
sg615
F0.0010741138560687433
sg523
F0.0030075187969924814
sg315
F0.0017185821697099893
sg316
F0.0004296455424274973
sg317
F0.0030075187969924814
sg319
F0.0017185821697099893
sg320
F0.00021482277121374866
sg795
F0.0004296455424274973
sg796
F0.0025778732545649837
sg322
F0.0004296455424274973
sg323
F0.0006444683136412459
sg324
F0.0015037593984962407
sg961
F0.0021482277121374865
sg325
F0.0010741138560687433
sg617
F0.0008592910848549946
sg327
F0.001933404940923738
sg619
F0.00021482277121374866
sg940
F0.0017185821697099893
sg328
F0.0027926960257787323
sg860
F0.0021482277121374865
sg797
F0.0010741138560687433
sg331
F0.0006444683136412459
sg333
F0.0017185821697099893
sg334
F0.008592910848549946
sg798
F0.00021482277121374866
sg335
F0.0025778732545649837
sg448
F0.0015037593984962407
sg337
F0.0006444683136412459
sg338
F0.0006444683136412459
sg340
F0.0004296455424274973
sg341
F0.0008592910848549946
sg342
F0.00021482277121374866
sg343
F0.0006444683136412459
sg344
F0.00021482277121374866
sg854
F0.010955961331901182
sg540
F0.00021482277121374866
sg801
F0.0027926960257787323
sg345
F0.0004296455424274973
sg941
F0.0004296455424274973
sg802
F0.002363050483351235
sg348
F0.0030075187969924814
sg213
F0.00021482277121374866
sg626
F0.0017185821697099893
sg496
F0.00021482277121374866
sg351
F0.00021482277121374866
sg352
F0.0006444683136412459
sg943
F0.0008592910848549946
sg355
F0.0015037593984962407
sg944
F0.0010741138560687433
sg807
F0.00021482277121374866
sg357
F0.00021482277121374866
sg358
F0.007733619763694952
sg809
F0.0010741138560687433
sg360
F0.00644468313641246
sg810
F0.0017185821697099893
sg362
F0.006229860365198711
sg811
F0.0004296455424274973
sg1009
F0.003866809881847476
sg363
F0.00021482277121374866
sS'MEAs'
p1049
F0.0025778732545649837
sg630
F0.0004296455424274973
sg366
F0.0006444683136412459
sg812
F0.0025778732545649837
sg631
F0.0010741138560687433
sg369
F0.00021482277121374866
sg813
F0.00322234156820623
sg750
F0.0025778732545649837
sg1023
F0.004511278195488722
sg370
F0.00322234156820623
sg371
F0.00021482277121374866
sg947
F0.00021482277121374866
sg815
F0.00021482277121374866
sg949
F0.0012889366272824919
sg373
F0.012459720730397422
sg819
F0.0027926960257787323
sg177
F0.0015037593984962407
sg634
F0.0004296455424274973
sg376
F0.0004296455424274973
sg377
F0.0006444683136412459
sg951
F0.00021482277121374866
sg1011
F0.0010741138560687433
sg227
F0.0006444683136412459
sg952
F0.00021482277121374866
sg379
F0.0004296455424274973
sg381
F0.0004296455424274973
sg382
F0.0017185821697099893
sg273
F0.00021482277121374866
sg638
F0.0004296455424274973
sg639
F0.0015037593984962407
sg384
F0.0008592910848549946
sg386
F0.0010741138560687433
sg387
F0.0004296455424274973
sg824
F0.0004296455424274973
sg826
F0.00021482277121374866
sg389
F0.0021482277121374865
sg390
F0.001933404940923738
sg391
F0.00021482277121374866
sg829
F0.00021482277121374866
sg642
F0.0008592910848549946
sg393
F0.003866809881847476
sg643
F0.0025778732545649837
sg394
F0.00021482277121374866
sg288
F0.0006444683136412459
sg397
F0.0034371643394199786
sg399
F0.0010741138560687433
sg1014
F0.001933404940923738
sg977
F0.0004296455424274973
sg956
F0.0034371643394199786
sg832
F0.00021482277121374866
sg401
F0.0006444683136412459
sg402
F0.0008592910848549946
sg403
F0.0012889366272824919
sg404
F0.0015037593984962407
sg834
F0.00021482277121374866
sg958
F0.0008592910848549946
sg959
F0.0004296455424274973
sg405
F0.001933404940923738
sg836
F0.002363050483351235
sg837
F0.0004296455424274973
sg406
F0.0004296455424274973
sg407
F0.0004296455424274973
sg648
F0.0006444683136412459
sg649
F0.0008592910848549946
sg408
F0.0017185821697099893
sg409
F0.004511278195488722
sg411
F0.0021482277121374865
sg650
F0.0004296455424274973
sg1015
F0.0012889366272824919
sg416
F0.0006444683136412459
sg651
F0.0015037593984962407
sg417
F0.0012889366272824919
sg419
F0.0010741138560687433
sg1016
F0.00021482277121374866
sg844
F0.0012889366272824919
sg421
F0.0021482277121374865
sg422
F0.00021482277121374866
sg423
F0.006229860365198711
sg424
F0.0008592910848549946
sg1017
F0.0025778732545649837
sg427
F0.001933404940923738
sg428
F0.0012889366272824919
sg431
F0.0012889366272824919
sg432
F0.005585392051557465
sg433
F0.0004296455424274973
sg657
F0.004940923737916219
sg847
F0.004296455424274973
sg965
F0.0006444683136412459
sg966
F0.0012889366272824919
sg436
F0.0008592910848549946
sg438
F0.0008592910848549946
sg909
F0.0004296455424274973
sg440
F0.001933404940923738
sg658
F0.002363050483351235
sg441
F0.0017185821697099893
sg442
F0.0004296455424274973
sg850
F0.0008592910848549946
sg444
F0.00021482277121374866
sg1042
F0.0025778732545649837
sg447
F0.00021482277121374866
sg118
F0.0010741138560687433
sg664
F0.0010741138560687433
sg449
F0.0008592910848549946
sg450
F0.0004296455424274973
sg969
F0.00021482277121374866
sg970
F0.0006444683136412459
sg451
F0.00322234156820623
sg454
F0.0015037593984962407
sg455
F0.0051557465091299675
sg456
F0.0004296455424274973
sg458
F0.0004296455424274973
sg971
F0.0006444683136412459
sg459
F0.0010741138560687433
sg460
F0.00021482277121374866
sg461
F0.0017185821697099893
sg666
F0.001933404940923738
sg192
F0.003866809881847476
sg972
F0.0015037593984962407
sg1019
F0.002363050483351235
sg1020
F0.0006444683136412459
sg785
F0.0004296455424274973
sg465
F0.0012889366272824919
sg973
F0.0021482277121374865
sg625
F0.0004296455424274973
sS'Treaty'
p1050
F0.0025778732545649837
sg856
F0.0008592910848549946
sg857
F0.0004296455424274973
sg472
F0.0012889366272824919
sg1021
F0.0021482277121374865
sg653
F0.0008592910848549946
sg89
F0.00021482277121374866
sg672
F0.0004296455424274973
sg974
F0.0021482277121374865
sg478
F0.0006444683136412459
sg479
F0.0015037593984962407
sg882
F0.0004296455424274973
sg777
F0.0010741138560687433
sg677
F0.0004296455424274973
sg480
F0.00021482277121374866
sg481
F0.0006444683136412459
sg678
F0.00021482277121374866
sg861
F0.00021482277121374866
sg483
F0.00021482277121374866
sg484
F0.0015037593984962407
sg485
F0.0004296455424274973
sg681
F0.0006444683136412459
sg487
F0.0004296455424274973
sg488
F0.0006444683136412459
sg865
F0.0008592910848549946
sg866
F0.00021482277121374866
sg685
F0.0006444683136412459
sg491
F0.0010741138560687433
sg492
F0.0006444683136412459
sg493
F0.0006444683136412459
sg1024
F0.002363050483351235
sg867
F0.0017185821697099893
sg980
F0.0017185821697099893
sg870
F0.0004296455424274973
sg871
F0.0004296455424274973
sg181
F0.0004296455424274973
sg499
F0.023415682062298604
sg500
F0.0004296455424274973
sg981
F0.0010741138560687433
sg501
F0.0015037593984962407
sg502
F0.00021482277121374866
sg504
F0.00472610096670247
sg505
F0.0021482277121374865
ss.