(dp0
I1
(dp1
S'enjoy'
p2
F0.029850746268656716
sS'civil'
p3
F0.008706467661691543
sS'developed'
p4
F0.0012437810945273632
sS'contribute'
p5
F0.024875621890547265
sS'global'
p6
F0.0012437810945273632
sS'economic'
p7
F0.043532338308457715
sS'human'
p8
F0.1318407960199005
sS'participate'
p9
F0.028606965174129355
sS'living'
p10
F0.0037313432835820895
sS'peoples'
p11
F0.026119402985074626
sS'freedoms'
p12
F0.03233830845771144
sS'peace'
p13
F0.0012437810945273632
sS'political'
p14
F0.046019900497512436
sS'fundamental_#-3'
p15
F0.02736318407960199
sS'live'
p16
F0.004975124378109453
sS'inalienable'
p17
F0.024875621890547265
sS'Declaration'
p18
F0.01990049751243781
sS'international'
p19
F0.0012437810945273632
sS'entitled'
p20
F0.02736318407960199
sS'development'
p21
F0.05970149253731343
sS'process'
p22
F0.009950248756218905
sS'full'
p23
F0.012437810945273632
sS'fully_#-1'
p24
F0.033582089552238806
sS'basic'
p25
F0.0012437810945273632
sS'freedoms_#-2'
p26
F0.02736318407960199
sS'cultural'
p27
F0.03980099502487562
sS'virtue'
p28
F0.0236318407960199
sS'article'
p29
F0.014925373134328358
sS'The'
p30
F0.021144278606965175
sS'realized'
p31
F0.043532338308457715
sS'rights'
p32
F0.08582089552238806
sS'fully'
p33
F0.03731343283582089
sS'enabling'
p34
F0.0037313432835820895
sS'person'
p35
F0.026119402985074626
sS'fundamental'
p36
F0.03233830845771144
sS'social'
p37
F0.04228855721393035
ssI2
(dp38
g2
F0.0012239902080783353
sS'United'
p39
F0.004895960832313341
sS'financial'
p40
F0.009791921664626682
sS'achieved'
p41
F0.0024479804161566705
sg22
F0.006119951040391677
sg4
F0.009791921664626682
sS'national'
p42
F0.008567931456548347
sg6
F0.014687882496940025
sS'past'
p43
F0.0012239902080783353
sS'State'
p44
F0.0012239902080783353
sg7
F0.0832313341493268
sg8
F0.0073439412484700125
sS'part'
p45
F0.0036719706242350062
sS'reform'
p46
F0.022031823745410038
sS'issues'
p47
F0.014687882496940025
sS'training'
p48
F0.0012239902080783353
sg34
F0.0024479804161566705
sg32
F0.006119951040391677
sS'based'
p49
F0.0036719706242350062
sS'area'
p50
F0.01835985312117503
sS'objectives'
p51
F0.0024479804161566705
sS'century'
p52
F0.01346389228886169
sg14
F0.03182374541003672
sS'relations'
p53
F0.004895960832313341
sS'environment'
p54
F0.017135862913096694
sS'market'
p55
F0.0073439412484700125
sS'cooperation'
p56
F0.011015911872705019
sg25
F0.0024479804161566705
sg19
F0.07833537331701346
sS'set'
p57
F0.019583843329253364
sS'public'
p58
F0.0036719706242350062
sS'hope'
p59
F0.008567931456548347
sg21
F0.04895960832313342
sS'prosperity'
p60
F0.014687882496940025
sS'Council'
p61
F0.0073439412484700125
sS'protection'
p62
F0.009791921664626682
sS'established'
p63
F0.0024479804161566705
sS'This'
p64
F0.011015911872705019
sS'comprehensive'
p65
F0.0073439412484700125
sg18
F0.0024479804161566705
sg13
F0.01591187270501836
sS'truly'
p66
F0.006119951040391677
sg27
F0.0024479804161566705
sS'important'
p67
F0.0036719706242350062
sS'groups'
p68
F0.0024479804161566705
sS'requirements'
p69
F0.0012239902080783353
sg30
F0.03549571603427173
sS'level'
p70
F0.0024479804161566705
sS'sustained'
p71
F0.012239902080783354
sS'stability'
p72
F0.014687882496940025
sg31
F0.1456548347613219
sS'especially'
p73
F0.0073439412484700125
sS'effective'
p74
F0.01591187270501836
sS'developing'
p75
F0.019583843329253364
sg33
F0.017135862913096694
sS'industry'
p76
F0.0012239902080783353
sS'countries'
p77
F0.030599755201958383
sg24
F0.011015911872705019
sS'war'
p78
F0.0024479804161566705
sS'States'
p79
F0.01346389228886169
sS'growth'
p80
F0.006119951040391677
sS'ensure'
p81
F0.0024479804161566705
sS'Committee'
p82
F0.0012239902080783353
sg37
F0.05018359853121175
sS'military'
p83
F0.0073439412484700125
sS'efforts'
p84
F0.01835985312117503
sS'order'
p85
F0.025703794369645042
ssI3
(dp86
g2
F0.002881844380403458
sg57
F0.004322766570605188
sg41
F0.010086455331412104
sg3
F0.005763688760806916
sg4
F0.007204610951008645
sg42
F0.01440922190201729
sS'strategic'
p87
F0.01440922190201729
sg43
F0.012968299711815562
sS'society'
p88
F0.03025936599423631
sg44
F0.004322766570605188
sg7
F0.023054755043227664
sg71
F0.002881844380403458
sS'total'
p89
F0.01729106628242075
sg55
F0.005763688760806916
sS'situation'
p90
F0.007204610951008645
sg63
F0.021613832853025938
sS'group'
p91
F0.002881844380403458
sg46
F0.018731988472622477
sS'products'
p92
F0.002881844380403458
sS'large'
p93
F0.005763688760806916
sg51
F0.002881844380403458
sg52
F0.002881844380403458
sg14
F0.001440922190201729
sS'system'
p94
F0.0345821325648415
sg22
F0.001440922190201729
sS'modernization'
p95
F0.021613832853025938
sS'China'
p96
F0.06772334293948126
sS'special'
p97
F0.002881844380403458
sg56
F0.002881844380403458
sg25
F0.03314121037463977
sS'objective'
p98
F0.011527377521613832
sg10
F0.005763688760806916
sS'main'
p99
F0.024495677233429394
sg78
F0.001440922190201729
sg67
F0.021613832853025938
sS'economy'
p100
F0.007204610951008645
sg23
F0.018731988472622477
sg80
F0.001440922190201729
sg61
F0.005763688760806916
sg62
F0.004322766570605188
sS'government'
p101
F0.012968299711815562
sg37
F0.03170028818443804
sS'enterprises'
p102
F0.007204610951008645
sS'construction'
p103
F0.018731988472622477
sS'western'
p104
F0.005763688760806916
sg68
F0.001440922190201729
sS'party'
p105
F0.03602305475504323
sg69
F0.001440922190201729
sg30
F0.04755043227665706
sg66
F0.007204610951008645
sS'true'
p106
F0.011527377521613832
sg84
F0.001440922190201729
sS'areas'
p107
F0.002881844380403458
sS'building'
p108
F0.011527377521613832
sg31
F0.12536023054755044
sS'task'
p109
F0.011527377521613832
sg73
F0.002881844380403458
sS'Chinese'
p110
F0.027377521613832854
sg70
F0.027377521613832854
sS'country'
p111
F0.03170028818443804
sg76
F0.004322766570605188
sg34
F0.002881844380403458
sS'future'
p112
F0.008645533141210375
sg81
F0.001440922190201729
sS'historical'
p113
F0.007204610951008645
sg82
F0.01440922190201729
sg33
F0.001440922190201729
sg83
F0.007204610951008645
sS'Taiwan'
p114
F0.001440922190201729
sS'socialist'
p115
F0.025936599423631124
sS'history'
p116
F0.012968299711815562
ssI4
(dp117
g40
F0.013986013986013986
sg3
F0.002331002331002331
sS'domestic'
p118
F0.023310023310023312
sg43
F0.002331002331002331
sg44
F0.004662004662004662
sg7
F0.013986013986013986
sS'technology'
p119
F0.05128205128205128
sS'investment'
p120
F0.04895104895104895
sg55
F0.013986013986013986
sg63
F0.009324009324009324
sS'management'
p121
F0.027972027972027972
sg91
F0.002331002331002331
sg94
F0.004662004662004662
sg53
F0.013986013986013986
sg54
F0.023310023310023312
sg95
F0.002331002331002331
sg96
F0.023310023310023312
sg97
F0.004662004662004662
sS'capital'
p122
F0.037296037296037296
sg19
F0.002331002331002331
sg58
F0.004662004662004662
sg100
F0.037296037296037296
sg21
F0.03496503496503497
sg78
F0.004662004662004662
sg80
F0.009324009324009324
sg62
F0.004662004662004662
sg10
F0.002331002331002331
sg64
F0.004662004662004662
sg65
F0.023310023310023312
sg37
F0.002331002331002331
sg102
F0.030303030303030304
sg103
F0.004662004662004662
sg104
F0.04195804195804196
sg68
F0.004662004662004662
sg90
F0.004662004662004662
sS'region'
p123
F0.037296037296037296
sg45
F0.002331002331002331
sg108
F0.009324009324009324
sg31
F0.08624708624708624
sg73
F0.004662004662004662
sg110
F0.009324009324009324
sg77
F0.009324009324009324
sg111
F0.002331002331002331
sg76
F0.10722610722610723
sg75
F0.006993006993006993
sS'foreign'
p124
F0.06993006993006994
sg93
F0.013986013986013986
sg112
F0.013986013986013986
sg92
F0.023310023310023312
sS'science'
p125
F0.037296037296037296
sg83
F0.016317016317016316
sg84
F0.006993006993006993
sg85
F0.002331002331002331
ssI5
(dp126
g39
F0.05027932960893855
sg40
F0.0111731843575419
sg41
F0.013966480446927373
sg3
F0.00558659217877095
sg4
F0.00558659217877095
sg42
F0.030726256983240222
sg6
F0.002793296089385475
sg118
F0.0111731843575419
sg87
F0.00558659217877095
sg88
F0.002793296089385475
sg80
F0.00558659217877095
sg119
F0.00558659217877095
sg120
F0.00558659217877095
sg97
F0.036312849162011177
sg79
F0.00558659217877095
sg49
F0.0111731843575419
sg50
F0.002793296089385475
sg93
F0.013966480446927373
sg51
F0.0223463687150838
sg52
F0.002793296089385475
sg14
F0.01675977653631285
sg94
F0.0111731843575419
sg22
F0.036312849162011177
sg56
F0.025139664804469275
sg11
F0.008379888268156424
sg98
F0.019553072625698324
sg105
F0.002793296089385475
sg58
F0.008379888268156424
sS'revised'
p127
F0.019553072625698324
sg82
F0.0335195530726257
sg62
F0.002793296089385475
sS'shelter'
p128
F0.0335195530726257
sS'Nations'
p129
F0.05027932960893855
sg45
F0.0111731843575419
sg28
F0.002793296089385475
sg68
F0.013966480446927373
sg90
F0.04189944134078212
sg69
F0.008379888268156424
sg30
F0.08100558659217877
sg70
F0.013966480446927373
sg106
F0.01675977653631285
sg31
F0.0893854748603352
sg109
F0.00558659217877095
sg74
F0.002793296089385475
sg75
F0.013966480446927373
sg33
F0.002793296089385475
sg77
F0.036312849162011177
sg78
F0.0335195530726257
sg34
F0.0111731843575419
sg35
F0.002793296089385475
sg112
F0.0111731843575419
sg81
F0.0223463687150838
sg36
F0.00558659217877095
sg83
F0.0446927374301676
sg85
F0.00558659217877095
sg116
F0.002793296089385475
ssI6
(dp130
g2
F0.002398081534772182
sg57
F0.002398081534772182
sg22
F0.007194244604316547
sg4
F0.004796163069544364
sg42
F0.014388489208633094
sg69
F0.016786570743405275
sg118
F0.004796163069544364
sg78
F0.002398081534772182
sg87
F0.004796163069544364
sg43
F0.002398081534772182
sS"n't"
p131
F0.03357314148681055
sg7
F0.002398081534772182
sg9
F0.002398081534772182
sS'education'
p132
F0.04316546762589928
sS'children'
p133
F0.023980815347721823
sg47
F0.004796163069544364
sg34
F0.007194244604316547
sg49
F0.050359712230215826
sg50
F0.004796163069544364
sg93
F0.02158273381294964
sg101
F0.016786570743405275
sg53
F0.004796163069544364
sg120
F0.002398081534772182
sg54
F0.004796163069544364
sg16
F0.019184652278177457
sg96
F0.002398081534772182
sg97
F0.007194244604316547
sS'They'
p134
F0.05275779376498801
sg25
F0.004796163069544364
sg98
F0.007194244604316547
sg10
F0.019184652278177457
sg36
F0.004796163069544364
sg99
F0.011990407673860911
sg58
F0.009592326139088728
sg59
F0.011990407673860911
sg100
F0.002398081534772182
sg21
F0.045563549160671464
sg23
F0.002398081534772182
sg61
F0.004796163069544364
sg63
F0.002398081534772182
sg64
F0.002398081534772182
sg48
F0.026378896882494004
sg66
F0.004796163069544364
sg27
F0.009592326139088728
sg45
F0.009592326139088728
sg68
F0.004796163069544364
sg127
F0.011990407673860911
sg91
F0.026378896882494004
sg30
F0.009592326139088728
sg84
F0.002398081534772182
sg107
F0.05275779376498801
sg31
F0.1342925659472422
sg109
F0.004796163069544364
sg73
F0.004796163069544364
sg110
F0.007194244604316547
sg88
F0.009592326139088728
sg111
F0.007194244604316547
sg46
F0.007194244604316547
sg124
F0.004796163069544364
sg79
F0.002398081534772182
sg81
F0.002398081534772182
sg113
F0.016786570743405275
sg82
F0.002398081534772182
sg37
F0.004796163069544364
sg83
F0.004796163069544364
sg114
F0.11750599520383694
sg85
F0.009592326139088728
sg116
F0.004796163069544364
ssI7
(dp135
g103
F1.0
ss.