(dp0
I1
(dp1
S'United'
p2
F0.012247838616714697
sS'proposed'
p3
F0.005043227665706052
sS'trade'
p4
F0.002161383285302594
sS'stability'
p5
F0.005043227665706052
sS'held'
p6
F0.001440922190201729
sS'including'
p7
F0.002881844380403458
sS'issues'
p8
F0.010806916426512969
sS'based'
p9
F0.007204610951008645
sS'justice'
p10
F0.0036023054755043226
sS'promoting'
p11
F0.008645533141210375
sS'stable'
p12
F0.002161383285302594
sS'economic'
p13
F0.06268011527377522
sS'activities'
p14
F0.0007204610951008645
sS'greater'
p15
F0.005763688760806916
sS'views'
p16
F0.004322766570605188
sS'regional'
p17
F0.008645533141210375
sS'international_#1'
p18
F0.03025936599423631
sS'countries'
p19
F0.043227665706051875
sS'developing'
p20
F0.025936599423631124
sS'establishing'
p21
F0.010086455331412104
sS'common'
p22
F0.010086455331412104
sS'reasonable'
p23
F0.06268011527377522
sS'small'
p24
F0.002161383285302594
sS'security'
p25
F0.0036023054755043226
sS'set'
p26
F0.004322766570605188
sS'fair'
p27
F0.03170028818443804
sS'principles'
p28
F0.002881844380403458
sS'cost'
p29
F0.0007204610951008645
sS'economic_#-3'
p30
F0.008645533141210375
sS'actively'
p31
F0.005043227665706052
sS'reform'
p32
F0.002881844380403458
sS'expressed'
p33
F0.001440922190201729
sS'current'
p34
F0.010806916426512969
sS'China'
p35
F0.019452449567723344
sS'cooperation'
p36
F0.021613832853025938
sS'international'
p37
F0.07853025936599424
sS'issue'
p38
F0.0007204610951008645
sS'Council'
p39
F0.001440922190201729
sS'power'
p40
F0.004322766570605188
sS'This'
p41
F0.005763688760806916
sS'free'
p42
F0.0007204610951008645
sS'situation'
p43
F0.008645533141210375
sS'Chinese'
p44
F0.001440922190201729
sS'country'
p45
F0.002161383285302594
sS'foreign'
p46
F0.002161383285302594
sS'place'
p47
F0.001440922190201729
sS'social'
p48
F0.005043227665706052
sS'efforts'
p49
F0.005763688760806916
sS'major'
p50
F0.004322766570605188
sS'number'
p51
F0.001440922190201729
sS'community'
p52
F0.002881844380403458
sS'establish'
p53
F0.009365994236311239
sS'basis'
p54
F0.002161383285302594
sS'political'
p55
F0.04394812680115274
sS'system'
p56
F0.002881844380403458
sS'relations'
p57
F0.005763688760806916
sS'strengthen'
p58
F0.006484149855907781
sS'peaceful'
p59
F0.005043227665706052
sS'forward'
p60
F0.002881844380403458
sS'meeting'
p61
F0.011527377521613832
sS'interests'
p62
F0.009365994236311239
sS'fair_#-1'
p63
F0.03025936599423631
sS'Nations'
p64
F0.010806916426512969
sS'American'
p65
F0.002881844380403458
sS'prices'
p66
F0.0007204610951008645
sS'promote'
p67
F0.008645533141210375
sS'organizations'
p68
F0.001440922190201729
sS'rights'
p69
F0.0036023054755043226
sS'future'
p70
F0.002881844380403458
sS'meet'
p71
F0.001440922190201729
sS'order_#-2'
p72
F0.008645533141210375
sS'century'
p73
F0.012968299711815562
sS'process'
p74
F0.005043227665706052
sS'high'
p75
F0.001440922190201729
sS'education'
p76
F0.0007204610951008645
sS'economic_#3'
p77
F0.027377521613832854
sS'develop'
p78
F0.001440922190201729
sS'political_#2'
p79
F0.027377521613832854
sS'peace'
p80
F0.020172910662824207
sS'mechanism'
p81
F0.005763688760806916
sS'role'
p82
F0.012247838616714697
sS'build'
p83
F0.005043227665706052
sS'establishment'
p84
F0.01729106628242075
sS'development'
p85
F0.02881844380403458
sS'establishment_#-1'
p86
F0.007204610951008645
sS'comprehensive'
p87
F0.001440922190201729
sS'important'
p88
F0.00792507204610951
sS'equitable'
p89
F0.001440922190201729
sS'The'
p90
F0.001440922190201729
sS'sides'
p91
F0.005043227665706052
sS'building'
p92
F0.005763688760806916
sS'light'
p93
F0.0007204610951008645
sS'Government'
p94
F0.001440922190201729
sS'rule'
p95
F0.0007204610951008645
sS'States'
p96
F0.001440922190201729
sS'principle'
p97
F0.0007204610951008645
sS'model'
p98
F0.001440922190201729
sS'democratic'
p99
F0.002881844380403458
sS'order'
p100
F0.056195965417867436
ssI2
(dp101
S'supply'
p102
F0.0326975476839237
sS'national'
p103
F0.01634877384196185
sS'period'
p104
F0.02452316076294278
sg5
F0.02452316076294278
sS'assignee'
p105
F0.09264305177111716
sg13
F0.013623978201634877
sS'human'
p106
F0.0027247956403269754
sS'respect'
p107
F0.010899182561307902
sS'provided'
p108
F0.005449591280653951
sg10
F0.010899182561307902
sS'notification'
p109
F0.03814713896457766
sS'initial'
p110
F0.027247956403269755
sg55
F0.013623978201634877
sg56
F0.0027247956403269754
sS'legal'
p111
F0.01634877384196185
sS'crime'
p112
F0.0027247956403269754
sS'access'
p113
F0.021798365122615803
sS'food'
p114
F0.08174386920980926
sS'period_#1'
p115
F0.02452316076294278
sg82
F0.0027247956403269754
sg37
F0.008174386920980926
sS'adequate'
p116
F0.03814713896457766
sS'resources'
p117
F0.0027247956403269754
sS'entitled'
p118
F0.021798365122615803
sg41
F0.0027247956403269754
sS'assignment'
p119
F0.07629427792915532
sS'safe'
p120
F0.01634877384196185
sg42
F0.005449591280653951
sS'ensuring'
p121
F0.01634877384196185
sS'key'
p122
F0.0027247956403269754
sS'article'
p123
F0.021798365122615803
sg25
F0.01634877384196185
sS'paying'
p124
F0.021798365122615803
sS'received'
p125
F0.021798365122615803
sS'debtor'
p126
F0.0653950953678474
sS'accordance'
p127
F0.021798365122615803
sS'level'
p128
F0.005449591280653951
sS'provide'
p129
F0.021798365122615803
sS'levels'
p130
F0.013623978201634877
sS'sources'
p131
F0.0027247956403269754
sg23
F0.04904632152588556
sg48
F0.02997275204359673
sg24
F0.0027247956403269754
sg98
F0.01907356948228883
sS'proof'
p132
F0.02997275204359673
ssI3
(dp133
g2
F0.0205799812909261
sg3
F0.006548175865294668
sg5
F0.0009354536950420954
sg6
F0.0037418147801683817
sg7
F0.004677268475210477
sg111
F0.007483629560336763
sg106
F0.01216089803554724
sS'multilateral'
p134
F0.002806361085126286
sS'find'
p135
F0.01028999064546305
sS'increase'
p136
F0.0018709073900841909
sg69
F0.028999064546304958
sg9
F0.013096351730589336
sg10
F0.0009354536950420954
sS'concerned'
p137
F0.009354536950420954
sg112
F0.01028999064546305
sg115
F0.00841908325537886
sS'criminal'
p138
F0.0009354536950420954
sS'administrative'
p139
F0.0018709073900841909
sg13
F0.0009354536950420954
sg14
F0.002806361085126286
sS'government'
p140
F0.021515434985968196
sS'practice'
p141
F0.005612722170252572
sg104
F0.011225444340505144
sS'transparent'
p142
F0.0009354536950420954
sS'conditions'
p143
F0.002806361085126286
sg127
F0.006548175865294668
sS'Kong'
p144
F0.01028999064546305
sS'large'
p145
F0.0009354536950420954
sg22
F0.0009354536950420954
sg39
F0.013096351730589336
sg25
F0.013096351730589336
sS'Panel'
p146
F0.002806361085126286
sg29
F0.005612722170252572
sg27
F0.007483629560336763
sS'State'
p147
F0.01216089803554724
sg31
F0.0009354536950420954
sS'established'
p148
F0.006548175865294668
sg94
F0.023386342376052385
sS'nuclear'
p149
F0.009354536950420954
sS'However'
p150
F0.005612722170252572
sg33
F0.004677268475210477
sg34
F0.0037418147801683817
sS'difficulties'
p151
F0.0018709073900841909
sg37
F0.029934518241347054
sg38
F0.00841908325537886
sS'public'
p152
F0.011225444340505144
sS'Central'
p153
F0.005612722170252572
sg23
F0.11412535079513564
sg41
F0.002806361085126286
sS'commercial'
p154
F0.0018709073900841909
sg42
F0.0009354536950420954
sS'members'
p155
F0.00841908325537886
sg123
F0.0037418147801683817
sS'Taiwan'
p156
F0.0018709073900841909
sg125
F0.0009354536950420954
sg44
F0.013096351730589336
sS'involved'
p157
F0.0037418147801683817
sS'practical'
p158
F0.004677268475210477
sS'personal'
p159
F0.005612722170252572
sS'plane'
p160
F0.011225444340505144
sS'ensure'
p161
F0.014967259120673527
sg48
F0.006548175865294668
sS'action'
p162
F0.005612722170252572
sS'military'
p163
F0.0018709073900841909
sS'Hong'
p164
F0.01028999064546305
sS'relevant'
p165
F0.01216089803554724
sS'civil'
p166
F0.005612722170252572
sg51
F0.005612722170252572
sg52
F0.01216089803554724
sS'Member'
p167
F0.011225444340505144
sg107
F0.0037418147801683817
sS'compensation_#1'
p168
F0.005612722170252572
sS'quality'
p169
F0.0009354536950420954
sg54
F0.0018709073900841909
sg55
F0.00841908325537886
sg56
F0.011225444340505144
sg57
F0.0018709073900841909
sg58
F0.002806361085126286
sS'interest'
p170
F0.007483629560336763
sg59
F0.0037418147801683817
sg62
F0.011225444340505144
sS'funds'
p171
F0.0018709073900841909
sg64
F0.01216089803554724
sg65
F0.0018709073900841909
sg121
F0.0018709073900841909
sg68
F0.004677268475210477
sg20
F0.0018709073900841909
sS'official'
p172
F0.005612722170252572
sS'matter'
p173
F0.00841908325537886
sS'compensation'
p174
F0.013096351730589336
sS'determined'
p175
F0.007483629560336763
sS'policies'
p176
F0.004677268475210477
sg45
F0.006548175865294668
sg43
F0.002806361085126286
sS'distribution'
p177
F0.0018709073900841909
sg132
F0.0009354536950420954
sg74
F0.01403180542563143
sS'general'
p178
F0.007483629560336763
sg75
F0.004677268475210477
sS'manner'
p179
F0.0018709073900841909
sS'need'
p180
F0.0009354536950420954
sg76
F0.0018709073900841909
sS'Secretary-General'
p181
F0.0018709073900841909
sg78
F0.002806361085126286
sg129
F0.0009354536950420954
sS'pay'
p182
F0.0009354536950420954
sg80
F0.0037418147801683817
sg81
F0.0018709073900841909
sg82
F0.0018709073900841909
sS'They'
p183
F0.004677268475210477
sS'objective'
p184
F0.006548175865294668
sS'products'
p185
F0.0009354536950420954
sg118
F0.0018709073900841909
sg85
F0.002806361085126286
sg87
F0.002806361085126286
sS'measures'
p186
F0.014967259120673527
sg88
F0.0009354536950420954
sS'opinion'
p187
F0.011225444340505144
sg90
F0.037418147801683815
sS'law'
p188
F0.02245088868101029
sg91
F0.004677268475210477
sS'effective'
p189
F0.006548175865294668
sS'considered'
p190
F0.01403180542563143
sS'space'
p191
F0.002806361085126286
sg95
F0.0009354536950420954
sg96
F0.02806361085126286
sg97
F0.018709073900841908
sg99
F0.0018709073900841909
sg100
F0.0018709073900841909
ssI4
(dp192
g50
F0.002583979328165375
sg172
F0.00516795865633075
sg29
F0.0103359173126615
sS'market'
p193
F0.00516795865633075
sS'For'
p194
F0.015503875968992248
sg166
F0.0103359173126615
sg61
F0.00516795865633075
sS'energy'
p195
F0.03617571059431524
sS'requirements'
p196
F0.00516795865633075
sS'treatment'
p197
F0.00516795865633075
sg56
F0.025839793281653745
sg180
F0.03617571059431524
sS'arrangements'
p198
F0.015503875968992248
sg179
F0.023255813953488372
sS'view'
p199
F0.0103359173126615
sg134
F0.0103359173126615
sg53
F0.00516795865633075
sg16
F0.015503875968992248
sg8
F0.020671834625323
sg181
F0.00516795865633075
sg9
F0.023255813953488372
sS'service'
p200
F0.012919896640826873
sg191
F0.015503875968992248
sg185
F0.00516795865633075
sg149
F0.007751937984496124
sg121
F0.007751937984496124
sg110
F0.002583979328165375
sg150
F0.007751937984496124
sg33
F0.015503875968992248
sg142
F0.020671834625323
sS'environment'
p201
F0.002583979328165375
sg70
F0.002583979328165375
sg131
F0.03359173126614987
sg83
F0.002583979328165375
sg36
F0.007751937984496124
sS'basic'
p202
F0.00516795865633075
sg60
F0.0103359173126615
sg37
F0.002583979328165375
sg116
F0.0103359173126615
sg17
F0.028423772609819122
sg143
F0.002583979328165375
sg97
F0.00516795865633075
sg85
F0.0103359173126615
sg141
F0.00516795865633075
sg153
F0.025839793281653745
sg25
F0.01808785529715762
sg40
F0.00516795865633075
sg140
F0.002583979328165375
sg86
F0.00516795865633075
sS'material'
p203
F0.002583979328165375
sg154
F0.0103359173126615
sS'enterprises'
p204
F0.00516795865633075
sg65
F0.0103359173126615
sS'construction'
p205
F0.00516795865633075
sS'rural'
p206
F0.031007751937984496
sS'put'
p207
F0.028423772609819122
sg108
F0.002583979328165375
sg90
F0.002583979328165375
sS'services'
p208
F0.00516795865633075
sg98
F0.012919896640826873
sg99
F0.00516795865633075
sg189
F0.0103359173126615
sg44
F0.002583979328165375
sg19
F0.007751937984496124
sg84
F0.00516795865633075
sg20
F0.007751937984496124
sS'local'
p209
F0.041343669250646
sg96
F0.007751937984496124
sg129
F0.00516795865633075
sg31
F0.00516795865633075
sg161
F0.00516795865633075
sg47
F0.031007751937984496
sg23
F0.09302325581395349
sg157
F0.01808785529715762
sg24
F0.0103359173126615
sg71
F0.007751937984496124
sg156
F0.002583979328165375
sS'balance'
p210
F0.03359173126614987
sg100
F0.007751937984496124
sS'prevailing'
p211
F0.002583979328165375
ssI5
(dp212
g4
F0.01060070671378092
sg5
F0.0035335689045936395
sg131
F0.002355712603062426
sg7
F0.011778563015312132
sg134
F0.005889281507656066
sg8
F0.001177856301531213
sg159
F0.004711425206124852
sg137
F0.004711425206124852
sg201
F0.01060070671378092
sg197
F0.002355712603062426
sg12
F0.011778563015312132
sg116
F0.009422850412249705
sg138
F0.0035335689045936395
sg209
F0.002355712603062426
sg117
F0.02237926972909305
sg14
F0.016489988221436984
sg15
F0.007067137809187279
sg114
F0.002355712603062426
sg141
F0.004711425206124852
sg104
F0.014134275618374558
sg128
F0.002355712603062426
sg143
F0.02120141342756184
sg19
F0.014134275618374558
sg21
F0.001177856301531213
sg145
F0.002355712603062426
sg23
F0.10365135453474676
sg199
F0.016489988221436984
sg26
F0.02237926972909305
sS'financial'
p213
F0.023557126030624265
sg194
F0.002355712603062426
sg103
F0.030624263839811542
sS'society'
p214
F0.015312131919905771
sS'rate'
p215
F0.002355712603062426
sg13
F0.002355712603062426
sS'agriculture'
p216
F0.014134275618374558
sg148
F0.004711425206124852
sg32
F0.009422850412249705
sg149
F0.001177856301531213
sg33
F0.002355712603062426
sg34
F0.005889281507656066
sg151
F0.014134275618374558
sg35
F0.004711425206124852
sg36
F0.001177856301531213
sg38
F0.009422850412249705
sS'scientific'
p217
F0.01060070671378092
sg40
F0.008244994110718492
sg154
F0.007067137809187279
sg42
F0.001177856301531213
sS'standard'
p218
F0.011778563015312132
sg43
F0.016489988221436984
sg207
F0.007067137809187279
sg44
F0.002355712603062426
sg45
F0.014134275618374558
sS'utilization'
p219
F0.002355712603062426
sg158
F0.009422850412249705
sg185
F0.01060070671378092
sg48
F0.007067137809187279
sg162
F0.0035335689045936395
sg163
F0.038869257950530034
sg49
F0.009422850412249705
sg102
F0.002355712603062426
sg51
F0.004711425206124852
sg52
F0.002355712603062426
sS'management'
p220
F0.015312131919905771
sg27
F0.007067137809187279
sg54
F0.0035335689045936395
sg56
F0.005889281507656066
sg202
F0.016489988221436984
sg60
F0.004711425206124852
sg61
F0.002355712603062426
sg63
F0.004711425206124852
sg171
F0.004711425206124852
sg59
F0.005889281507656066
sg204
F0.0035335689045936395
sg205
F0.015312131919905771
sg66
F0.007067137809187279
sg68
F0.005889281507656066
sg20
F0.015312131919905771
sg139
F0.002355712603062426
sg70
F0.016489988221436984
sg176
F0.002355712603062426
sg71
F0.005889281507656066
sg177
F0.0035335689045936395
sg132
F0.001177856301531213
sg178
F0.0035335689045936395
sg75
F0.005889281507656066
sg198
F0.008244994110718492
sg179
F0.005889281507656066
sg180
F0.007067137809187279
sg76
F0.016489988221436984
sg78
F0.004711425206124852
sg129
F0.014134275618374558
sg182
F0.002355712603062426
sg81
F0.005889281507656066
sg83
F0.004711425206124852
sg183
F0.002355712603062426
sg184
F0.001177856301531213
sg84
F0.004711425206124852
sg85
F0.001177856301531213
sg17
F0.0035335689045936395
sg108
F0.002355712603062426
sg87
F0.0035335689045936395
sg130
F0.012956419316843345
sg208
F0.014134275618374558
sg196
F0.005889281507656066
sg90
F0.03769140164899882
sS'structure'
p221
F0.007067137809187279
sg92
F0.002355712603062426
sg120
F0.009422850412249705
sg191
F0.002355712603062426
sg181
F0.001177856301531213
sg206
F0.004711425206124852
sg100
F0.005889281507656066
ssI6
(dp222
S'concept'
p223
F0.016885553470919325
sg3
F0.0075046904315197
sg7
F0.005628517823639775
sg106
F0.001876172607879925
sg135
F0.001876172607879925
sS'staff'
p224
F0.0150093808630394
sg113
F0.01125703564727955
sg9
F0.020637898686679174
sg10
F0.001876172607879925
sg201
F0.001876172607879925
sg197
F0.01876172607879925
sg12
F0.001876172607879925
sg139
F0.009380863039399626
sg14
F0.009380863039399626
sg15
F0.00375234521575985
sg141
F0.00375234521575985
sg142
F0.013133208255159476
sg128
F0.0075046904315197
sg144
F0.001876172607879925
sg145
F0.001876172607879925
sg22
F0.005628517823639775
sg23
F0.1050656660412758
sg211
F0.01876172607879925
sg213
F0.00375234521575985
sg194
F0.005628517823639775
sg103
F0.001876172607879925
sg28
F0.016885553470919325
sg215
F0.0150093808630394
sg29
F0.001876172607879925
sg108
F0.0150093808630394
sg94
F0.00375234521575985
sg169
F0.01876172607879925
sg33
F0.001876172607879925
sg34
F0.0150093808630394
sS'conduct'
p225
F0.0225140712945591
sg143
F0.00375234521575985
sg152
F0.03564727954971857
sg39
F0.00375234521575985
sg41
F0.0225140712945591
sg42
F0.009380863039399626
sg122
F0.001876172607879925
sg125
F0.001876172607879925
sg44
F0.001876172607879925
sg46
F0.001876172607879925
sg158
F0.001876172607879925
sg13
F0.005628517823639775
sg48
F0.005628517823639775
sg163
F0.001876172607879925
sS'duty'
p226
F0.01876172607879925
sS'considerations'
p227
F0.01876172607879925
sg165
F0.016885553470919325
sg102
F0.0075046904315197
sg166
F0.001876172607879925
sg104
F0.00375234521575985
sg53
F0.00375234521575985
sg27
F0.0150093808630394
sg200
F0.028142589118198873
sg54
F0.01125703564727955
sg55
F0.00375234521575985
sg56
F0.001876172607879925
sg170
F0.00375234521575985
sg62
F0.001876172607879925
sg63
F0.00375234521575985
sg66
F0.001876172607879925
sg124
F0.01125703564727955
sg127
F0.016885553470919325
sg172
F0.0150093808630394
sg173
F0.009380863039399626
sg70
F0.001876172607879925
sg71
F0.00375234521575985
sg156
F0.00375234521575985
sg210
F0.001876172607879925
sg74
F0.0075046904315197
sg178
F0.00375234521575985
sg75
F0.0075046904315197
sg180
F0.0075046904315197
sg78
F0.005628517823639775
sg129
F0.009380863039399626
sg182
F0.0150093808630394
sg81
F0.0075046904315197
sg183
F0.00375234521575985
sg184
F0.03189493433395872
sg161
F0.01876172607879925
sg85
F0.001876172607879925
sg203
F0.00375234521575985
sg148
F0.005628517823639775
sg130
F0.00375234521575985
sS'designed'
p228
F0.01876172607879925
sg208
F0.0075046904315197
sg90
F0.06191369606003752
sg99
F0.016885553470919325
sg93
F0.01125703564727955
sg95
F0.016885553470919325
sg181
F0.009380863039399626
sg136
F0.013133208255159476
ssI7
(dp229
g62
F0.006289308176100629
sg164
F0.0031446540880503146
sg26
F0.0031446540880503146
sg194
F0.0031446540880503146
sg166
F0.0220125786163522
sg103
F0.0031446540880503146
sg117
F0.006289308176100629
sg50
F0.02830188679245283
sg52
F0.009433962264150943
sg214
F0.009433962264150943
sg215
F0.006289308176100629
sg31
F0.006289308176100629
sg57
F0.006289308176100629
sg106
F0.009433962264150943
sg180
F0.012578616352201259
sg76
F0.0031446540880503146
sg53
F0.0031446540880503146
sg193
F0.0220125786163522
sg217
F0.015723270440251572
sg201
F0.0031446540880503146
sg196
F0.006289308176100629
sg169
F0.009433962264150943
sg54
F0.012578616352201259
sg10
F0.02830188679245283
sg182
F0.02830188679245283
sg121
F0.0031446540880503146
sg56
F0.0031446540880503146
sg81
F0.0031446540880503146
sg46
F0.0220125786163522
sg113
F0.006289308176100629
sg74
F0.006289308176100629
sg136
F0.006289308176100629
sg151
F0.006289308176100629
sg35
F0.02830188679245283
sg170
F0.0031446540880503146
sS'capital'
p230
F0.03773584905660377
sg37
F0.006289308176100629
sg138
F0.012578616352201259
sg139
F0.012578616352201259
sg152
F0.0031446540880503146
sg88
F0.012578616352201259
sg85
F0.03459119496855346
sg129
F0.006289308176100629
sg23
F0.07861635220125786
sg171
F0.0031446540880503146
sg41
F0.012578616352201259
sg87
F0.015723270440251572
sg82
F0.012578616352201259
sg141
F0.012578616352201259
sg204
F0.03773584905660377
sg205
F0.0031446540880503146
sg228
F0.006289308176100629
sg122
F0.012578616352201259
sg207
F0.006289308176100629
sg90
F0.0031446540880503146
sg67
F0.006289308176100629
sg156
F0.0031446540880503146
sg221
F0.018867924528301886
sg11
F0.012578616352201259
sg48
F0.006289308176100629
sg219
F0.012578616352201259
sg99
F0.0031446540880503146
sg200
F0.006289308176100629
sg189
F0.009433962264150943
sg128
F0.018867924528301886
sg157
F0.0031446540880503146
sg69
F0.012578616352201259
sg95
F0.0031446540880503146
sg21
F0.006289308176100629
sg145
F0.0440251572327044
sg159
F0.006289308176100629
sg13
F0.009433962264150943
sg161
F0.006289308176100629
sg97
F0.018867924528301886
sg176
F0.02830188679245283
sg93
F0.018867924528301886
sg24
F0.012578616352201259
sg43
F0.0031446540880503146
sg177
F0.0220125786163522
sg210
F0.012578616352201259
sg100
F0.006289308176100629
sg211
F0.0031446540880503146
ssI8
(dp231
g2
F0.002857142857142857
sg6
F0.02857142857142857
sg223
F0.014285714285714285
sg224
F0.02857142857142857
sg9
F0.011428571428571429
sg12
F0.005714285714285714
sg138
F0.017142857142857144
sg139
F0.002857142857142857
sg117
F0.005714285714285714
sg14
F0.002857142857142857
sg203
F0.025714285714285714
sg128
F0.005714285714285714
sg19
F0.002857142857142857
sg21
F0.002857142857142857
sg23
F0.11428571428571428
sg146
F0.03142857142857143
sg213
F0.011428571428571429
sg28
F0.002857142857142857
sg147
F0.008571428571428572
sg13
F0.002857142857142857
sg108
F0.002857142857142857
sg32
F0.005714285714285714
sg149
F0.005714285714285714
sg150
F0.014285714285714285
sg136
F0.002857142857142857
sg37
F0.008571428571428572
sg152
F0.022857142857142857
sg40
F0.002857142857142857
sg154
F0.005714285714285714
sg42
F0.005714285714285714
sg218
F0.011428571428571429
sS'water'
p232
F0.03428571428571429
sg155
F0.008571428571428572
sg207
F0.002857142857142857
sg123
F0.011428571428571429
sg125
F0.017142857142857144
sg54
F0.005714285714285714
sg191
F0.002857142857142857
sg46
F0.008571428571428572
sg161
F0.005714285714285714
sg162
F0.008571428571428572
sg226
F0.011428571428571429
sg227
F0.005714285714285714
sg50
F0.011428571428571429
sg165
F0.005714285714285714
sg122
F0.022857142857142857
sg166
F0.005714285714285714
sg104
F0.002857142857142857
sg107
F0.011428571428571429
sg168
F0.017142857142857144
sg193
F0.008571428571428572
sg220
F0.002857142857142857
sg219
F0.02857142857142857
sg110
F0.002857142857142857
sg170
F0.002857142857142857
sg171
F0.03142857142857143
sg204
F0.002857142857142857
sg66
F0.02857142857142857
sg173
F0.005714285714285714
sg174
F0.017142857142857144
sg175
F0.011428571428571429
sg156
F0.017142857142857144
sg210
F0.011428571428571429
sg132
F0.008571428571428572
sg73
F0.005714285714285714
sg178
F0.002857142857142857
sg198
F0.002857142857142857
sg180
F0.002857142857142857
sg96
F0.002857142857142857
sg196
F0.008571428571428572
sg183
F0.002857142857142857
sS'equitable_#-1'
p233
F0.03428571428571429
sg184
F0.002857142857142857
sg47
F0.005714285714285714
sg118
F0.017142857142857144
sg87
F0.002857142857142857
sg186
F0.005714285714285714
sg89
F0.04
sg90
F0.002857142857142857
sg188
F0.005714285714285714
sg92
F0.005714285714285714
sg190
F0.014285714285714285
sg93
F0.008571428571428572
sg94
F0.002857142857142857
sg181
F0.005714285714285714
sg97
F0.008571428571428572
sg100
F0.011428571428571429
ssI9
(dp234
g55
F1.0
ss.