(dp0
I1
(dp1
S'Considering'
p2
F0.0018516613517127868
sS'national_#3'
p3
F0.004423413229091657
sS'attack_#-1'
p4
F0.0020574015019030963
sS'United'
p5
F0.0007200905256660837
sS'advocates_#-2'
p6
F0.002366011727188561
sS'domestic'
p7
F0.0019545314268079417
sS'contemporary'
p8
F0.0019545314268079417
sS'sites'
p9
F0.004834893529472277
sS'stability'
p10
F0.0021602715769982513
sS'based_#-2'
p11
F0.0046291533792819665
sS'including'
p12
F0.010389877584610636
sS'human'
p13
F0.014916160888797448
sS'left'
p14
F0.00020574015019030964
sS'exclusivity'
p15
F0.004320543153996503
sS'religious'
p16
F0.029729451702499743
sS'intergovernmental'
p17
F0.0012344409011418578
sS'factors_#1'
p18
F0.0014401810513321675
sS'political_#-3'
p19
F0.003497582553235264
sS'political_#-2'
p20
F0.0015430511264273223
sS'based'
p21
F0.004526283304186812
sS'system'
p22
F0.0012344409011418578
sS'Persons'
p23
F0.0006172204505709289
sS'informal'
p24
F0.0016459212015224772
sS'situations'
p25
F0.0013373109762370126
sS'concerned'
p26
F0.0076123855570414565
sS'shrines'
p27
F0.004732023454377122
sS'environment'
p28
F0.002366011727188561
sS'freedoms'
p29
F0.0038061927785207283
sS'labour'
p30
F0.0027774920275691803
sS'systems'
p31
F0.006275074580804444
sS'Ethnic'
p32
F0.0006172204505709289
sS'terror'
p33
F0.0026746219524740253
sS'World'
p34
F0.00010287007509515482
sS'criminal'
p35
F0.004526283304186812
sS'activities'
p36
F0.002263141652093406
sS'belonging'
p37
F0.006789424956280218
sS'aspects'
p38
F0.0031889723279497992
sS'provisions'
p39
F0.00010287007509515482
sS'food'
p40
F0.0016459212015224772
sS'enrich'
p41
F0.002263141652093406
sS'scope'
p42
F0.0020574015019030963
sS'educators_#-1'
p43
F0.0024688818022837156
sS'ethnic_#1'
p44
F0.005349243904948051
sS'subject'
p45
F0.0013373109762370126
sS'society_#2'
p46
F0.0027774920275691803
sS'non-formal'
p47
F0.0026746219524740253
sS'While'
p48
F0.002263141652093406
sS'despite'
p49
F0.0046291533792819665
sS'grave_#-3'
p50
F0.002263141652093406
sS'utmost'
p51
F0.0024688818022837156
sS'continued'
p52
F0.0016459212015224772
sS'formal'
p53
F0.0027774920275691803
sS'media_#2'
p54
F0.0024688818022837156
sS'incitement'
p55
F0.00010287007509515482
sS'equality'
p56
F0.001131570826046703
sS'places'
p57
F0.005040633679662586
sS'minorities_#2'
p58
F0.0076123855570414565
sS'backgrounds_#1'
p59
F0.005349243904948051
sS'establishment'
p60
F0.00010287007509515482
sS'Arabs'
p61
F0.0018516613517127868
sS'rights'
p62
F0.022219936220553443
sS'backgrounds'
p63
F0.004526283304186812
sS'solution'
p64
F0.0013373109762370126
sS'standards'
p65
F0.0027774920275691803
sS'large'
p66
F0.00010287007509515482
sS'realization'
p67
F0.00010287007509515482
sS'continue'
p68
F0.0024688818022837156
sS'superiority'
p69
F0.004423413229091657
sS'progress'
p70
F0.0027774920275691803
sS'activity'
p71
F0.00010287007509515482
sS'particularities'
p72
F0.004937763604567431
sS'Education'
p73
F0.0008229606007612386
sS'processes'
p74
F0.002366011727188561
sS'generations'
p75
F0.00010287007509515482
sS'enjoy'
p76
F0.00010287007509515482
sS'similar_#1'
p77
F0.0018516613517127868
sS'spiritual'
p78
F0.00010287007509515482
sS'set'
p79
F0.0027774920275691803
sS'footing'
p80
F0.0012344409011418578
sS'fair'
p81
F0.0012344409011418578
sS'educators'
p82
F0.0024688818022837156
sS'cultural_#2'
p83
F0.004526283304186812
sS'consistent'
p84
F0.0007200905256660837
sS'creation'
p85
F0.0013373109762370126
sS'belonging_#-3'
p86
F0.006480814730994754
sS'related'
p87
F0.004732023454377122
sS'group'
p88
F0.0029832321777594896
sS'Commission'
p89
F0.0004114803003806193
sS'Recognizing'
p90
F0.0008229606007612386
sS'economic'
p91
F0.009258306758563933
sS'undertake'
p92
F0.0015430511264273223
sS'motivated'
p93
F0.00020574015019030964
sS'Expresses'
p94
F0.0024688818022837156
sS'racial'
p95
F0.015533381339368378
sS'contribute_#3'
p96
F0.002263141652093406
sS'economic_#-2'
p97
F0.0031889723279497992
sS'national_#-2'
p98
F0.007200905256660837
sS'borne'
p99
F0.0037033227034255736
sS'specific'
p100
F0.0016459212015224772
sS'invoked'
p101
F0.002880362102664335
sS'factors'
p102
F0.0016459212015224772
sS'organizations_#1'
p103
F0.0024688818022837156
sS'xenophobia'
p104
F0.004526283304186812
sS'circumstance'
p105
F0.0016459212015224772
sS'electoral'
p106
F0.0026746219524740253
sS'Emphasizes'
p107
F0.00010287007509515482
sS'increase'
p108
F0.0007200905256660837
sS'contained'
p109
F0.00010287007509515482
sS'magnitude'
p110
F0.004320543153996503
sS'health'
p111
F0.0016459212015224772
sS'cooperation'
p112
F0.002263141652093406
sS'capital'
p113
F0.00010287007509515482
sS'terrorist'
p114
F0.00010287007509515482
sS'international'
p115
F0.010287007509515483
sS'ideological_#-3'
p116
F0.004732023454377122
sS'conditions'
p117
F0.0013373109762370126
sS'public'
p118
F0.0025717518773788707
sS'participation'
p119
F0.0025717518773788707
sS'intended'
p120
F0.0030861022528546446
sS'sites_#2'
p121
F0.0026746219524740253
sS'full'
p122
F0.0006172204505709289
sS'policies'
p123
F0.004732023454377122
sS'Calls'
p124
F0.0018516613517127868
sS'Rights'
p125
F0.005246373829852896
sS'non-governmental'
p126
F0.002366011727188561
sS'borne_#2'
p127
F0.0037033227034255736
sS'attention'
p128
F0.00010287007509515482
sS'continuing'
p129
F0.002880362102664335
sS'According'
p130
F0.00010287007509515482
sS'understanding'
p131
F0.00010287007509515482
sS'undertake_#3'
p132
F0.0016459212015224772
sS'favourable'
p133
F0.0012344409011418578
sS'protection'
p134
F0.0037033227034255736
sS'groups'
p135
F0.0020574015019030963
sS'Each'
p136
F0.0018516613517127868
sS'Urges'
p137
F0.002366011727188561
sS'nature_#1'
p138
F0.0032918424030449543
sS'intolerance'
p139
F0.005143503754757741
sS'care'
p140
F0.0016459212015224772
sS'places_#1'
p141
F0.0024688818022837156
sS'inter'
p142
F0.0021602715769982513
sS'hostile'
p143
F0.00010287007509515482
sS'implementing'
p144
F0.0024688818022837156
sS'country'
p145
F0.002366011727188561
sS'National'
p146
F0.0006172204505709289
sS'violence'
p147
F0.0026746219524740253
sS'equal'
p148
F0.0013373109762370126
sS'recognized'
p149
F0.0006172204505709289
sS'minorities'
p150
F0.008126735932517231
sS'justifiable'
p151
F0.0018516613517127868
sS'justice'
p152
F0.0024688818022837156
sS'women'
p153
F0.002263141652093406
sS'involving'
p154
F0.0012344409011418578
sS'ensure'
p155
F0.004834893529472277
sS'persist'
p156
F0.004320543153996503
sS'Human'
p157
F0.004526283304186812
sS'forms'
p158
F0.007303775331755992
sS'promotion'
p159
F0.0032918424030449543
sS'adopting'
p160
F0.004320543153996503
sS'Religious'
p161
F0.0006172204505709289
sS'housing'
p162
F0.0018516613517127868
sS'duty'
p163
F0.0038061927785207283
sS'considerations'
p164
F0.005452113980043205
sS'equally'
p165
F0.0012344409011418578
sS'regardless'
p166
F0.0038061927785207283
sS'Blacks'
p167
F0.0014401810513321675
sS'Deeply'
p168
F0.0046291533792819665
sS'African'
p169
F0.0004114803003806193
sS'community'
p170
F0.0038061927785207283
sS'racism'
p171
F0.004423413229091657
sS'political'
p172
F0.022322806295648596
sS'philosophical'
p173
F0.005657854130233515
sS'involvement'
p174
F0.0006172204505709289
sS'national'
p175
F0.021602715769982513
sS'establish'
p176
F0.0046291533792819665
sS'kind'
p177
F0.00010287007509515482
sS'intolerance_#1'
p178
F0.00010287007509515482
sS'facilitation'
p179
F0.0024688818022837156
sS'nations'
p180
F0.0013373109762370126
sS'Assembly'
p181
F0.0007200905256660837
sS'Centre'
p182
F0.0024688818022837156
sS'addition'
p183
F0.00010287007509515482
sS'discrimination'
p184
F0.0076123855570414565
sS'cultural_#-1'
p185
F0.006275074580804444
sS'give'
p186
F0.00010287007509515482
sS'legislation'
p187
F0.004937763604567431
sS'live'
p188
F0.0021602715769982513
sS'grow'
p189
F0.0026746219524740253
sS'process'
p190
F0.0006172204505709289
sS'attack'
p191
F0.0020574015019030963
sS'ethnic_#-1'
p192
F0.011418578335562184
sS'Plan'
p193
F0.0019545314268079417
sS'Declaration'
p194
F0.0038061927785207283
sS'linguistic'
p195
F0.006892295031375373
sS'racial_#-1'
p196
F0.0046291533792819665
sS'stage'
p197
F0.00020574015019030964
sS'cultural_#1'
p198
F0.0031889723279497992
sS'particularities_#-3'
p199
F0.004732023454377122
sS'treat'
p200
F0.0013373109762370126
sS'field'
p201
F0.00010287007509515482
sS'non-discrimination'
p202
F0.0012344409011418578
sS'form'
p203
F0.0014401810513321675
sS'provoke'
p204
F0.0026746219524740253
sS'societies'
p205
F0.00010287007509515482
sS'heritage'
p206
F0.0026746219524740253
sS'protect'
p207
F0.006583684806089909
sS'question'
p208
F0.0010287007509515481
sS'Nations'
p209
F0.0008229606007612386
sS'carrying'
p210
F0.00020574015019030964
sS'universally'
p211
F0.00020574015019030964
sS'invoked_#2'
p212
F0.002880362102664335
sS'racial_#-2'
p213
F0.005143503754757741
sS'Action'
p214
F0.0024688818022837156
sS'cases'
p215
F0.00010287007509515482
sS'promote'
p216
F0.007406645406851147
sS'historical_#-3'
p217
F0.0014401810513321675
sS'historical_#-2'
p218
F0.005246373829852896
sS'historical_#-1'
p219
F0.00010287007509515482
sS'circumstances'
p220
F0.0029832321777594896
sS'sound'
p221
F0.00010287007509515482
sS'organizations'
p222
F0.006686554881185063
sS'account'
p223
F0.0010287007509515481
sS'ensuring_#3'
p224
F0.0012344409011418578
sS'policies_#-3'
p225
F0.004526283304186812
sS'effective'
p226
F0.002880362102664335
sS'Office'
p227
F0.0005143503754757741
sS'accordance'
p228
F0.0027774920275691803
sS'alia'
p229
F0.0018516613517127868
sS'State'
p230
F0.0018516613517127868
sS'linguistic_#1'
p231
F0.006686554881185063
sS'return'
p232
F0.00010287007509515482
sS'future'
p233
F0.00010287007509515482
sS'incidents'
p234
F0.00030861022528546445
sS'historical'
p235
F0.006583684806089909
sS'growing'
p236
F0.0016459212015224772
sS'mind_#3'
p237
F0.0037033227034255736
sS'similar'
p238
F0.0018516613517127868
sS'conformity'
p239
F0.002366011727188561
sS'called'
p240
F0.0005143503754757741
sS'nature'
p241
F0.0076123855570414565
sS'social'
p242
F0.0076123855570414565
sS'Conference'
p243
F0.00010287007509515482
sS'justify_#3'
p244
F0.0032918424030449543
sS'significance'
p245
F0.004834893529472277
sS'incessantly'
p246
F0.0041148030038061926
sS'exert'
p247
F0.0024688818022837156
sS'peace'
p248
F0.002366011727188561
sS'characteristics'
p249
F0.00020574015019030964
sS'universal'
p250
F0.003909062853615883
sS'contribute'
p251
F0.0037033227034255736
sS'mind'
p252
F0.004834893529472277
sS'purposes'
p253
F0.0029832321777594896
sS'general'
p254
F0.0027774920275691803
sS'globally'
p255
F0.0012344409011418578
sS'single'
p256
F0.0027774920275691803
sS'manner'
p257
F0.0013373109762370126
sS'obligations'
p258
F0.00010287007509515482
sS'Convention'
p259
F0.0018516613517127868
sS'Party'
p260
F0.0018516613517127868
sS'education'
p261
F0.0036004526283304186
sS'organs'
p262
F0.00020574015019030964
sS'vulnerable'
p263
F0.00020574015019030964
sS'High'
p264
F0.0019545314268079417
sS'Commissioner'
p265
F0.0019545314268079417
sS'economic_#3'
p266
F0.003394712478140109
sS'descent'
p267
F0.0004114803003806193
sS'variety'
p268
F0.00020574015019030964
sS'media'
p269
F0.0024688818022837156
sS'ensuring'
p270
F0.0014401810513321675
sS'acts'
p271
F0.007715255632136611
sS'nature_#2'
p272
F0.0018516613517127868
sS'Islamic'
p273
F0.00010287007509515482
sS'emphasis'
p274
F0.0020574015019030963
sS'Muslims'
p275
F0.0018516613517127868
sS'peoples'
p276
F0.001131570826046703
sS'Reiterates'
p277
F0.0020574015019030963
sS'figures'
p278
F0.00010287007509515482
sS'unjustifiable'
p279
F0.0030861022528546446
sS'concern'
p280
F0.0025717518773788707
sS'convictions'
p281
F0.00030861022528546445
sS'events'
p282
F0.001748791276617632
sS'development'
p283
F0.004937763604567431
sS'rights_#-3'
p284
F0.0025717518773788707
sS'regional'
p285
F0.008743956383088159
sS'context'
p286
F0.0006172204505709289
sS'combat'
p287
F0.00030861022528546445
sS'measures'
p288
F0.003394712478140109
sS'problems'
p289
F0.0010287007509515481
sS'mutual'
p290
F0.00010287007509515482
sS'set_#3'
p291
F0.0026746219524740253
sS'persons'
p292
F0.014196070363131365
sS'respected'
p293
F0.0025717518773788707
sS'abuse'
p294
F0.00010287007509515482
sS'social_#-1'
p295
F0.0024688818022837156
sS'suited'
p296
F0.0014401810513321675
sS'ethnic'
p297
F0.0170764324657957
sS'society'
p298
F0.004526283304186812
sS'protected'
p299
F0.0025717518773788707
sS'tendencies'
p300
F0.004320543153996503
sS'efforts'
p301
F0.007509515481946302
sS'grave'
p302
F0.0030861022528546446
sS'destruction'
p303
F0.00020574015019030964
sS'peaceful'
p304
F0.0015430511264273223
sS'concern_#-2'
p305
F0.002263141652093406
sS'calls'
p306
F0.002366011727188561
sS'fully'
p307
F0.0025717518773788707
sS'considered'
p308
F0.0006172204505709289
sS'calculated'
p309
F0.0026746219524740253
sS'adopt'
p310
F0.0020574015019030963
sS'cultural'
p311
F0.022219936220553443
sS'shrines_#3'
p312
F0.0024688818022837156
sS'States'
p313
F0.011830058635942805
sS'advocates'
p314
F0.0024688818022837156
sS'principle'
p315
F0.00020574015019030964
sS'fundamental'
p316
F0.0038061927785207283
sS'ideological'
p317
F0.005554984055138361
sS'model'
p318
F0.0013373109762370126
sS'laws'
p319
F0.00010287007509515482
sS'prevention'
p320
F0.0013373109762370126
sS'justify'
p321
F0.0032918424030449543
ssI2
(dp322
S'national_#2'
p323
F0.00041339396444811904
sS'concept'
p324
F0.0011368334022323274
sS'customary'
p325
F0.0016535758577924762
sS'global'
p326
F0.0019636213311285656
sS'existing'
p327
F0.0006200909466721786
sS'Republic'
p328
F0.00010334849111202976
sS'integrity'
p329
F0.001756924348904506
sS'issues'
p330
F0.00010334849111202976
sS'laid'
p331
F0.00041339396444811904
sS'spirit'
p332
F0.0005167424555601488
sg28
F0.00041339396444811904
sg258
F0.0005167424555601488
sS'foster'
p333
F0.0011368334022323274
sS'promoting'
p334
F0.0032038032244729227
sS'present'
p335
F0.0011368334022323274
sS'sovereignty'
p336
F0.0012401818933443572
sS'Programme'
p337
F0.00413393964448119
sS'resources'
p338
F0.0014468788755684168
sg37
F0.0008267879288962381
sS'lack'
p339
F0.0007234394377842084
sS'torture'
p340
F0.00010334849111202976
sg285
F0.002170318313352625
sS'entire'
p341
F0.0007234394377842084
sS'level'
p342
F0.0005167424555601488
sS'gender'
p343
F0.0008267879288962381
sg61
F0.00020669698222405952
sg65
F0.0014468788755684168
sg76
F0.0003100454733360893
sS'prevent'
p344
F0.0005167424555601488
sg78
F0.0016535758577924762
sS'leaders'
p345
F0.0033071517155849523
sg82
F0.0008267879288962381
sg84
F0.0011368334022323274
sS'past'
p346
F0.00020669698222405952
sg230
F0.0028937577511368336
sS'established'
p347
F0.0005167424555601488
sg16
F0.044749896651508886
sS'expressed'
p348
F0.00010334849111202976
sS'access'
p349
F0.002583712277800744
sg113
F0.00020669698222405952
sg115
F0.010438197602315007
sS'increasing'
p350
F0.00020669698222405952
sg118
F0.004857379082265399
sg122
F0.007854485324514262
sS'exchange'
p351
F0.0003100454733360893
sg126
F0.005580818520049607
sg131
F0.0033071517155849523
sg134
F0.00010334849111202976
sS'poverty'
p352
F0.0005167424555601488
sg135
F0.014158743282348077
sS'situation'
p353
F0.00010334849111202976
sS'active'
p354
F0.0007234394377842084
sS'strong'
p355
F0.00020669698222405952
sS'change'
p356
F0.0011368334022323274
sS'Chinese'
p357
F0.00010334849111202976
sS'experience'
p358
F0.00010334849111202976
sg152
F0.002066969822240595
sg153
F0.005064076064489459
sg242
F0.024493592393551054
sS'action'
p359
F0.0007234394377842084
sS'opinion'
p360
F0.0015502273666804464
sg166
F0.0008267879288962381
sS'family'
p361
F0.0010334849111202976
sS'private'
p362
F0.0019636213311285656
sS'young'
p363
F0.0006200909466721786
sS'Also'
p364
F0.00020669698222405952
sS'addressed'
p365
F0.0006200909466721786
sS'moral'
p366
F0.0012401818933443572
sS'aimed'
p367
F0.0007234394377842084
sS'resolutions'
p368
F0.00020669698222405952
sg176
F0.0011368334022323274
sS'working'
p369
F0.00020669698222405952
sS'cultural_#-2'
p370
F0.004960727573377429
sS'objectives'
p371
F0.0009301364200082679
sS'negative'
p372
F0.0006200909466721786
sg190
F0.0009301364200082679
sg188
F0.0022736668044646548
sS'approach'
p373
F0.0005167424555601488
sg194
F0.0005167424555601488
sS'racial_#-3'
p374
F0.0005167424555601488
sg213
F0.004857379082265399
sS'Governments'
p375
F0.0031004547333608927
sS'These'
p376
F0.0007234394377842084
sg215
F0.0003100454733360893
sS'effort'
p377
F0.0003100454733360893
sg220
F0.0015502273666804464
sg222
F0.010644894584539065
sg223
F0.0032038032244729227
sS'migrants'
p378
F0.0037205456800330715
sg62
F0.024286895411326996
sS'pursue'
p379
F0.0011368334022323274
sg229
F0.0010334849111202976
sg231
F0.0046506821000413395
sS'values'
p380
F0.009818106655642828
sS'awareness'
p381
F0.0018602728400165358
sS'concepts'
p382
F0.0005167424555601488
sg236
F0.00010334849111202976
sS'making'
p383
F0.00020669698222405952
sg239
F0.003823894171145101
sS'history'
p384
F0.001756924348904506
sg243
F0.0008267879288962381
sg147
F0.00041339396444811904
sg186
F0.00020669698222405952
sS'Federal'
p385
F0.00010334849111202976
sS'rape'
p386
F0.00010334849111202976
sS'information'
p387
F0.0022736668044646548
sS'needs'
p388
F0.0016535758577924762
sg266
F0.0006200909466721786
sS'end'
p389
F0.0010334849111202976
sS'democracy'
p390
F0.0007234394377842084
sS'political_#2'
p391
F0.0011368334022323274
sS'provide'
p392
F0.0014468788755684168
sg271
F0.00010334849111202976
sS'cleansing'
p393
F0.0007234394377842084
sS'regions'
p394
F0.00041339396444811904
sS'numerous'
p395
F0.00010334849111202976
sS'ordinary'
p396
F0.00010334849111202976
sg60
F0.0006200909466721786
sS'minority'
p397
F0.0003100454733360893
sS'economic_#2'
p398
F0.0012401818933443572
sS'educational'
p399
F0.002583712277800744
sg294
F0.00020669698222405952
sg297
F0.011678379495659363
sS'law'
p400
F0.002066969822240595
sS'All'
p401
F0.0005167424555601488
sS'natural'
p402
F0.0024803637866887144
sS'political_#3'
p403
F0.0005167424555601488
sg226
F0.0006200909466721786
sS'light'
p404
F0.0003100454733360893
sg104
F0.0024803637866887144
sS'responsibility'
p405
F0.001343530384456387
sg316
F0.004857379082265399
sS'things'
p406
F0.0006200909466721786
sS'democratic'
p407
F0.003823894171145101
sS'order'
p408
F0.0008267879288962381
sS'institutional'
p409
F0.0008267879288962381
sS'developed'
p410
F0.0009301364200082679
sS'trade'
p411
F0.00020669698222405952
sS'course'
p412
F0.00010334849111202976
sg12
F0.0031004547333608927
sS'committed'
p413
F0.0005167424555601488
sS'existence'
p414
F0.00041339396444811904
sS'political_#-1'
p415
F0.0018602728400165358
sg19
F0.0006200909466721786
sg20
F0.00020669698222405952
sS'beliefs'
p416
F0.0032038032244729227
sS'personal'
p417
F0.0007234394377842084
sg158
F0.0015502273666804464
sS'territorial'
p418
F0.0009301364200082679
sS'parts'
p419
F0.00010334849111202976
sg31
F0.0024803637866887144
sS'policy'
p420
F0.002170318313352625
sg34
F0.00041339396444811904
sS'main'
p421
F0.0010334849111202976
sS'indigenous'
p422
F0.00423728813559322
sS'framework'
p423
F0.0008267879288962381
sS'organizations_#-3'
p424
F0.0009301364200082679
sS'Roma'
p425
F0.00020669698222405952
sS'communities'
p426
F0.0011368334022323274
sS'association'
p427
F0.0003100454733360893
sg56
F0.0028937577511368336
sS'Herzegovina'
p428
F0.0006200909466721786
sg63
F0.006614303431169905
sS'Conventions'
p429
F0.00020669698222405952
sS'accompanied'
p430
F0.0005167424555601488
sS'friendship'
p431
F0.0014468788755684168
sS'status'
p432
F0.0009301364200082679
sS'financial'
p433
F0.0008267879288962381
sS'cultural_#3'
p434
F0.0044439851178172795
sg83
F0.0005167424555601488
sg198
F0.005167424555601488
sg86
F0.00010334849111202976
sS'principles'
p435
F0.0024803637866887144
sg87
F0.0015502273666804464
sS'social_#-2'
p436
F0.001343530384456387
sS'social_#-3'
p437
F0.0024803637866887144
sg90
F0.00041339396444811904
sg295
F0.0022736668044646548
sg268
F0.0003100454733360893
sg92
F0.0003100454733360893
sS'programmes'
p438
F0.003513848697809012
sS'sexual'
p439
F0.00020669698222405952
sS'special'
p440
F0.0012401818933443572
sS'living'
p441
F0.0009301364200082679
sg102
F0.00020669698222405952
sg108
F0.0006200909466721786
sS'include'
p442
F0.001756924348904506
sg109
F0.00413393964448119
sg111
F0.0046506821000413395
sS'issue'
p443
F0.00020669698222405952
sS'This'
p444
F0.00010334849111202976
sS'mechanisms'
p445
F0.0008267879288962381
sg130
F0.00010334849111202976
sS'free'
p446
F0.0016535758577924762
sS'campaigns'
p447
F0.0012401818933443572
sS'disputes'
p448
F0.00010334849111202976
sS'violation'
p449
F0.00010334849111202976
sg137
F0.0009301364200082679
sg211
F0.0031004547333608927
sg140
F0.0010334849111202976
sS'training'
p450
F0.001756924348904506
sS'language'
p451
F0.0006200909466721786
sS'refugee'
p452
F0.0005167424555601488
sS'priorities'
p453
F0.003513848697809012
sS'place'
p454
F0.00010334849111202976
sg159
F0.002170318313352625
sS'major'
p455
F0.00010334849111202976
sg208
F0.00041339396444811904
sS'primary'
p456
F0.0007234394377842084
sS'sovereign'
p457
F0.002997106242248863
sg173
F0.0019636213311285656
sS'legislative'
p458
F0.001343530384456387
sg46
F0.00010334849111202976
sS'practitioners'
p459
F0.0006200909466721786
sS'leading'
p460
F0.00020669698222405952
sS'girls'
p461
F0.0010334849111202976
sg22
F0.0016535758577924762
sS'relations'
p462
F0.00020669698222405952
sS'ethnic_#-2'
p463
F0.002687060768912774
sS'ethnic_#-3'
p464
F0.00434063662670525
sg192
F0.0032038032244729227
sS'tragic'
p465
F0.00010334849111202976
sg67
F0.00041339396444811904
sS'Such'
p466
F0.0014468788755684168
sS'violated'
p467
F0.0008267879288962381
sg205
F0.0016535758577924762
sS'environmental'
p468
F0.0007234394377842084
sS'part'
p469
F0.00010334849111202976
sS'norms'
p470
F0.0007234394377842084
sS'population'
p471
F0.0015502273666804464
sS'wide'
p472
F0.00041339396444811904
sg177
F0.00010334849111202976
sg228
F0.002997106242248863
sg180
F0.0012401818933443572
sS'youth'
p473
F0.002066969822240595
sS'officials'
p474
F0.00020669698222405952
sg235
F0.003617197188921042
sS'providing'
p475
F0.0014468788755684168
sS'strengthen'
p476
F0.0012401818933443572
sS'measures_#-3'
p477
F0.00010334849111202976
sS'need'
p478
F0.0018602728400165358
sS'diversity_#1'
p479
F0.0018602728400165358
sg263
F0.0006200909466721786
sS'diversity_#2'
p480
F0.0011368334022323274
sS'affairs'
p481
F0.00020669698222405952
sS'person'
p482
F0.0008267879288962381
sS'able'
p483
F0.0010334849111202976
sg274
F0.0003100454733360893
sS'potential'
p484
F0.0005167424555601488
sS'They'
p485
F0.00010334849111202976
sS'objective'
p486
F0.00010334849111202976
sg280
F0.0005167424555601488
sS'With'
p487
F0.0003100454733360893
sg284
F0.0006200909466721786
sS'regard'
p488
F0.0007234394377842084
sg287
F0.0008267879288962381
sg288
F0.001343530384456387
sS'harmful'
p489
F0.0016535758577924762
sS'values_#2'
p490
F0.004960727573377429
sS'services'
p491
F0.002066969822240595
sS'The'
p492
F0.011781727986771393
sg302
F0.00010334849111202976
sg304
F0.00020669698222405952
sS'especially'
p493
F0.00020669698222405952
sg308
F0.0005167424555601488
sS'medical'
p494
F0.0012401818933443572
sS'humanitarian'
p495
F0.0008267879288962381
sg264
F0.0005167424555601488
sg315
F0.00010334849111202976
sS'professional'
p496
F0.00010334849111202976
sS'institutions'
p497
F0.0044439851178172795
sS'fact'
p498
F0.00010334849111202976
sg319
F0.003513848697809012
sS'sector'
p499
F0.0010334849111202976
sS'leaders_#1'
p500
F0.0009301364200082679
sg6
F0.00010334849111202976
sg8
F0.0003100454733360893
sS'representatives'
p501
F0.0015502273666804464
sg17
F0.0006200909466721786
sg21
F0.002583712277800744
sS'implementation'
p502
F0.00413393964448119
sg25
F0.00020669698222405952
sS'women_#-2'
p503
F0.0006200909466721786
sS'social_#1'
p504
F0.0014468788755684168
sS'social_#2'
p505
F0.002170318313352625
sS'crime'
p506
F0.00010334849111202976
sg29
F0.00423728813559322
sS'tolerance'
p507
F0.0027904092600248035
sS'rich'
p508
F0.00020669698222405952
sS'local'
p509
F0.003617197188921042
sS'achieve'
p510
F0.0008267879288962381
sS'means'
p511
F0.00041339396444811904
sS'express'
p512
F0.0006200909466721786
sg48
F0.0006200909466721786
sS'areas'
p513
F0.0009301364200082679
sg74
F0.00010334849111202976
sS'reproductive'
p514
F0.0014468788755684168
sS'countries'
p515
F0.003927242662257131
sS'fields'
p516
F0.00010334849111202976
sS'priorities_#-3'
p517
F0.002687060768912774
sS'common'
p518
F0.00020669698222405952
sS'recommendations'
p519
F0.002997106242248863
sS'sustainable'
p520
F0.00041339396444811904
sg73
F0.0006200909466721786
sg75
F0.0007234394377842084
sS'view'
p521
F0.0014468788755684168
sS'ethical'
p522
F0.005580818520049607
sg79
F0.0009301364200082679
sS'art'
p523
F0.00020669698222405952
sg175
F0.015295576684580404
sS'culture'
p524
F0.002583712277800744
sS'individual'
p525
F0.004030591153369161
sS'close'
p526
F0.0006200909466721786
sS'encouraged'
p527
F0.0005167424555601488
sS'ways'
p528
F0.0008267879288962381
sg107
F0.0006200909466721786
sS'degrading'
p529
F0.00010334849111202976
sg299
F0.0011368334022323274
sg112
F0.0010334849111202976
sg70
F0.0010334849111202976
sg117
F0.002997106242248863
sg241
F0.00010334849111202976
sS'importance'
p530
F0.0016535758577924762
sS'agencies'
p531
F0.001343530384456387
sS'key'
p532
F0.0005167424555601488
sg169
F0.0031004547333608927
sS'article'
p533
F0.00020669698222405952
sg207
F0.0005167424555601488
sg145
F0.005994212484497726
sS'region'
p534
F0.0010334849111202976
sS'according'
p535
F0.00020669698222405952
sS'drug'
p536
F0.00010334849111202976
sg150
F0.006924348904505994
sS'groups_#2'
p537
F0.0037205456800330715
sS'groups_#1'
p538
F0.0024803637866887144
sS'manifestations'
p539
F0.0006200909466721786
sg286
F0.00041339396444811904
sS'expression'
p540
F0.0005167424555601488
sg163
F0.00020669698222405952
sS'relevant'
p541
F0.00041339396444811904
sS'point'
p542
F0.00041339396444811904
sS'reasons'
p543
F0.0005167424555601488
sS'coexistence'
p544
F0.0019636213311285656
sg170
F0.004857379082265399
sS'respect'
p545
F0.016122364613476645
sS'conference'
p546
F0.00020669698222405952
sS'arts'
p547
F0.00041339396444811904
sS'basis'
p548
F0.0018602728400165358
sg183
F0.0012401818933443572
sg184
F0.0028937577511368336
sg172
F0.010541546093427036
sS'due'
p549
F0.0005167424555601488
sg193
F0.00010334849111202976
sS'basic'
p550
F0.0014468788755684168
sg195
F0.007544439851178173
sS'meeting'
p551
F0.00020669698222405952
sS'dialogue'
p552
F0.0007234394377842084
sS'diversity'
p553
F0.005994212484497726
sg209
F0.003617197188921042
sg270
F0.0014468788755684168
sS'systematic'
p554
F0.00020669698222405952
sg214
F0.0037205456800330715
sg217
F0.00020669698222405952
sg218
F0.0008267879288962381
sg219
F0.0006200909466721786
sg221
F0.00041339396444811904
sS'developing'
p555
F0.0009301364200082679
sS'beliefs_#1'
p556
F0.0019636213311285656
sg123
F0.0005167424555601488
sS'irrespective'
p557
F0.00010334849111202976
sS'Taiwan'
p558
F0.00010334849111202976
sS'property'
p559
F0.00041339396444811904
sS'Any'
p560
F0.00041339396444811904
sg257
F0.00010334849111202976
sS'played'
p561
F0.0009301364200082679
sg249
F0.0016535758577924762
sS'engaged'
p562
F0.0007234394377842084
sg148
F0.0037205456800330715
sg293
F0.00010334849111202976
sg259
F0.00041339396444811904
sg114
F0.00010334849111202976
sS'develop'
p563
F0.0006200909466721786
sg267
F0.0033071517155849523
sg269
F0.002066969822240595
sS'began'
p564
F0.00010334849111202976
sS'member'
p565
F0.00010334849111202976
sS'complex'
p566
F0.0005167424555601488
sS'harmony'
p567
F0.0005167424555601488
sg276
F0.00857792476229847
sS'document'
p568
F0.0012401818933443572
sg281
F0.0015502273666804464
sS'composition'
p569
F0.0005167424555601488
sS'conflict'
p570
F0.0005167424555601488
sg283
F0.014468788755684168
sS'Bosnia'
p571
F0.0007234394377842084
sg265
F0.0003100454733360893
sg292
F0.0032038032244729227
sS'levels'
p572
F0.0034105002066969823
sS'purpose'
p573
F0.0009301364200082679
sS'opportunity'
p574
F0.0014468788755684168
sS'tradition'
p575
F0.00010334849111202976
sS'identity'
p576
F0.001756924348904506
sS'obstacles'
p577
F0.00041339396444811904
sS'constitutional'
p578
F0.0005167424555601488
sg313
F0.005787515502273667
sS'academic'
p579
F0.0007234394377842084
sS'practices'
p580
F0.0034105002066969823
sS'organization'
p581
F0.0015502273666804464
sg318
F0.0011368334022323274
sS'bodies'
p582
F0.0012401818933443572
sg14
F0.00010334849111202976
sg5
F0.00434063662670525
sS'endeavour'
p583
F0.0008267879288962381
sS'traditions'
p584
F0.0028937577511368336
sg7
F0.00020669698222405952
sS'actions'
p585
F0.00020669698222405952
sg13
F0.02232327408019843
sS'protecting'
p586
F0.0008267879288962381
sS'workers'
p587
F0.0006200909466721786
sS'governmental'
p588
F0.00041339396444811904
sS'spread'
p589
F0.00010334849111202976
sS'parents'
p590
F0.0005167424555601488
sS'treatment'
p591
F0.00010334849111202976
sS'ethical_#1'
p592
F0.0044439851178172795
sS'administrative'
p593
F0.0014468788755684168
sS'humanity'
p594
F0.00010334849111202976
sS'associations'
p595
F0.0016535758577924762
sS'victims'
p596
F0.00010334849111202976
sg47
F0.00041339396444811904
sg311
F0.03389830508474576
sS'historic'
p597
F0.00010334849111202976
sS'background'
p598
F0.0012401818933443572
sS'taking'
p599
F0.001756924348904506
sS'unique'
p600
F0.00010334849111202976
sS'projects'
p601
F0.0008267879288962381
sg53
F0.0003100454733360893
sS'dignity'
p602
F0.001343530384456387
sg58
F0.00041339396444811904
sS'minorities_#3'
p603
F0.0033071517155849523
sS'collective'
p604
F0.0014468788755684168
sg100
F0.0006200909466721786
sS'individuals'
p605
F0.0022736668044646548
sS'steps'
p606
F0.001756924348904506
sS'security'
p607
F0.0012401818933443572
sg142
F0.0009301364200082679
sS'refugees'
p608
F0.0003100454733360893
sS'essential'
p609
F0.0010334849111202976
sg91
F0.017259198015708972
sS'International'
p610
F0.0009301364200082679
sg95
F0.007854485324514262
sg97
F0.0008267879288962381
sS'provided'
p611
F0.0009301364200082679
sS'Government'
p612
F0.002066969822240595
sS'broad'
p613
F0.00041339396444811904
sS'However'
p614
F0.0005167424555601488
sS'legal'
p615
F0.003927242662257131
sS'repression'
p616
F0.0009301364200082679
sS'religion'
p617
F0.00020669698222405952
sg43
F0.0006200909466721786
sg119
F0.0046506821000413395
sS'found'
p618
F0.00010334849111202976
sS'relating'
p619
F0.00020669698222405952
sg197
F0.00020669698222405952
sS'values_#1'
p620
F0.0018602728400165358
sS'central'
p621
F0.0010334849111202976
sS'citizens'
p622
F0.0007234394377842084
sg149
F0.0047540305911533695
sS'range'
p623
F0.0003100454733360893
sg155
F0.0024803637866887144
sS'Committee'
p624
F0.00041339396444811904
sS'positive'
p625
F0.00010334849111202976
sS'urges'
p626
F0.00041339396444811904
sg301
F0.0007234394377842084
sg185
F0.012815212897891691
sS'civil'
p627
F0.002997106242248863
sS'instruments'
p628
F0.00010334849111202976
sS'commitment'
p629
F0.0014468788755684168
sS'authorities'
p630
F0.001756924348904506
sg174
F0.0005167424555601488
sS'area'
p631
F0.0010334849111202976
sS'support'
p632
F0.0010334849111202976
sg187
F0.0015502273666804464
sg171
F0.0033071517155849523
sS'avail'
p633
F0.00020669698222405952
sS'organizations_#3'
p634
F0.0012401818933443572
sg206
F0.0015502273666804464
sS'cultures'
p635
F0.00041339396444811904
sS'national_#-3'
p636
F0.00020669698222405952
sg139
F0.0018602728400165358
sS'national_#-1'
p637
F0.0003100454733360893
sS'differences'
p638
F0.0005167424555601488
sS'goals'
p639
F0.0014468788755684168
sS'elimination'
p640
F0.0011368334022323274
sS'technologies'
p641
F0.0008267879288962381
sg216
F0.0023770152955766848
sS'directed'
p642
F0.00020669698222405952
sg227
F0.00010334849111202976
sg298
F0.007544439851178173
sS'full_#-2'
p643
F0.00413393964448119
sg240
F0.0010334849111202976
sS'strongly'
p644
F0.00010334849111202976
sS'strengthening'
p645
F0.00020669698222405952
sg250
F0.0008267879288962381
sS'influence'
p646
F0.0005167424555601488
sS'deep'
p647
F0.0006200909466721786
sg256
F0.0008267879288962381
sS'diverse'
p648
F0.0011368334022323274
sS'rule'
p649
F0.0016535758577924762
sg261
F0.006614303431169905
sS'identities'
p650
F0.0012401818933443572
sS'physical'
p651
F0.00041339396444811904
sS'traditional'
p652
F0.0034105002066969823
sg290
F0.0034105002066969823
sS'Tibet'
p653
F0.00020669698222405952
sg248
F0.0009301364200082679
sg201
F0.0006200909466721786
sS'role'
p654
F0.0022736668044646548
sS'respect_#-1'
p655
F0.0045473336089293095
sS'elements'
p656
F0.0005167424555601488
sS'linguistic_#-1'
p657
F0.0024803637866887144
sS'important'
p658
F0.0010334849111202976
sS'included'
p659
F0.00041339396444811904
sS'structure'
p660
F0.00041339396444811904
sS'building'
p661
F0.0016535758577924762
sS'land'
p662
F0.0010334849111202976
sS'organization_#-2'
p663
F0.0010334849111202976
sS'mass'
p664
F0.00010334849111202976
sS'rural'
p665
F0.0006200909466721786
ssI3
(dp666
g3
F0.0002658160552897395
sg323
F0.0007974481658692185
sg11
F0.0002658160552897395
sS'discrimination_#-3'
p667
F0.002658160552897395
sg328
F0.003987240829346092
sg16
F0.04758107389686337
sS'children'
p668
F0.004784688995215311
sS'1949'
p669
F0.004253056884635832
sS'subjected'
p670
F0.000531632110579479
sg258
F0.003189792663476874
sg338
F0.0002658160552897395
sg37
F0.0034556087187666137
sg340
F0.0023923444976076554
sS'rise'
p671
F0.0002658160552897395
sg52
F0.0013290802764486975
sg343
F0.006645401382243487
sg64
F0.001594896331738437
sg66
F0.0013290802764486975
sS'race'
p672
F0.0029239766081871343
sg229
F0.0013290802764486975
sg344
F0.0023923444976076554
sS'force'
p673
F0.001063264221158958
sg84
F0.0002658160552897395
sg346
F0.001063264221158958
sg230
F0.0018607123870281765
sg347
F0.000531632110579479
sg124
F0.0023923444976076554
sS'deeply'
p674
F0.000531632110579479
sS'liberty'
p675
F0.000531632110579479
sS'current'
p676
F0.000531632110579479
sg113
F0.000531632110579479
sg115
F0.012759170653907496
sg131
F0.000531632110579479
sS'reported'
p677
F0.002658160552897395
sg134
F0.0007974481658692185
sg135
F0.0007974481658692185
sS'civilians'
p678
F0.005050505050505051
sg354
F0.000531632110579479
sg355
F0.000531632110579479
sg138
F0.001063264221158958
sg356
F0.000531632110579479
sS'extreme'
p679
F0.0002658160552897395
sS'involved'
p680
F0.0002658160552897395
sS'humanitarian_#3'
p681
F0.003189792663476874
sg242
F0.0002658160552897395
sg359
F0.0018607123870281765
sS'military'
p682
F0.0013290802764486975
sS'punishment'
p683
F0.000531632110579479
sg166
F0.0002658160552897395
sg361
F0.000531632110579479
sg362
F0.0002658160552897395
sg366
F0.0007974481658692185
sg367
F0.0007974481658692185
sg368
F0.000531632110579479
sS'armed'
p684
F0.005582137161084529
sS'August'
p685
F0.004518872939925572
sS'illegal'
p686
F0.0002658160552897395
sg185
F0.006645401382243487
sg188
F0.000531632110579479
sS'call'
p687
F0.0007974481658692185
sg194
F0.0002658160552897395
sg374
F0.003189792663476874
sg213
F0.001063264221158958
sg196
F0.014885699096225412
sg375
F0.0002658160552897395
sS'populations'
p688
F0.0018607123870281765
sg215
F0.000531632110579479
sg377
F0.0002658160552897395
sg153
F0.003721424774056353
sg62
F0.004784688995215311
sS'1998'
p689
F0.001594896331738437
sg231
F0.003721424774056353
sS'paragraph'
p690
F0.004784688995215311
sg234
F0.000531632110579479
sS'group_#1'
p691
F0.005847953216374269
sg384
F0.0002658160552897395
sg147
F0.0018607123870281765
sg186
F0.000531632110579479
sg385
F0.0023923444976076554
sg630
F0.002658160552897395
sS'violations_#2'
p692
F0.003189792663476874
sg386
F0.003189792663476874
sg387
F0.001594896331738437
sg388
F0.000531632110579479
sg389
F0.000531632110579479
sg271
F0.005847953216374269
sg393
F0.003987240829346092
sg275
F0.001063264221158958
sS'genocide'
p693
F0.002658160552897395
sS'widespread'
p694
F0.0023923444976076554
sg60
F0.0002658160552897395
sS'article_#3'
p695
F0.0029239766081871343
sg120
F0.001594896331738437
sS'impartial'
p696
F0.003189792663476874
sg297
F0.03987240829346093
sS'political_#1'
p697
F0.006113769271664009
sg400
F0.017809675704412546
sg316
F0.005582137161084529
sS'impermissible'
p698
F0.00531632110579479
sg407
F0.0002658160552897395
sg408
F0.002658160552897395
sg410
F0.001594896331738437
sg412
F0.0002658160552897395
sg12
F0.018341307814992026
sg413
F0.005050505050505051
sg414
F0.001063264221158958
sg415
F0.0002658160552897395
sg19
F0.0029239766081871343
sg20
F0.0034556087187666137
sg88
F0.019670388091440724
sg417
F0.0002658160552897395
sg158
F0.0002658160552897395
sg419
F0.001594896331738437
sg420
F0.0002658160552897395
sg232
F0.003189792663476874
sS'halt'
p699
F0.003189792663476874
sS'civilian'
p700
F0.006911217437533227
sg422
F0.0002658160552897395
sg396
F0.0002658160552897395
sS'term'
p701
F0.000531632110579479
sg56
F0.0002658160552897395
sg307
F0.005847953216374269
sg428
F0.002126528442317916
sg429
F0.003721424774056353
sg430
F0.0007974481658692185
sS'violations'
p702
F0.004784688995215311
sS'mental'
p703
F0.001594896331738437
sg198
F0.002658160552897395
sS'crimes'
p704
F0.006911217437533227
sS'belonging_#-2'
p705
F0.0034556087187666137
sg436
F0.0002658160552897395
sg298
F0.0002658160552897395
sg92
F0.000531632110579479
sg439
F0.002126528442317916
sg440
F0.000531632110579479
sg435
F0.000531632110579479
sg441
F0.000531632110579479
sg108
F0.0002658160552897395
sS'belief'
p706
F0.001063264221158958
sg444
F0.0002658160552897395
sS'members'
p707
F0.0007974481658692185
sS'conflicts'
p708
F0.001594896331738437
sg137
F0.000531632110579479
sg211
F0.004784688995215311
sS'defined_#2'
p709
F0.004253056884635832
sS'grounds_#1'
p710
F0.007708665603402445
sS'times'
p711
F0.0002658160552897395
sg454
F0.0002658160552897395
sS'origin'
p712
F0.005050505050505051
sg173
F0.0002658160552897395
sS'city'
p713
F0.0007974481658692185
sg463
F0.017543859649122806
sg191
F0.001594896331738437
sg192
F0.01621477937267411
sg465
F0.0018607123870281765
sg466
F0.0029239766081871343
sg175
F0.023657628920786815
sg206
F0.0002658160552897395
sg469
F0.006379585326953748
sg470
F0.0002658160552897395
sg471
F0.008506113769271665
sg177
F0.001063264221158958
sg299
F0.001063264221158958
sS'contrary'
p714
F0.000531632110579479
sg252
F0.0002658160552897395
sS'ethnical'
p715
F0.003189792663476874
sS'substantial'
p716
F0.0018607123870281765
sg478
F0.0002658160552897395
sS'forced'
p717
F0.0034556087187666137
sS'responsible'
p718
F0.001063264221158958
sS'internal'
p719
F0.0002658160552897395
sg486
F0.000531632110579479
sS'destroy'
p720
F0.003721424774056353
sg288
F0.0034556087187666137
sS'freedom_#-1'
p721
F0.0002658160552897395
sg491
F0.003189792663476874
sg492
F0.012227538543328018
sg302
F0.000531632110579479
sg493
F0.0018607123870281765
sg308
F0.0013290802764486975
sg309
F0.000531632110579479
sg495
F0.014619883040935672
sS'face'
p722
F0.0002658160552897395
sg315
F0.0002658160552897395
sg497
F0.0002658160552897395
sg449
F0.0023923444976076554
sS'bring'
p723
F0.0013290802764486975
sg21
F0.009569377990430622
sg505
F0.0002658160552897395
sg506
F0.0034556087187666137
sg29
F0.005050505050505051
sg510
F0.0002658160552897395
sg511
F0.000531632110579479
sg516
F0.001594896331738437
sg518
F0.003987240829346092
sS'Afghanistan'
p724
F0.003721424774056353
sg523
F0.001063264221158958
sg467
F0.0013290802764486975
sS'resulted_#3'
p725
F0.003189792663476874
sg280
F0.000531632110579479
sg528
F0.000531632110579479
sS'persons_#-3'
p726
F0.003189792663476874
sg107
F0.0013290802764486975
sS'weapons'
p727
F0.003189792663476874
sg117
F0.001063264221158958
sS'creating'
p728
F0.000531632110579479
sg241
F0.005582137161084529
sS'killing'
p729
F0.0034556087187666137
sS'incident'
p730
F0.0002658160552897395
sS'opposition'
p731
F0.0013290802764486975
sS'nationality'
p732
F0.0018607123870281765
sg207
F0.003189792663476874
sg145
F0.001594896331738437
sg534
F0.001063264221158958
sg150
F0.003721424774056353
sS'grounds'
p733
F0.018341307814992026
sg532
F0.000531632110579479
sg543
F0.001063264221158958
sg544
F0.000531632110579479
sg170
F0.0002658160552897395
sg533
F0.009303561935140883
sg545
F0.005050505050505051
sS'targeting'
p734
F0.0029239766081871343
sg183
F0.000531632110579479
sg184
F0.01036682615629984
sg172
F0.020202020202020204
sg304
F0.000531632110579479
sg195
F0.0018607123870281765
sS'offered'
p735
F0.003189792663476874
sg209
F0.0007974481658692185
sg270
F0.0002658160552897395
sS'lives'
p736
F0.000531632110579479
sg554
F0.003189792663476874
sg332
F0.001594896331738437
sS'And'
p737
F0.001594896331738437
sS'ethnical_#-2'
p738
F0.003189792663476874
sg353
F0.0002658160552897395
sg559
F0.001063264221158958
sg562
F0.000531632110579479
sg259
F0.0034556087187666137
sg38
F0.003721424774056353
sg261
F0.001594896331738437
sg269
F0.000531632110579479
sg565
F0.0002658160552897395
sS'unity'
p739
F0.0002658160552897395
sg566
F0.002658160552897395
sg651
F0.0029239766081871343
sg570
F0.007177033492822967
sg432
F0.000531632110579479
sS'Statute'
p740
F0.003189792663476874
sg571
F0.0013290802764486975
sg292
F0.006645401382243487
sg360
F0.0002658160552897395
sg576
F0.001063264221158958
sg303
F0.0007974481658692185
sg577
F0.0002658160552897395
sg578
F0.000531632110579479
sS'suffering'
p741
F0.005050505050505051
sg313
F0.001063264221158958
sg482
F0.001063264221158958
sg582
F0.003721424774056353
sg14
F0.0007974481658692185
sg2
F0.000531632110579479
sg5
F0.0018607123870281765
sS'gender_#1'
p742
F0.004784688995215311
sg585
F0.0007974481658692185
sg13
F0.007177033492822967
sg587
F0.0002658160552897395
sS'arrest'
p743
F0.000531632110579479
sg591
F0.001594896331738437
sg592
F0.0002658160552897395
sS'extensive'
p744
F0.0034556087187666137
sg594
F0.004518872939925572
sg596
F0.001063264221158958
sg311
F0.009835194045720362
sg597
F0.000531632110579479
sg598
F0.0002658160552897395
sg602
F0.0013290802764486975
sS'displaced'
p745
F0.003189792663476874
sS'minorities_#1'
p746
F0.004784688995215311
sg100
F0.002658160552897395
sS'arbitrary'
p747
F0.002658160552897395
sg607
F0.001063264221158958
sg142
F0.001594896331738437
sg608
F0.0007974481658692185
sg609
F0.0007974481658692185
sS'including_#-2'
p748
F0.002658160552897395
sS'delegation'
p749
F0.0002658160552897395
sg91
F0.000531632110579479
sg610
F0.000531632110579479
sg95
F0.028973950026581607
sg612
F0.006113769271664009
sg616
F0.0002658160552897395
sS'power'
p750
F0.0007974481658692185
sg129
F0.000531632110579479
sg618
F0.002658160552897395
sg619
F0.000531632110579479
sg622
F0.001063264221158958
sS'hostilities'
p751
F0.007442849548112706
sg149
F0.004518872939925572
sg155
F0.0034556087187666137
sS'act'
p752
F0.002658160552897395
sg626
F0.0013290802764486975
sg627
F0.0002658160552897395
sS'persecution'
p753
F0.0029239766081871343
sS'parties'
p754
F0.003721424774056353
sg631
F0.0002658160552897395
sg632
F0.0007974481658692185
sg187
F0.000531632110579479
sg633
F0.003189792663476874
sS'discrimination_#1'
p755
F0.003189792663476874
sS'resulted'
p756
F0.003189792663476874
sS'war'
p757
F0.003189792663476874
sg636
F0.010898458266879319
sg98
F0.0018607123870281765
sg637
F0.005050505050505051
sg203
F0.000531632110579479
sS'displacement'
p758
F0.0034556087187666137
sg642
F0.000531632110579479
sg306
F0.0002658160552897395
sS'cruel'
p759
F0.001063264221158958
sS'politically'
p760
F0.0002658160552897395
sg238
F0.0002658160552897395
sS'defined'
p761
F0.007177033492822967
sg250
F0.000531632110579479
sg647
F0.000531632110579479
sg254
F0.000531632110579479
sg256
F0.000531632110579479
sS'aspects_#2'
p762
F0.003189792663476874
sg557
F0.0013290802764486975
sS'Geneva'
p763
F0.003987240829346092
sS'generally'
p764
F0.0013290802764486975
sg273
F0.0002658160552897395
sg654
F0.0002658160552897395
sS'Yugoslavia'
p765
F0.002126528442317916
sg656
F0.000531632110579479
sg289
F0.0002658160552897395
sS'includes'
p766
F0.000531632110579479
sS'intent'
p767
F0.003721424774056353
sg659
F0.000531632110579479
sS'Myanmar'
p768
F0.004784688995215311
sg649
F0.001594896331738437
sg664
F0.002126528442317916
ssI4
(dp769
g11
F0.00044474093840338
sg326
F0.00022237046920169
sg667
F0.00088948187680676
sg329
F0.004447409384033801
sg668
F0.01667778519012675
sg330
F0.00133422281521014
sS'killings'
p770
F0.00333555703802535
sg26
F0.00733822548365577
sg331
F0.00044474093840338
sg334
F0.00022237046920169
sg219
F0.00066711140760507
sg442
F0.00378029797642873
sg338
F0.00022237046920169
sg37
F0.0155659328441183
sg339
F0.00311318656882366
sg340
F0.01289748721369802
sS'continues'
p771
F0.00044474093840338
sS'detention'
p772
F0.00378029797642873
sg327
F0.00177896375361352
sg52
F0.00578163219924394
sg343
F0.00088948187680676
sg64
F0.00022237046920169
sg66
F0.00022237046920169
sg672
F0.00022237046920169
sg76
F0.00044474093840338
sg346
F0.00044474093840338
sg230
F0.00022237046920169
sg16
F0.03268845897264843
sg675
F0.0022237046920169003
sg350
F0.0011118523460084502
sg118
F0.00133422281521014
sS'movement'
p773
F0.004002668445630421
sg122
F0.00311318656882366
sg131
F0.00022237046920169
sg677
F0.004002668445630421
sg134
F0.00533689126084056
sg352
F0.00066711140760507
sg135
F0.00711585501445408
sg678
F0.00155659328441183
sg679
F0.00044474093840338
sS'reports'
p774
F0.00756059595285746
sS'exploitation'
p775
F0.004225038914832111
sS'trial'
p776
F0.00355792750722704
sg359
F0.00022237046920169
sg682
F0.004447409384033801
sg670
F0.0022237046920169003
sg361
F0.00022237046920169
sg364
F0.0024460751612185904
sg365
F0.00133422281521014
sg368
F0.00133422281521014
sg684
F0.00066711140760507
sS'disappearances'
p777
F0.00266844563042028
sg685
F0.00022237046920169
sg369
F0.00088948187680676
sg370
F0.00022237046920169
sg372
F0.00044474093840338
sg385
F0.00044474093840338
sg194
F0.0022237046920169003
sg213
F0.00289081609962197
sg196
F0.00022237046920169
sg688
F0.0011118523460084502
sg215
F0.00333555703802535
sg153
F0.009339559706470981
sg223
F0.00022237046920169
sg378
F0.00177896375361352
sS'1995'
p778
F0.00133422281521014
sg62
F0.03313319991105181
sg229
F0.0011118523460084502
sg231
F0.00711585501445408
sg234
F0.00088948187680676
sg239
F0.00177896375361352
sg186
F0.00022237046920169
sg190
F0.0024460751612185904
sg253
F0.00022237046920169
sg386
F0.00044474093840338
sS'united'
p779
F0.00022237046920169
sg389
F0.00133422281521014
sg390
F0.00022237046920169
sg392
F0.00066711140760507
sg394
F0.00088948187680676
sg395
F0.00088948187680676
sS'detentions'
p780
F0.00311318656882366
sg694
F0.00289081609962197
sg60
F0.00133422281521014
sg671
F0.00088948187680676
sg397
F0.005114520791638871
sg696
F0.00133422281521014
sg266
F0.00022237046920169
sg297
F0.028018679119412943
sg400
F0.004669779853235491
sg401
F0.00044474093840338
sg404
F0.00088948187680676
sg316
F0.0022237046920169003
sg269
F0.00177896375361352
sg408
F0.00022237046920169
sg412
F0.00155659328441183
sg12
F0.01089615299088281
sg414
F0.00022237046920169
sg88
F0.00022237046920169
sg417
F0.00088948187680676
sg158
F0.00555926173004225
sg93
F0.0011118523460084502
sg700
F0.00133422281521014
sS'practice'
p781
F0.00155659328441183
sg422
F0.004002668445630421
sg423
F0.0022237046920169003
sg425
F0.00177896375361352
sg426
F0.00044474093840338
sg427
F0.004225038914832111
sg307
F0.0020013342228152103
sg748
F0.00088948187680676
sS'Council'
p782
F0.00066711140760507
sg83
F0.00044474093840338
sS'relocations'
p783
F0.00311318656882366
sg86
F0.00533689126084056
sg705
F0.004225038914832111
sg87
F0.0011118523460084502
sS'challenges'
p784
F0.00022237046920169
sg437
F0.00022237046920169
sg92
F0.00088948187680676
sg438
F0.0022237046920169003
sg439
F0.004002668445630421
sS'extrajudicial'
p785
F0.0066711140760507
sg435
F0.0024460751612185904
sg441
F0.00088948187680676
sS'tensions'
p786
F0.00044474093840338
sg109
F0.00022237046920169
sg706
F0.00355792750722704
sg125
F0.00911718923726929
sg446
F0.00066711140760507
sg447
F0.00044474093840338
sg707
F0.00333555703802535
sS'put'
p787
F0.00133422281521014
sg710
F0.0011118523460084502
sg294
F0.00333555703802535
sg454
F0.00044474093840338
sg157
F0.004002668445630421
sg159
F0.00133422281521014
sg712
F0.00022237046920169
sg455
F0.00022237046920169
sg208
F0.005114520791638871
sS'number'
p788
F0.0022237046920169003
sS'executions'
p789
F0.01289748721369802
sS'carry'
p790
F0.00022237046920169
sg178
F0.00756059595285746
sg458
F0.00022237046920169
sS'service'
p791
F0.00044474093840338
sg461
F0.00044474093840338
sg464
F0.00022237046920169
sg192
F0.02423838114298421
sg67
F0.00333555703802535
sg466
F0.00022237046920169
sg467
F0.0022237046920169003
sS'Child'
p792
F0.004002668445630421
sg468
F0.00066711140760507
sg469
F0.00044474093840338
sg470
F0.00022237046920169
sg471
F0.00311318656882366
sg472
F0.00044474093840338
sg177
F0.00022237046920169
sg228
F0.00022237046920169
sS'summary'
p793
F0.01423171002890816
sS'submitted'
p794
F0.00333555703802535
sS'alleged'
p795
F0.00155659328441183
sg139
F0.00822770736046253
sg477
F0.00289081609962197
sS'seen'
p796
F0.00022237046920169
sS'seek'
p797
F0.00022237046920169
sg263
F0.0024460751612185904
sg717
F0.016900155659328443
sg483
F0.00022237046920169
sg30
F0.00711585501445408
sg45
F0.00333555703802535
sg487
F0.00088948187680676
sS'rights_#-2'
p798
F0.00333555703802535
sS'oppressive'
p799
F0.00266844563042028
sg288
F0.00555926173004225
sg154
F0.00177896375361352
sg492
F0.00311318656882366
sg302
F0.00311318656882366
sg304
F0.00088948187680676
sg493
F0.00177896375361352
sg308
F0.00022237046920169
sg495
F0.00044474093840338
sS'directed_#-2'
p800
F0.00266844563042028
sg499
F0.00066711140760507
sg500
F0.00044474093840338
sg449
F0.00044474093840338
sg501
F0.00022237046920169
sg723
F0.00088948187680676
sS'occupation'
p801
F0.00044474093840338
sg21
F0.0020013342228152103
sg502
F0.0011118523460084502
sg25
F0.00133422281521014
sg503
F0.00133422281521014
sg29
F0.00644874360684901
sS'Rapporteur'
p802
F0.018679119412941963
sg44
F0.0011118523460084502
sS'report'
p803
F0.00378029797642873
sg513
F0.0024460751612185904
sg515
F0.00066711140760507
sg507
F0.0011118523460084502
sS'Kong'
p804
F0.00022237046920169
sg518
F0.00088948187680676
sg519
F0.00022237046920169
sg724
F0.00044474093840338
sg81
F0.00177896375361352
sg175
F0.00956193017567267
sg474
F0.00022237046920169
sg280
F0.00355792750722704
sS'threats'
p805
F0.00088948187680676
sS'imposition'
p806
F0.00311318656882366
sg726
F0.00177896375361352
sg9
F0.00022237046920169
sg529
F0.004669779853235491
sg373
F0.00022237046920169
sS'corruption'
p807
F0.00044474093840338
sg530
F0.00022237046920169
sg128
F0.004447409384033801
sS'children_#-3'
p808
F0.00266844563042028
sS'restrictions'
p809
F0.004002668445630421
sg150
F0.01912386035134534
sg537
F0.004447409384033801
sg539
F0.00066711140760507
sg286
F0.00133422281521014
sg540
F0.008005336891260841
sg733
F0.00177896375361352
sg541
F0.00044474093840338
sg168
F0.00066711140760507
sg545
F0.0022237046920169003
sS'minority_#1'
p810
F0.00266844563042028
sg181
F0.00066711140760507
sg184
F0.013119857682899711
sg549
F0.0011118523460084502
sg550
F0.00133422281521014
sg195
F0.01045141205247943
sS'territory'
p811
F0.00088948187680676
sg209
F0.00177896375361352
sg270
F0.00022237046920169
sS'representative'
p812
F0.00088948187680676
sg554
F0.00044474093840338
sg335
F0.00066711140760507
sg123
F0.00066711140760507
sg353
F0.0020013342228152103
sS'Sudan'
p813
F0.004892150322437181
sg259
F0.004225038914832111
sg232
F0.00022237046920169
sg262
F0.00155659328441183
sg564
F0.00022237046920169
sg419
F0.00088948187680676
sg276
F0.00044474093840338
sS'party'
p814
F0.00155659328441183
sg651
F0.0011118523460084502
sg569
F0.00022237046920169
sg283
F0.00266844563042028
sS'independent'
p815
F0.00088948187680676
sg292
F0.020235712697353792
sg572
F0.00044474093840338
sg360
F0.00133422281521014
sg303
F0.00088948187680676
sg577
F0.00155659328441183
sg578
F0.00088948187680676
sg683
F0.00311318656882366
sg482
F0.00177896375361352
sS'severe'
p816
F0.0011118523460084502
sg580
F0.00378029797642873
sg320
F0.00022237046920169
sg5
F0.00177896375361352
sg585
F0.00133422281521014
sg13
F0.02156993551256393
sg586
F0.00044474093840338
sg587
F0.00155659328441183
sg743
F0.0022237046920169003
sg588
F0.00133422281521014
sg484
F0.00022237046920169
sg590
F0.00066711140760507
sg591
F0.004669779853235491
sg32
F0.00044474093840338
sg702
F0.016010673782521682
sg593
F0.00022237046920169
sg596
F0.00378029797642873
sg39
F0.00289081609962197
sS'government'
p817
F0.00088948187680676
sg601
F0.00266844563042028
sg745
F0.00133422281521014
sg746
F0.008450077829664221
sg58
F0.00622637313764732
sg100
F0.00088948187680676
sg605
F0.00133422281521014
sg747
F0.0111185234600845
sg607
F0.00155659328441183
sg142
F0.00044474093840338
sg608
F0.00044474093840338
sg609
F0.00022237046920169
sS'extremism'
p818
F0.00022237046920169
sg85
F0.00022237046920169
sg89
F0.00533689126084056
sg610
F0.00133422281521014
sg95
F0.00555926173004225
sg612
F0.004892150322437181
sS'inhuman'
p819
F0.004447409384033801
sg615
F0.00289081609962197
sg616
F0.00044474093840338
sg617
F0.0020013342228152103
sg68
F0.00044474093840338
sS'assembly'
p820
F0.00266844563042028
sg124
F0.00022237046920169
sg129
F0.00266844563042028
sg619
F0.00133422281521014
sg621
F0.00022237046920169
sS'freedom'
p821
F0.00644874360684901
sg147
F0.00066711140760507
sg149
F0.00133422281521014
sg155
F0.005114520791638871
sg624
F0.00088948187680676
sg625
F0.00044474093840338
sg626
F0.00155659328441183
sg301
F0.00088948187680676
sg164
F0.00022237046920169
sg165
F0.00022237046920169
sg628
F0.004892150322437181
sg174
F0.00022237046920169
sg754
F0.00022237046920169
sg187
F0.00266844563042028
sg171
F0.00133422281521014
sg755
F0.00088948187680676
sg98
F0.00822770736046253
sg488
F0.00133422281521014
sg758
F0.00289081609962197
sg640
F0.00155659328441183
sg216
F0.00022237046920169
sg642
F0.00533689126084056
sg306
F0.00022237046920169
sg759
F0.004002668445630421
sg760
F0.00088948187680676
sS'Special'
p822
F0.01979097175895041
sg644
F0.0011118523460084502
sg647
F0.00311318656882366
sS'held'
p823
F0.00022237046920169
sg719
F0.00066711140760507
sg557
F0.00044474093840338
sg764
F0.00066711140760507
sg273
F0.00044474093840338
sg654
F0.00088948187680676
sg440
F0.0022237046920169003
sS'extremism_#1'
p824
F0.00022237046920169
sS'issues_#1'
p825
F0.00022237046920169
sg289
F0.00088948187680676
sg658
F0.00022237046920169
sg659
F0.00022237046920169
sg662
F0.00022237046920169
sg768
F0.00266844563042028
sg649
F0.00177896375361352
sg317
F0.0011118523460084502
sg665
F0.00066711140760507
ssI5
(dp826
g323
F0.0013655872024970737
sg324
F0.0005852516582130316
sS'caused'
p827
F0.0007803355442840422
sg326
F0.0027311744049941474
sg327
F0.0003901677721420211
sg328
F0.0003901677721420211
sg329
F0.001755754974639095
sg668
F0.0003901677721420211
sg330
F0.0052672649239172845
sg770
F0.00019508388607101054
sS'crises'
p828
F0.0019508388607101053
sg109
F0.0003901677721420211
sg28
F0.0011705033164260631
sg335
F0.0011705033164260631
sS'China'
p829
F0.001755754974639095
sg336
F0.0011705033164260631
sg442
F0.0009754194303550526
sS'friendly'
p830
F0.0011705033164260631
sg338
F0.0019508388607101053
sg36
F0.009168942645337495
sg37
F0.0005852516582130316
sg339
F0.0009754194303550526
sS'terrorism_#-1'
p831
F0.0031213421771361686
sg771
F0.0003901677721420211
sg100
F0.0011705033164260631
sg52
F0.002536090518923137
sg341
F0.0013655872024970737
sg55
F0.002145922746781116
sg342
F0.0005852516582130316
sg343
F0.0005852516582130316
sg64
F0.00019508388607101054
sg66
F0.00019508388607101054
sg672
F0.0003901677721420211
sS'Turkey'
p832
F0.0015606710885680843
sg344
F0.00019508388607101054
sg78
F0.00019508388607101054
sg673
F0.0007803355442840422
sg345
F0.0027311744049941474
sg230
F0.00019508388607101054
sS'East'
p833
F0.002145922746781116
sg674
F0.0013655872024970737
sg348
F0.002926258291065158
sg349
F0.00019508388607101054
sg113
F0.0005852516582130316
sg115
F0.02536090518923137
sg350
F0.0009754194303550526
sg118
F0.0011705033164260631
sg122
F0.0011705033164260631
sg351
F0.0003901677721420211
sg677
F0.0011705033164260631
sg134
F0.00019508388607101054
sg352
F0.005072181037846274
sg135
F0.004486929379633242
sg354
F0.001755754974639095
sg355
F0.0011705033164260631
sg138
F0.0003901677721420211
sg356
F0.0005852516582130316
sg679
F0.001755754974639095
sg775
F0.0005852516582130316
sg153
F0.00019508388607101054
sS'resulting'
p834
F0.0023410066328521262
sg242
F0.015606710885680842
sg359
F0.0005852516582130316
sg682
F0.0037065938353492
sg161
F0.0003901677721420211
sg361
F0.00019508388607101054
sg362
F0.0009754194303550526
sg363
F0.0013655872024970737
sg364
F0.00019508388607101054
sg366
F0.00019508388607101054
sg367
F0.0009754194303550526
sS'belief_#1'
p835
F0.00019508388607101054
sg684
F0.0046820132657042525
sg686
F0.0039016777214202106
sg371
F0.0003901677721420211
sS'century'
p836
F0.0031213421771361686
sg372
F0.0007803355442840422
sS'freedom_#1'
p837
F0.00019508388607101054
sg188
F0.0003901677721420211
sg687
F0.00019508388607101054
sg194
F0.0013655872024970737
sg374
F0.0005852516582130316
sg213
F0.0015606710885680843
sg196
F0.004877097151775264
sS'today'
p838
F0.0013655872024970737
sg508
F0.001755754974639095
sS'wars'
p839
F0.0023410066328521262
sg210
F0.0023410066328521262
sg377
F0.0009754194303550526
sg484
F0.0019508388607101053
sg220
F0.0003901677721420211
sg222
F0.00019508388607101054
sg62
F0.0005852516582130316
sg379
F0.00019508388607101054
sg234
F0.0009754194303550526
sg236
F0.0015606710885680843
sg383
F0.0013655872024970737
sg239
F0.0003901677721420211
sg452
F0.001755754974639095
sg384
F0.0003901677721420211
sg243
F0.0009754194303550526
sg186
F0.00019508388607101054
sS'organized'
p840
F0.0046820132657042525
sS'high'
p841
F0.0011705033164260631
sg386
F0.00019508388607101054
sg387
F0.0031213421771361686
sg399
F0.0009754194303550526
sg779
F0.0013655872024970737
sg697
F0.0005852516582130316
sg390
F0.0007803355442840422
sg391
F0.0003901677721420211
sS'technological'
p842
F0.0023410066328521262
sg271
F0.0011705033164260631
sg393
F0.0007803355442840422
sg394
F0.0019508388607101053
sg395
F0.0009754194303550526
sg245
F0.0003901677721420211
sg693
F0.0015606710885680843
sg694
F0.0019508388607101053
sg285
F0.009559110417479515
sg397
F0.0031213421771361686
sg297
F0.032188841201716736
sg389
F0.0011705033164260631
sS'hatred'
p843
F0.0046820132657042525
sS'cults'
p844
F0.0003901677721420211
sg402
F0.0019508388607101053
sg403
F0.0015606710885680843
sg226
F0.0015606710885680843
sg404
F0.001755754974639095
sg104
F0.00351150994927819
sS'maintain'
p845
F0.0015606710885680843
sg405
F0.00019508388607101054
sg316
F0.0005852516582130316
sg406
F0.0011705033164260631
sg408
F0.0046820132657042525
sg410
F0.0011705033164260631
sg411
F0.002145922746781116
sg10
F0.007803355442840421
sg412
F0.0003901677721420211
sg12
F0.0005852516582130316
sg413
F0.0007803355442840422
sg414
F0.0009754194303550526
sg415
F0.0019508388607101053
sg18
F0.0003901677721420211
sg19
F0.0005852516582130316
sg88
F0.00019508388607101054
sg158
F0.0015606710885680843
sg418
F0.007608271556769411
sg566
F0.0009754194303550526
sg31
F0.00019508388607101054
sg156
F0.0007803355442840422
sg420
F0.0019508388607101053
sg35
F0.00721810378462739
sS'non'
p846
F0.00019508388607101054
sg93
F0.0009754194303550526
sS'views'
p847
F0.00019508388607101054
sg781
F0.0007803355442840422
sS'school'
p848
F0.0007803355442840422
sg423
F0.0003901677721420211
sS'President'
p849
F0.002145922746781116
sS'schools'
p850
F0.00019508388607101054
sg56
F0.0009754194303550526
sg307
F0.0007803355442840422
sS'India'
p851
F0.0015606710885680843
sg569
F0.0015606710885680843
sg782
F0.0011705033164260631
sg430
F0.0007803355442840422
sg433
F0.0003901677721420211
sg83
F0.0003901677721420211
sg704
F0.0023410066328521262
sg435
F0.0009754194303550526
sg87
F0.0011705033164260631
sg784
F0.003316426063207179
sg437
F0.00019508388607101054
sg295
F0.0005852516582130316
sg439
F0.00019508388607101054
sg102
F0.00351150994927819
sg786
F0.0023410066328521262
sS'truth'
p852
F0.00019508388607101054
sg331
F0.0003901677721420211
sg111
F0.0009754194303550526
sg443
F0.0011705033164260631
sS'foundation'
p853
F0.0007803355442840422
sg618
F0.00019508388607101054
sg444
F0.00019508388607101054
sg445
F0.0003901677721420211
sg446
F0.0003901677721420211
sg448
F0.002145922746781116
sg707
F0.0011705033164260631
sg708
F0.016191962543893875
sS'Security'
p854
F0.0023410066328521262
sg211
F0.0003901677721420211
sg143
F0.003316426063207179
sg451
F0.0005852516582130316
sS'propaganda'
p855
F0.002926258291065158
sg146
F0.0013655872024970737
sg787
F0.0003901677721420211
sg711
F0.0007803355442840422
sS'illicit'
p856
F0.005072181037846274
sg454
F0.0019508388607101053
sg712
F0.0007803355442840422
sg455
F0.004096761607491221
sg788
F0.0003901677721420211
sg457
F0.0007803355442840422
sg173
F0.00019508388607101054
sg790
F0.0007803355442840422
sS'reached'
p857
F0.0019508388607101053
sg178
F0.0013655872024970737
sg713
F0.00019508388607101054
sS'religions'
p858
F0.0003901677721420211
sg460
F0.0009754194303550526
sg22
F0.0007803355442840422
sg462
F0.004096761607491221
sg463
F0.005462348809988295
sg464
F0.0009754194303550526
sg191
F0.0003901677721420211
sg192
F0.013265704252828716
sg465
F0.0011705033164260631
sg466
F0.0003901677721420211
sS'interests'
p859
F0.0005852516582130316
sg205
F0.0011705033164260631
sS'continuous'
p860
F0.0003901677721420211
sg401
F0.0003901677721420211
sg468
F0.0037065938353492
sg469
F0.0007803355442840422
sg471
F0.0003901677721420211
sS'extremist_#1'
p861
F0.002926258291065158
sg472
F0.0003901677721420211
sg225
F0.0009754194303550526
sg180
F0.0013655872024970737
sS'states'
p862
F0.001755754974639095
sg233
F0.0003901677721420211
sg714
F0.00019508388607101054
sg98
F0.00351150994927819
sg476
F0.0003901677721420211
sg716
F0.0007803355442840422
sg478
F0.0005852516582130316
sg796
F0.0005852516582130316
sg262
F0.0005852516582130316
sS'clearly'
p863
F0.0013655872024970737
sg263
F0.0005852516582130316
sg481
F0.0023410066328521262
sS'After'
p864
F0.0019508388607101053
sg221
F0.00019508388607101054
sg719
F0.0039016777214202106
sS'forces'
p865
F0.015996878657822865
sS'transnational'
p866
F0.0039016777214202106
sg527
F0.0007803355442840422
sg487
F0.00019508388607101054
sg798
F0.00019508388607101054
sg488
F0.0019508388607101053
sg287
F0.0013655872024970737
sg288
F0.0011705033164260631
sg154
F0.0013655872024970737
sS'separatism_#-1'
p867
F0.0023410066328521262
sg492
F0.0148263753413968
sg302
F0.0005852516582130316
sg304
F0.002536090518923137
sg493
F0.0007803355442840422
sg308
F0.00019508388607101054
sg495
F0.00019508388607101054
sg722
F0.002536090518923137
sg652
F0.00019508388607101054
sg320
F0.0003901677721420211
sg498
F0.0007803355442840422
sg723
F0.0005852516582130316
sg801
F0.0011705033164260631
sg152
F0.0003901677721420211
sg25
F0.0009754194303550526
sg504
F0.0007803355442840422
sg506
F0.006047600468201327
sg507
F0.0005852516582130316
sS'conflicts_#-3'
p868
F0.0031213421771361686
sg509
F0.0031213421771361686
sg510
F0.0003901677721420211
sg512
F0.0003901677721420211
sg44
F0.0037065938353492
sS'joint'
p869
F0.0031213421771361686
sg48
F0.0011705033164260631
sS'exchanges'
p870
F0.0003901677721420211
sg513
F0.001755754974639095
sg515
F0.013265704252828716
sg516
F0.0009754194303550526
sg518
F0.0013655872024970737
sg71
F0.002926258291065158
sg520
F0.0015606710885680843
sg75
F0.0007803355442840422
sg521
F0.0013655872024970737
sg79
F0.0009754194303550526
sg523
F0.00019508388607101054
sg175
F0.016582130316035896
sS'actively'
p871
F0.0011705033164260631
sS'result'
p872
F0.0011705033164260631
sg526
F0.0003901677721420211
sg280
F0.0011705033164260631
sg805
F0.0023410066328521262
sS'reform'
p873
F0.0019508388607101053
sS'opening'
p874
F0.0011705033164260631
sg9
F0.0003901677721420211
sg727
F0.0015606710885680843
sg112
F0.004291845493562232
sg70
F0.0013655872024970737
sg373
F0.00019508388607101054
sg807
F0.0023410066328521262
sS'terms'
p875
F0.0007803355442840422
sg728
F0.0003901677721420211
sg241
F0.0015606710885680843
sg530
F0.0005852516582130316
sg16
F0.051697229808817795
sg729
F0.0009754194303550526
sg144
F0.0003901677721420211
sg731
F0.0011705033164260631
sg136
F0.0007803355442840422
sg732
F0.002926258291065158
sg145
F0.0011705033164260631
sg534
F0.00351150994927819
sg535
F0.00019508388607101054
sg536
F0.006047600468201327
sg240
F0.0011705033164260631
sg278
F0.00019508388607101054
sg541
F0.0031213421771361686
sg532
F0.0015606710885680843
sg543
F0.0019508388607101053
sg169
F0.0003901677721420211
sg544
F0.0005852516582130316
sg170
F0.004877097151775264
sg645
F0.0005852516582130316
sS'policies_#1'
p876
F0.0027311744049941474
sg734
F0.00019508388607101054
sg548
F0.0005852516582130316
sg183
F0.00019508388607101054
sg172
F0.015216543113538821
sg549
F0.0003901677721420211
sg589
F0.0023410066328521262
sg550
F0.002145922746781116
sg195
F0.0003901677721420211
sg811
F0.0027311744049941474
sg551
F0.0005852516582130316
sg553
F0.00019508388607101054
sS'drugs'
p877
F0.0023410066328521262
sS'crack'
p878
F0.003316426063207179
sg554
F0.0013655872024970737
sg332
F0.00019508388607101054
sg219
F0.0005852516582130316
sg737
F0.00019508388607101054
sg421
F0.0013655872024970737
sg555
F0.0009754194303550526
sg123
F0.005852516582130316
sg353
F0.004096761607491221
sg558
F0.00019508388607101054
sg559
F0.00019508388607101054
sg599
F0.0009754194303550526
sg561
F0.0003901677721420211
sS'separatism'
p879
F0.004291845493562232
sS'separatist'
p880
F0.0046820132657042525
sS'foreign'
p881
F0.0046820132657042525
sg114
F0.0039016777214202106
sg563
F0.0003901677721420211
sg797
F0.002145922746781116
sg564
F0.0003901677721420211
sg817
F0.0003901677721420211
sg565
F0.001755754974639095
sg739
F0.002536090518923137
sg419
F0.002145922746781116
sg276
F0.00019508388607101054
sg814
F0.0039016777214202106
sS'terrorism'
p882
F0.015216543113538821
sg282
F0.0005852516582130316
sg570
F0.005852516582130316
sg283
F0.005657432696059305
sg815
F0.0005852516582130316
sS'evil'
p883
F0.0003901677721420211
sg572
F0.0007803355442840422
sg575
F0.00019508388607101054
sg576
F0.00019508388607101054
sg303
F0.00019508388607101054
sg268
F0.00019508388607101054
sg578
F0.00019508388607101054
sg741
F0.0005852516582130316
sS'fighting'
p884
F0.0005852516582130316
sg313
F0.002145922746781116
sg579
F0.0003901677721420211
sg816
F0.00019508388607101054
sg580
F0.0003901677721420211
sS'Jerusalem'
p885
F0.00019508388607101054
sg582
F0.0003901677721420211
sg14
F0.0019508388607101053
sg7
F0.0015606710885680843
sg585
F0.002536090518923137
sS'forces_#2'
p886
F0.0023410066328521262
sS'violent'
p887
F0.0023410066328521262
sg13
F0.0019508388607101053
sg586
F0.0011705033164260631
sS'trafficking'
p888
F0.006632852126414358
sg201
F0.0013655872024970737
sg27
F0.00019508388607101054
sg30
F0.00019508388607101054
sg32
F0.0007803355442840422
sg702
F0.0011705033164260631
sg594
F0.0003901677721420211
sS'real'
p889
F0.0023410066328521262
sg485
F0.0027311744049941474
sS'Pakistan'
p890
F0.0019508388607101053
sg311
F0.00019508388607101054
sg597
F0.0023410066328521262
sg600
F0.00019508388607101054
sg602
F0.0003901677721420211
sS'consensus'
p891
F0.001755754974639095
sg68
F0.0007803355442840422
sg606
F0.00019508388607101054
sg607
F0.0111197815060476
sg608
F0.0011705033164260631
sg609
F0.0003901677721420211
sg818
F0.007608271556769411
sg85
F0.0003901677721420211
sS'extremist'
p892
F0.00702301989855638
sg91
F0.012680452594615685
sg610
F0.00019508388607101054
sg95
F0.005657432696059305
sg97
F0.00019508388607101054
sg611
F0.0005852516582130316
sS'contacts'
p893
F0.00019508388607101054
sg613
F0.0019508388607101053
sg614
F0.0009754194303550526
sS'spiritual_#1'
p894
F0.0003901677721420211
sS'resolutely'
p895
F0.002536090518923137
sg273
F0.00019508388607101054
sS'scientific'
p896
F0.0007803355442840422
sg750
F0.0011705033164260631
sg129
F0.0007803355442840422
sS'nationalities'
p897
F0.0023410066328521262
sg619
F0.00019508388607101054
sS'abroad'
p898
F0.0007803355442840422
sg147
F0.006827936012485368
sS'terrorism_#2'
p899
F0.0023410066328521262
sg149
F0.00019508388607101054
sg623
F0.0005852516582130316
sg155
F0.00019508388607101054
sg625
F0.0005852516582130316
sg301
F0.0039016777214202106
sg627
F0.004291845493562232
sg628
F0.00019508388607101054
sS'arms'
p900
F0.004291845493562232
sS'rising'
p901
F0.0019508388607101053
sg754
F0.00019508388607101054
sg631
F0.00019508388607101054
sg632
F0.0011705033164260631
sg187
F0.00019508388607101054
sg171
F0.0005852516582130316
sg755
F0.0003901677721420211
sg757
F0.005072181037846274
sg636
F0.0005852516582130316
sg139
F0.0052672649239172845
sg637
F0.0015606710885680843
sg203
F0.00019508388607101054
sg638
F0.0019508388607101053
sg216
F0.0003901677721420211
sS'Wang'
p902
F0.0005852516582130316
sg436
F0.0005852516582130316
sg760
F0.0007803355442840422
sg416
F0.00019508388607101054
sg822
F0.00019508388607101054
sg310
F0.0007803355442840422
sg251
F0.0003901677721420211
sg646
F0.002145922746781116
sg647
F0.0009754194303550526
sg256
F0.00019508388607101054
sg823
F0.0013655872024970737
sS'international_#-2'
p903
F0.00351150994927819
sg290
F0.0027311744049941474
sg653
F0.0007803355442840422
sg248
F0.007998439328911432
sg23
F0.0005852516582130316
sg654
F0.0005852516582130316
sg765
F0.0007803355442840422
sg315
F0.0007803355442840422
sg656
F0.002536090518923137
sS'kinds'
p904
F0.002926258291065158
sg657
F0.0011705033164260631
sg824
F0.006437768240343348
sg825
F0.001755754974639095
sg289
F0.0111197815060476
sg766
F0.0013655872024970737
sg671
F0.0013655872024970737
sg658
F0.0011705033164260631
sg659
F0.00019508388607101054
sS'sides'
p905
F0.0015606710885680843
sg661
F0.0007803355442840422
sg662
F0.0011705033164260631
sg525
F0.0015606710885680843
sg612
F0.00019508388607101054
sS'daily'
p906
F0.0015606710885680843
sS'opposing'
p907
F0.0007803355442840422
sg664
F0.0023410066328521262
sg317
F0.0011705033164260631
sg665
F0.0009754194303550526
ssI6
(dp908
g324
F0.0006103143118706134
sg753
F0.0010680500457735734
sg827
F0.0012206286237412267
sg327
F0.00091547146780592
sg328
F0.0015257857796765334
sg16
F0.07918828196521209
sg668
F0.0016783643576441867
sg330
F0.003051571559353067
sg828
F0.0003051571559353067
sg26
F0.00137320720170888
sg363
F0.0007628928898382667
sg332
F0.00091547146780592
sg28
F0.0016783643576441867
sg449
F0.0012206286237412267
sg333
F0.00045773573390296
sg334
F0.0012206286237412267
sg335
F0.00091547146780592
sg442
F0.0007628928898382667
sg830
F0.00091547146780592
sg36
F0.009307293256026854
sg771
F0.0012206286237412267
sg772
F0.00045773573390296
sg52
F0.0006103143118706134
sg341
F0.0021361000915471468
sg848
F0.0012206286237412267
sg342
F0.00640830027464144
sg64
F0.00045773573390296
sg65
F0.00015257857796765334
sg66
F0.00091547146780592
sg229
F0.0003051571559353067
sg76
F0.0012206286237412267
sg344
F0.00015257857796765334
sg78
F0.00366188587122368
sg673
F0.0006103143118706134
sg345
F0.005797985962770827
sg84
F0.00015257857796765334
sg346
F0.0021361000915471468
sg230
F0.0022886786695148
sg833
F0.00137320720170888
sg347
F0.0028989929813854134
sg750
F0.0028989929813854134
sg674
F0.00045773573390296
sS'assistance'
p909
F0.00183094293561184
sg348
F0.0033567287152883735
sg676
F0.0015257857796765334
sg113
F0.0006103143118706134
sg115
F0.0007628928898382667
sg350
F0.00091547146780592
sS'Tibetan'
p910
F0.0024412572474824534
sg118
F0.00640830027464144
sg351
F0.0010680500457735734
sg126
F0.0007628928898382667
sg131
F0.003967043027158987
sg134
F0.00137320720170888
sg352
F0.0003051571559353067
sg135
F0.0056454073848031736
sg353
F0.003051571559353067
sg354
F0.0003051571559353067
sg355
F0.0015257857796765334
sS'boy'
p911
F0.003051571559353067
sg357
F0.014800122062862374
sg680
F0.0022886786695148
sg358
F0.0019835215135794934
sg242
F0.0091547146780592
sg359
F0.0012206286237412267
sg682
F0.0024412572474824534
sg161
F0.0006103143118706134
sg361
F0.0012206286237412267
sS'When'
p912
F0.00183094293561184
sg362
F0.0022886786695148
sg787
F0.0021361000915471468
sg366
F0.0012206286237412267
sg367
F0.0007628928898382667
sg368
F0.0003051571559353067
sg835
F0.004424778761061947
sg176
F0.00183094293561184
sg685
F0.0006103143118706134
sg369
F0.0012206286237412267
sg370
F0.0019835215135794934
sg371
F0.00045773573390296
sg372
F0.0003051571559353067
sg837
F0.00320415013732072
sg188
F0.0016783643576441867
sg687
F0.0012206286237412267
sg196
F0.00015257857796765334
sg838
F0.00137320720170888
sg375
F0.00015257857796765334
sg376
F0.003509307293256027
sg907
F0.0012206286237412267
sg215
F0.00045773573390296
sg377
F0.00045773573390296
sg153
F0.0003051571559353067
sg222
F0.00320415013732072
sg778
F0.00091547146780592
sg62
F0.00045773573390296
sg689
F0.0006103143118706134
sS'soul'
p913
F0.00183094293561184
sg690
F0.0003051571559353067
sg380
F0.00015257857796765334
sg382
F0.0016783643576441867
sg236
F0.0010680500457735734
sg383
F0.00137320720170888
sg858
F0.0045773573390296
sg243
F0.0003051571559353067
sg147
F0.00015257857796765334
sg186
F0.0007628928898382667
sg190
F0.0021361000915471468
sS'preserving'
p914
F0.00183094293561184
sg840
F0.00183094293561184
sg841
F0.00183094293561184
sg671
F0.0003051571559353067
sg399
F0.00183094293561184
sg779
F0.0012206286237412267
sg389
F0.0006103143118706134
sg390
F0.0015257857796765334
sg391
F0.0010680500457735734
sg392
F0.0022886786695148
sg271
F0.0003051571559353067
sg275
F0.0006103143118706134
sg245
F0.00045773573390296
sg396
F0.0021361000915471468
sg60
F0.0003051571559353067
sg695
F0.00015257857796765334
sg285
F0.00015257857796765334
sg397
F0.0012206286237412267
sS'believers'
p915
F0.00183094293561184
sg388
F0.0003051571559353067
sS'customs'
p916
F0.00183094293561184
sg294
F0.0003051571559353067
sg697
F0.0015257857796765334
sg400
F0.0051876716509002135
sg844
F0.0033567287152883735
sg402
F0.0003051571559353067
sg403
F0.0007628928898382667
sg226
F0.00091547146780592
sg404
F0.0003051571559353067
sg845
F0.0024412572474824534
sg316
F0.0003051571559353067
sg407
F0.0015257857796765334
sg408
F0.004424778761061947
sS'Islam'
p917
F0.00183094293561184
sS'Catholic'
p918
F0.0015257857796765334
sS'help'
p919
F0.0021361000915471468
sg409
F0.0006103143118706134
sg410
F0.00045773573390296
sg49
F0.00045773573390296
sS'Hong'
p920
F0.0024412572474824534
sg411
F0.0010680500457735734
sg10
F0.00045773573390296
sg412
F0.00015257857796765334
sg12
F0.0006103143118706134
sS'worship'
p921
F0.0024412572474824534
sg415
F0.00045773573390296
sg19
F0.0003051571559353067
sg20
F0.00183094293561184
sg88
F0.0007628928898382667
sg417
F0.0024412572474824534
sg718
F0.0021361000915471468
sg158
F0.0012206286237412267
sg31
F0.0003051571559353067
sg420
F0.0033567287152883735
sg34
F0.0022886786695148
sg35
F0.0007628928898382667
sg846
F0.0016783643576441867
sg847
F0.0022886786695148
sg781
F0.0022886786695148
sg456
F0.0019835215135794934
sg423
F0.00091547146780592
sg424
F0.00045773573390296
sg814
F0.0010680500457735734
sg426
F0.00320415013732072
sS'sects'
p922
F0.0024412572474824534
sg701
F0.00183094293561184
sg56
F0.00045773573390296
sg307
F0.0024412572474824534
sg782
F0.0007628928898382667
sg432
F0.0028989929813854134
sg433
F0.00091547146780592
sg703
F0.0015257857796765334
sg434
F0.00015257857796765334
sg83
F0.0007628928898382667
sg198
F0.0010680500457735734
sS'circles_#1'
p923
F0.003967043027158987
sg436
F0.0010680500457735734
sg298
F0.0051876716509002135
sg295
F0.00015257857796765334
sg439
F0.00015257857796765334
sg440
F0.0021361000915471468
sg441
F0.0038144644491913335
sg852
F0.0016783643576441867
sg108
F0.0003051571559353067
sg331
F0.0006103143118706134
sg829
F0.009002136100091547
sg443
F0.00091547146780592
sg853
F0.0012206286237412267
sg706
F0.0045773573390296
sg444
F0.0068660360085444
sg445
F0.0003051571559353067
sg130
F0.00274641440341776
sg446
F0.0019835215135794934
sg707
F0.0033567287152883735
sg708
F0.00015257857796765334
sg46
F0.0006103143118706134
sg854
F0.0003051571559353067
sg450
F0.0010680500457735734
sg791
F0.0015257857796765334
sg451
F0.0010680500457735734
sg855
F0.00015257857796765334
sg649
F0.00091547146780592
sg146
F0.0019835215135794934
sg711
F0.0010680500457735734
sg454
F0.0012206286237412267
sg159
F0.00015257857796765334
sg832
F0.00091547146780592
sg455
F0.0019835215135794934
sg522
F0.0003051571559353067
sS'Buddhist'
p924
F0.0021361000915471468
sS'Dalai'
p925
F0.003967043027158987
sg788
F0.003967043027158987
sg457
F0.00015257857796765334
sS'Buddhism'
p926
F0.0021361000915471468
sg790
F0.0025938358254501068
sg857
F0.0003051571559353067
sg458
F0.0006103143118706134
sg713
F0.0015257857796765334
sg474
F0.0019835215135794934
sg81
F0.0003051571559353067
sg459
F0.0012206286237412267
sg182
F0.0003051571559353067
sg460
F0.0007628928898382667
sg22
F0.0042722001830942935
sg462
F0.0025938358254501068
sg466
F0.0003051571559353067
sg467
F0.0007628928898382667
sg859
F0.0038144644491913335
sS'Chinese_#-1'
p927
F0.00183094293561184
sg205
F0.00045773573390296
sg860
F0.00183094293561184
sg401
F0.0019835215135794934
sg468
F0.00015257857796765334
sg469
F0.00320415013732072
sg470
F0.0010680500457735734
sg471
F0.00015257857796765334
sg861
F0.00015257857796765334
sg472
F0.00183094293561184
sg177
F0.0007628928898382667
sg225
F0.00045773573390296
sg228
F0.0016783643576441867
sS'instruction'
p928
F0.00183094293561184
sg794
F0.00015257857796765334
sg473
F0.0012206286237412267
sg862
F0.00045773573390296
sg233
F0.00137320720170888
sg714
F0.00137320720170888
sg235
F0.006255721696673787
sg716
F0.00045773573390296
sg257
F0.00091547146780592
sg478
F0.0015257857796765334
sg796
F0.00183094293561184
sg262
F0.0003051571559353067
sg863
F0.0007628928898382667
sg480
F0.00015257857796765334
sg481
F0.0024412572474824534
sg482
F0.0006103143118706134
sg864
F0.0015257857796765334
sg483
F0.0010680500457735734
sg221
F0.00091547146780592
sg274
F0.00015257857796765334
sg719
F0.0006103143118706134
sg865
F0.0012206286237412267
sg486
F0.00137320720170888
sg527
F0.00045773573390296
sg487
F0.0012206286237412267
sS'circles'
p929
F0.004882514494964907
sg284
F0.00015257857796765334
sg488
F0.00045773573390296
sS'normal'
p930
F0.00274641440341776
sg489
F0.0006103143118706134
sg721
F0.0025938358254501068
sg154
F0.00015257857796765334
sg491
F0.0006103143118706134
sg492
F0.02014037229173024
sg302
F0.0003051571559353067
sg304
F0.0024412572474824534
sg493
F0.0022886786695148
sg494
F0.00183094293561184
sg495
F0.0021361000915471468
sg652
F0.0024412572474824534
sg320
F0.0003051571559353067
sg496
F0.0028989929813854134
sg497
F0.0003051571559353067
sg498
F0.0025938358254501068
sg319
F0.0016783643576441867
sg499
F0.00137320720170888
sg500
F0.00320415013732072
sg258
F0.0003051571559353067
sg9
F0.0015257857796765334
sg723
F0.0006103143118706134
sS'find'
p931
F0.00183094293561184
sg801
F0.0006103143118706134
sg21
F0.003051571559353067
sS'music'
p932
F0.00183094293561184
sg502
F0.00015257857796765334
sg504
F0.0006103143118706134
sg506
F0.00015257857796765334
sg507
F0.00137320720170888
sS'Falungong'
p933
F0.0042722001830942935
sg508
F0.00015257857796765334
sg509
F0.0038144644491913335
sg510
F0.00045773573390296
sS'Panchen'
p934
F0.0021361000915471468
sg511
F0.0012206286237412267
sg512
F0.0006103143118706134
sg870
F0.00183094293561184
sg803
F0.0007628928898382667
sg513
F0.0022886786695148
sg74
F0.0003051571559353067
sg57
F0.00137320720170888
sg515
F0.00015257857796765334
sg395
F0.0006103143118706134
sg804
F0.0022886786695148
sg518
F0.00274641440341776
sS'activities_#1'
p935
F0.00183094293561184
sg521
F0.00137320720170888
sg724
F0.0012206286237412267
sg79
F0.0007628928898382667
sg523
F0.00137320720170888
sS'For'
p936
F0.003051571559353067
sg175
F0.00015257857796765334
sg524
F0.0022886786695148
sg871
F0.00091547146780592
sg872
F0.0024412572474824534
sg526
F0.0006103143118706134
sg280
F0.0003051571559353067
sS'voluntary'
p937
F0.0021361000915471468
sg873
F0.00091547146780592
sg528
F0.0006103143118706134
sg874
F0.00091547146780592
sg501
F0.0012206286237412267
sg299
F0.00091547146780592
sg112
F0.00091547146780592
sg70
F0.00183094293561184
sg373
F0.00137320720170888
sg807
F0.0003051571559353067
sg875
F0.0021361000915471468
sg728
F0.0012206286237412267
sg241
F0.0033567287152883735
sg128
F0.0022886786695148
sg45
F0.0012206286237412267
sg531
F0.00045773573390296
sg729
F0.0003051571559353067
sg144
F0.0003051571559353067
sg730
F0.0016783643576441867
sg532
F0.00137320720170888
sg533
F0.0007628928898382667
sg809
F0.0006103143118706134
sg207
F0.0016783643576441867
sg145
F0.004424778761061947
sg534
F0.0003051571559353067
sg535
F0.0016783643576441867
sg416
F0.00183094293561184
sg537
F0.0006103143118706134
sg538
F0.0024412572474824534
sg539
F0.0007628928898382667
sg278
F0.00274641440341776
sg540
F0.00045773573390296
sg733
F0.00015257857796765334
sg163
F0.00015257857796765334
sg541
F0.0015257857796765334
sg731
F0.00045773573390296
sg542
F0.00183094293561184
sg543
F0.0007628928898382667
sg170
F0.00091547146780592
sS'cult'
p938
F0.0021361000915471468
sg645
F0.00137320720170888
sg732
F0.0015257857796765334
sg545
F0.00137320720170888
sg546
F0.0015257857796765334
sg547
F0.0015257857796765334
sg181
F0.0012206286237412267
sg548
F0.0010680500457735734
sg183
F0.0006103143118706134
sg172
F0.014800122062862374
sg549
F0.0003051571559353067
sg193
F0.0003051571559353067
sg550
F0.00015257857796765334
sg811
F0.0003051571559353067
sg551
F0.0022886786695148
sg552
F0.0010680500457735734
sg553
F0.00015257857796765334
sg209
F0.00091547146780592
sg736
F0.00183094293561184
sg812
F0.0012206286237412267
sg554
F0.00015257857796765334
sg218
F0.00137320720170888
sg219
F0.00015257857796765334
sg737
F0.0007628928898382667
sg421
F0.0016783643576441867
sg51
F0.0003051571559353067
sg555
F0.0012206286237412267
sg556
F0.0022886786695148
sg123
F0.0024412572474824534
sg557
F0.0006103143118706134
sg558
F0.005797985962770827
sg559
F0.0010680500457735734
sg560
F0.00091547146780592
sg561
F0.0007628928898382667
sg813
F0.0006103143118706134
sS'secondary'
p939
F0.0021361000915471468
sg562
F0.0007628928898382667
sg148
F0.00015257857796765334
sg774
F0.0003051571559353067
sg596
F0.0003051571559353067
sg881
F0.0045773573390296
sg563
F0.0006103143118706134
sg406
F0.0006103143118706134
sg564
F0.0012206286237412267
sg565
F0.00015257857796765334
sg739
F0.00183094293561184
sg566
F0.00091547146780592
sS'followers'
p940
F0.003051571559353067
sg567
F0.0016783643576441867
sg276
F0.00015257857796765334
sg849
F0.00045773573390296
sg282
F0.0006103143118706134
sg283
F0.00503509307293256
sg815
F0.0016783643576441867
sg717
F0.00015257857796765334
sg883
F0.003051571559353067
sg292
F0.0007628928898382667
sg572
F0.0016783643576441867
sg573
F0.00045773573390296
sg360
F0.0006103143118706134
sg575
F0.0015257857796765334
sg303
F0.00183094293561184
sS'sects_#1'
p941
F0.00183094293561184
sS'studies'
p942
F0.00274641440341776
sS'bodies_#1'
p943
F0.0024412572474824534
sg268
F0.00091547146780592
sg884
F0.00137320720170888
sg313
F0.0012206286237412267
sg579
F0.0016783643576441867
sg816
F0.00091547146780592
sg580
F0.0012206286237412267
sg581
F0.0022886786695148
sg885
F0.0025938358254501068
sg582
F0.0042722001830942935
sg5
F0.0015257857796765334
sg583
F0.0006103143118706134
sg584
F0.0006103143118706134
sg7
F0.00015257857796765334
sg850
F0.0056454073848031736
sS'reincarnated'
p944
F0.0021361000915471468
sg13
F0.00045773573390296
sg586
F0.003051571559353067
sg23
F0.00045773573390296
sg587
F0.00091547146780592
sg27
F0.00045773573390296
sS'character'
p945
F0.00183094293561184
sg588
F0.0003051571559353067
sg589
F0.0010680500457735734
sg590
F0.0012206286237412267
sg878
F0.00015257857796765334
sg744
F0.00137320720170888
sg593
F0.00015257857796765334
sg595
F0.0003051571559353067
sg38
F0.00015257857796765334
sg485
F0.0028989929813854134
sg817
F0.00640830027464144
sg311
F0.007628928898382667
sg597
F0.0010680500457735734
sg598
F0.0007628928898382667
sg599
F0.0003051571559353067
sg600
F0.0015257857796765334
sg602
F0.0006103143118706134
sg604
F0.0003051571559353067
sg891
F0.00045773573390296
sg68
F0.0003051571559353067
sg69
F0.00015257857796765334
sg142
F0.0006103143118706134
sg798
F0.0003051571559353067
sg85
F0.0006103143118706134
sg749
F0.00411962160512664
sg89
F0.0006103143118706134
sg610
F0.0006103143118706134
sg100
F0.0006103143118706134
sg893
F0.0019835215135794934
sg613
F0.0003051571559353067
sg614
F0.0015257857796765334
sg615
F0.00503509307293256
sg617
F0.01052792187976808
sg605
F0.0003051571559353067
sg894
F0.0021361000915471468
sg895
F0.00015257857796765334
sg820
F0.0006103143118706134
sg896
F0.0033567287152883735
sg124
F0.0003051571559353067
sg129
F0.0003051571559353067
sg619
F0.00015257857796765334
sg898
F0.0021361000915471468
sg197
F0.0015257857796765334
sg621
F0.0028989929813854134
sg821
F0.009002136100091547
sg622
F0.0022886786695148
sg103
F0.0015257857796765334
sg623
F0.0015257857796765334
sg155
F0.0006103143118706134
sg624
F0.0012206286237412267
sg752
F0.0024412572474824534
sg164
F0.0003051571559353067
sg165
F0.00015257857796765334
sg628
F0.0006103143118706134
sg630
F0.0022886786695148
sg901
F0.0003051571559353067
sg754
F0.0051876716509002135
sg625
F0.00091547146780592
sg631
F0.0012206286237412267
sg632
F0.00320415013732072
sg208
F0.00045773573390296
sg795
F0.0007628928898382667
sg206
F0.0012206286237412267
sS'forward'
p946
F0.0021361000915471468
sg635
F0.0012206286237412267
sg200
F0.00015257857796765334
sS'ago'
p947
F0.0021361000915471468
sg203
F0.0016783643576441867
sg638
F0.0022886786695148
sg641
F0.0006103143118706134
sS'true'
p948
F0.00274641440341776
sS'ceremonies'
p949
F0.0024412572474824534
sg902
F0.00137320720170888
sg227
F0.00091547146780592
sS'official'
p950
F0.003967043027158987
sg760
F0.0007628928898382667
sg238
F0.0007628928898382667
sg240
F0.00045773573390296
sg644
F0.00091547146780592
sg310
F0.0003051571559353067
sg761
F0.00015257857796765334
sg647
F0.0007628928898382667
sg254
F0.003509307293256027
sg256
F0.0003051571559353067
sg648
F0.00137320720170888
sg823
F0.004882514494964907
sg663
F0.0003051571559353067
sg261
F0.00503509307293256
sg686
F0.0028989929813854134
sg651
F0.0012206286237412267
sg290
F0.0012206286237412267
sg763
F0.00015257857796765334
sg653
F0.0042722001830942935
sg248
F0.00320415013732072
sg764
F0.00091547146780592
sg273
F0.0016783643576441867
sg315
F0.0015257857796765334
sg656
F0.00091547146780592
sg904
F0.00015257857796765334
sg825
F0.0012206286237412267
sg289
F0.0012206286237412267
sg766
F0.00137320720170888
sS'meaning'
p951
F0.00183094293561184
sg658
F0.00015257857796765334
sg659
F0.0015257857796765334
sg905
F0.00091547146780592
sg660
F0.0012206286237412267
sg661
F0.00091547146780592
sg662
F0.0007628928898382667
sg525
F0.00015257857796765334
sg306
F0.00015257857796765334
sg612
F0.00732377174244736
sg906
F0.0006103143118706134
sg664
F0.0019835215135794934
sg317
F0.0022886786695148
sS'overseas'
p952
F0.0021361000915471468
ss.