(dp0
I1
(dp1
S'United'
p2
F0.03206997084548105
sS'financial'
p3
F0.01020408163265306
sS'There'
p4
F0.004373177842565598
sS'community'
p5
F0.02040816326530612
sS'sign'
p6
F0.2521865889212828
sS'held'
p7
F0.018950437317784258
sS'economic'
p8
F0.023323615160349854
sS'human'
p9
F0.026239067055393587
sS'issues'
p10
F0.014577259475218658
sS'subject'
p11
F0.016034985422740525
sS'support'
p12
F0.016034985422740525
sS'political'
p13
F0.026239067055393587
sS'system'
p14
F0.026239067055393587
sS'China'
p15
F0.011661807580174927
sS'cooperation'
p16
F0.013119533527696793
sS'international'
p17
F0.07434402332361516
sS'meeting'
p18
F0.02040816326530612
sS'public'
p19
F0.008746355685131196
sS'development'
p20
F0.02040816326530612
sS'government'
p21
F0.023323615160349854
sS'regional'
p22
F0.01749271137026239
sS'agreement'
p23
F0.016034985422740525
sS'Nations'
p24
F0.014577259475218658
sS'The'
p25
F0.10932944606413994
sS'law'
p26
F0.026239067055393587
sS'present'
p27
F0.0029154518950437317
sS'organizations'
p28
F0.018950437317784258
sS'mainland'
p29
F0.004373177842565598
sS'Chinese'
p30
F0.037900874635568516
sS'countries'
p31
F0.004373177842565598
sS'country'
p32
F0.02478134110787172
sS'rights'
p33
F0.026239067055393587
sS'States'
p34
F0.027696793002915453
sS'situation'
p35
F0.0058309037900874635
sS'Taiwan'
p36
F0.004373177842565598
ssI2
(dp37
g20
F0.01282051282051282
sg28
F0.00641025641025641
sg3
F0.03205128205128205
sg31
F0.1858974358974359
sg32
F0.03205128205128205
sg12
F0.00641025641025641
sg4
F0.057692307692307696
sg23
F0.00641025641025641
sg19
F0.038461538461538464
sg7
F0.00641025641025641
sg15
F0.02564102564102564
sg29
F0.07051282051282051
sg16
F0.03205128205128205
sg35
F0.0641025641025641
sg17
F0.019230769230769232
sg36
F0.10897435897435898
sg6
F0.21153846153846154
sg25
F0.01282051282051282
sg27
F0.0641025641025641
sg11
F0.00641025641025641
ss.