(dp0
I1
(dp1
S'major'
p2
F0.012853470437017995
sS'gold'
p3
F0.007712082262210797
sS'zones'
p4
F0.04113110539845758
sS'modern'
p5
F0.007712082262210797
sS'domestic'
p6
F0.03598971722365039
sS'number'
p7
F0.002570694087403599
sS'surface'
p8
F0.12082262210796915
sS'past'
p9
F0.015424164524421594
sS"n't"
p10
F0.002570694087403599
sS'including'
p11
F0.002570694087403599
sS'coastal'
p12
F0.02056555269922879
sS'quality'
p13
F0.017994858611825194
sS'special'
p14
F0.010282776349614395
sS'ground'
p15
F0.005141388174807198
sS'information'
p16
F0.002570694087403599
sS'The_#-3'
p17
F0.012853470437017995
sS'area'
p18
F0.02313624678663239
sS'sun'
p19
F0.02056555269922879
sS'China'
p20
F0.007712082262210797
sS'underground'
p21
F0.038560411311053984
sS'international'
p22
F0.02313624678663239
sS'waste'
p23
F0.028277634961439587
sS'resources'
p24
F0.015424164524421594
sS'development'
p25
F0.005141388174807198
sS'government'
p26
F0.028277634961439587
sS'This'
p27
F0.010282776349614395
sS'waters'
p28
F0.015424164524421594
sS'rock'
p29
F0.002570694087403599
sS'water'
p30
F0.2236503856041131
sS'environmental'
p31
F0.015424164524421594
sS'land_#-1'
p32
F0.002570694087403599
sS'The'
p33
F0.02570694087403599
sS'areas'
p34
F0.028277634961439587
sS'water_#1'
p35
F0.061696658097686374
sS'land'
p36
F0.015424164524421594
sS'atmospheric'
p37
F0.002570694087403599
sS'level'
p38
F0.03598971722365039
sS'average'
p39
F0.002570694087403599
sS'air'
p40
F0.012853470437017995
sS'large'
p41
F0.002570694087403599
sS'sources'
p42
F0.028277634961439587
sS'activity'
p43
F0.002570694087403599
sS'inside'
p44
F0.002570694087403599
ssI2
(dp45
g9
F0.024390243902439025
sg2
F0.024390243902439025
sS'force'
p46
F0.0975609756097561
sS'built'
p47
F0.024390243902439025
sS'Chinese'
p48
F0.04878048780487805
sS'operational'
p49
F0.06097560975609756
sS'guided'
p50
F0.08536585365853659
sg5
F0.024390243902439025
sS'budget'
p51
F0.006097560975609756
sg8
F0.06707317073170732
sg40
F0.036585365853658534
sS'high'
p52
F0.006097560975609756
sg12
F0.07317073170731707
sS'Navy'
p53
F0.12195121951219512
sg33
F0.07926829268292683
sS'missile'
p54
F0.07317073170731707
sg13
F0.006097560975609756
sg28
F0.04878048780487805
sS'unit'
p55
F0.04878048780487805
sS'naval'
p56
F0.042682926829268296
ssI3
(dp57
S'atmosphere'
p58
F0.01910828025477707
sS'art'
p59
F0.044585987261146494
sg3
F0.025477707006369428
sS'global'
p60
F0.006369426751592357
sg2
F0.006369426751592357
sg8
F0.07006369426751592
sg9
F0.012738853503184714
sg11
F0.025477707006369428
sS'fishing'
p61
F0.07643312101910828
sS'human'
p62
F0.006369426751592357
sg13
F0.012738853503184714
sg14
F0.03821656050955414
sg15
F0.044585987261146494
sg16
F0.050955414012738856
sg18
F0.03184713375796178
sg19
F0.012738853503184714
sS'But'
p63
F0.03184713375796178
sg49
F0.012738853503184714
sS'field'
p64
F0.006369426751592357
sg20
F0.012738853503184714
sg55
F0.025477707006369428
sg5
F0.006369426751592357
sg7
F0.08280254777070063
sS'beam'
p65
F0.006369426751592357
sS'important'
p66
F0.03184713375796178
sg32
F0.006369426751592357
sg33
F0.03184713375796178
sS'stone'
p67
F0.006369426751592357
sg36
F0.025477707006369428
sg48
F0.07006369426751592
sg38
F0.025477707006369428
sS'smooth'
p68
F0.012738853503184714
sg41
F0.05732484076433121
sg29
F0.006369426751592357
sS'small'
p69
F0.006369426751592357
sS'Taiwan'
p70
F0.050955414012738856
ssI4
(dp71
g58
F0.022727272727272728
sS'sea'
p72
F0.012626262626262626
sg3
F0.0025252525252525255
sg60
F0.027777777777777776
sg7
F0.005050505050505051
sg8
F0.10858585858585859
sg9
F0.010101010101010102
sS'weather'
p73
F0.027777777777777776
sg11
F0.017676767676767676
sg62
F0.010101010101010102
sS'impact'
p74
F0.005050505050505051
sS'increase'
p75
F0.06060606060606061
sS'develop'
p76
F0.005050505050505051
sS'temperature'
p77
F0.030303030303030304
sg18
F0.005050505050505051
sS'system'
p78
F0.027777777777777776
sS'research'
p79
F0.030303030303030304
sS'current'
p80
F0.022727272727272728
sg64
F0.022727272727272728
sg20
F0.045454545454545456
sS'deficit'
p81
F0.030303030303030304
sS'covered'
p82
F0.010101010101010102
sg23
F0.0025252525252525255
sg24
F0.010101010101010102
sg25
F0.020202020202020204
sg32
F0.022727272727272728
sg16
F0.0025252525252525255
sg27
F0.0025252525252525255
sg29
F0.0025252525252525255
sg31
F0.050505050505050504
sg66
F0.005050505050505051
sg22
F0.005050505050505051
sS'central'
p83
F0.030303030303030304
sg33
F0.030303030303030304
sS'data'
p84
F0.030303030303030304
sg36
F0.03535353535353535
sg37
F0.027777777777777776
sg48
F0.0025252525252525255
sg39
F0.015151515151515152
sg51
F0.03282828282828283
sg40
F0.020202020202020204
sS'satellite'
p85
F0.03535353535353535
sS'temperatures'
p86
F0.025252525252525252
sg43
F0.005050505050505051
sS'Earth'
p87
F0.03535353535353535
sg70
F0.007575757575757576
sg44
F0.0025252525252525255
ssI5
(dp88
g2
F0.00625
sg59
F0.00625
sg5
F0.0125
sg8
F0.18125
sg42
F0.01875
sg11
F0.0125
sS'earth'
p89
F0.00625
sS'operation'
p90
F0.0875
sg14
F0.025
sg15
F0.00625
sS'missiles'
p91
F0.025
sg76
F0.075
sg18
F0.00625
sg80
F0.00625
sS'parts'
p92
F0.05625
sg20
F0.00625
sg21
F0.01875
sg26
F0.01875
sg65
F0.08125
sg66
F0.00625
sS'external'
p93
F0.025
sg33
F0.04375
sg56
F0.03125
sS'light'
p94
F0.15625
sg40
F0.01875
sg41
F0.025
sS'concrete'
p95
F0.01875
sS'road'
p96
F0.01875
ssI6
(dp97
g2
F0.0036144578313253013
sg59
F0.0024096385542168677
sg72
F0.01325301204819277
sg50
F0.0024096385542168677
sg32
F0.0036144578313253013
sS'When'
p98
F0.01927710843373494
sg8
F0.26867469879518074
sg52
F0.030120481927710843
sS'shape'
p99
F0.014457831325301205
sg73
F0.0036144578313253013
sS'meters'
p100
F0.016867469879518072
sg62
F0.008433734939759036
sg89
F0.018072289156626505
sg13
F0.0024096385542168677
sg55
F0.0024096385542168677
sg15
F0.012048192771084338
sg74
F0.014457831325301205
sg10
F0.018072289156626505
sg91
F0.014457831325301205
sg17
F0.010843373493975903
sg47
F0.012048192771084338
sg18
F0.0036144578313253013
sg19
F0.014457831325301205
sg78
F0.008433734939759036
sg63
F0.01566265060240964
sg80
F0.0024096385542168677
sg64
F0.007228915662650603
sg92
F0.0036144578313253013
sg20
F0.0024096385542168677
sg82
F0.00963855421686747
sS'main'
p101
F0.014457831325301205
sg24
F0.0024096385542168677
sg86
F0.004819277108433735
sg25
F0.007228915662650603
sg5
F0.004819277108433735
sg27
F0.01566265060240964
sg29
F0.020481927710843374
sg30
F0.008433734939759036
sg66
F0.004819277108433735
sg93
F0.00963855421686747
sg22
F0.0012048192771084338
sg33
F0.10481927710843374
sg34
F0.01325301204819277
sS'ago'
p102
F0.016867469879518072
sg9
F0.007228915662650603
sg67
F0.01325301204819277
sg36
F0.0024096385542168677
sg48
F0.004819277108433735
sg94
F0.006024096385542169
sg39
F0.010843373493975903
sg68
F0.014457831325301205
sg40
F0.0024096385542168677
sg41
F0.024096385542168676
sg95
F0.010843373493975903
sg77
F0.007228915662650603
sg43
F0.01325301204819277
sg69
F0.018072289156626505
sg70
F0.051807228915662654
sg35
F0.0024096385542168677
sg44
F0.012048192771084338
sg96
F0.010843373493975903
ss.