(dp0
I1
(dp1
S'results'
p2
F0.013853904282115869
sS'battle'
p3
F0.003778337531486146
sS'knowledge'
p4
F0.012594458438287154
sS'implementation'
p5
F0.005037783375314861
sS'concerned'
p6
F0.0025188916876574307
sS'winning'
p7
F0.07934508816120907
sS'modernization'
p8
F0.012594458438287154
sS'technological'
p9
F0.018891687657430732
sS'local'
p10
F0.003778337531486146
sS'means'
p11
F0.013853904282115869
sS'practice'
p12
F0.013853904282115869
sS'wars_#2'
p13
F0.0025188916876574307
sS'strategic'
p14
F0.003778337531486146
sS'advanced'
p15
F0.010075566750629723
sS'enemy'
p16
F0.0025188916876574307
sS'wars_#1'
p17
F0.005037783375314861
sS'skills'
p18
F0.005037783375314861
sS'victory'
p19
F0.003778337531486146
sS'methods'
p20
F0.012594458438287154
sS'national'
p21
F0.006297229219143577
sS'defense'
p22
F0.017632241813602016
sS'military_#-3'
p23
F0.0012594458438287153
sS'ability'
p24
F0.020151133501259445
sS'reform'
p25
F0.008816120906801008
sS'quality'
p26
F0.010075566750629723
sS'innovation'
p27
F0.015113350125944584
sS'conditions'
p28
F0.012594458438287154
sS'achievements'
p29
F0.018891687657430732
sS'scientific'
p30
F0.04030226700251889
sS'war_#2'
p31
F0.0163727959697733
sS'future_#1'
p32
F0.02518891687657431
sS'leadership'
p33
F0.0025188916876574307
sS'struggle'
p34
F0.010075566750629723
sS'making'
p35
F0.003778337531486146
sS'strong'
p36
F0.011335012594458438
sS'cadres'
p37
F0.0025188916876574307
sS'training'
p38
F0.055415617128463476
sS'country'
p39
F0.006297229219143577
sS'practical'
p40
F0.015113350125944584
sS'thinking'
p41
F0.003778337531486146
sS'war_#1'
p42
F0.015113350125944584
sS'ensure'
p43
F0.003778337531486146
sS'high-tech'
p44
F0.018891687657430732
sS'military'
p45
F0.03904282115869018
sS'efforts'
p46
F0.005037783375314861
sS'battle_#1'
p47
F0.0025188916876574307
sS'tasks'
p48
F0.0012594458438287153
sS'highly'
p49
F0.005037783375314861
sS'carry'
p50
F0.0012594458438287153
sS'armed'
p51
F0.0012594458438287153
sS'troops'
p52
F0.010075566750629723
sS'army'
p53
F0.008816120906801008
sS'support'
p54
F0.005037783375314861
sS'live'
p55
F0.0025188916876574307
sS'war'
p56
F0.06423173803526448
sS'local_#1'
p57
F0.003778337531486146
sS'advance'
p58
F0.003778337531486146
sS'wars'
p59
F0.010075566750629723
sS'economic'
p60
F0.003778337531486146
sS'construction'
p61
F0.0025188916876574307
sS'warfare'
p62
F0.0012594458438287153
sS'science'
p63
F0.027707808564231738
sS'air'
p64
F0.005037783375314861
sS'future'
p65
F0.030226700251889168
sS'learn'
p66
F0.0025188916876574307
sS'situation'
p67
F0.005037783375314861
sS'need'
p68
F0.006297229219143577
sS'technology'
p69
F0.017632241813602016
sS'guarantee'
p70
F0.003778337531486146
sS'requirements'
p71
F0.012594458438287154
sS'provide'
p72
F0.005037783375314861
sS'personnel'
p73
F0.006297229219143577
sS'officers'
p74
F0.006297229219143577
sS'equipment'
p75
F0.015113350125944584
sS'forces'
p76
F0.0012594458438287153
sS'units'
p77
F0.010075566750629723
sS'effectiveness'
p78
F0.003778337531486146
sS'fighting_#-1'
p79
F0.007556675062972292
sS'development'
p80
F0.015113350125944584
sS'regional'
p81
F0.0025188916876574307
sS'combat'
p82
F0.007556675062972292
sS'important'
p83
F0.0025188916876574307
sS'The'
p84
F0.003778337531486146
sS'law'
p85
F0.012594458438287154
sS'building'
p86
F0.02392947103274559
sS'fighting'
p87
F0.011335012594458438
sS'command'
p88
F0.013853904282115869
sS'principle'
p89
F0.0025188916876574307
ssI2
(dp90
S'motherland'
p91
F0.0048134777376654635
sS'interests'
p92
F0.0024067388688327317
sS'major'
p93
F0.0024067388688327317
sg48
F0.012033694344163659
sS'force'
p94
F0.013237063778580024
sS'spiritual'
p95
F0.013237063778580024
sS'strengthen'
p96
F0.02045728038507822
sS'modern'
p97
F0.0012033694344163659
sS'powerful'
p98
F0.01444043321299639
sS'mission'
p99
F0.013237063778580024
sg14
F0.0048134777376654635
sS'high'
p100
F0.0024067388688327317
sg3
F0.0012033694344163659
sg33
F0.01684717208182912
sS'Chairman'
p101
F0.007220216606498195
sg23
F0.0024067388688327317
sg50
F0.0024067388688327317
sS'Party'
p102
F0.010830324909747292
sg7
F0.05054151624548736
sg51
F0.006016847172081829
sg42
F0.01684717208182912
sg70
F0.01444043321299639
sg71
F0.00842358604091456
sg26
F0.009626955475330927
sg53
F0.018050541516245487
sg5
F0.007220216606498195
sg73
F0.0024067388688327317
sS'political'
p103
F0.049338146811071
sg74
F0.00842358604091456
sg41
F0.00842358604091456
sg8
F0.006016847172081829
sg76
F0.009626955475330927
sg77
F0.009626955475330927
sS'party'
p104
F0.036101083032490974
sg17
F0.031287605294825514
sg10
F0.0012033694344163659
sS'corruption'
p105
F0.01684717208182912
sg83
F0.010830324909747292
sg19
F0.0024067388688327317
sg80
F0.0012033694344163659
sg56
F0.012033694344163659
sS'Jiang'
p106
F0.006016847172081829
sS'historical'
p107
F0.02286401925391095
sg82
F0.0012033694344163659
sg11
F0.0012033694344163659
sg67
F0.018050541516245487
sg66
F0.0024067388688327317
sg2
F0.0024067388688327317
sg59
F0.036101083032490974
sS'period'
p108
F0.0036101083032490976
sg61
F0.02527075812274368
sg34
F0.012033694344163659
sg45
F0.08664259927797834
sS'corruption_#3'
p109
F0.01684717208182912
sg84
F0.024067388688327317
sg36
F0.018050541516245487
sS'historical_#-2'
p110
F0.01444043321299639
sS'maintaining'
p111
F0.00842358604091456
sS'improve'
p112
F0.009626955475330927
sg86
F0.010830324909747292
sg58
F0.0036101083032490976
sS'effective'
p113
F0.0024067388688327317
sS'Chinese'
p114
F0.0012033694344163659
sS'developing'
p115
F0.0024067388688327317
sg18
F0.0048134777376654635
sg39
F0.009626955475330927
sS'study'
p116
F0.018050541516245487
sS'eradicating_#2'
p117
F0.01444043321299639
sS'eradicating'
p118
F0.01444043321299639
sg87
F0.015643802647412757
sS'correct'
p119
F0.007220216606498195
sS'struggles'
p120
F0.00842358604091456
sg72
F0.01444043321299639
sg65
F0.0012033694344163659
sg43
F0.0048134777376654635
sg89
F0.0048134777376654635
sS'fundamental'
p121
F0.00842358604091456
sS'ideological'
p122
F0.031287605294825514
sg44
F0.007220216606498195
sg35
F0.0012033694344163659
sg46
F0.013237063778580024
sg25
F0.00842358604091456
ssI3
(dp123
g96
F0.0056179775280898875
sg98
F0.016853932584269662
sg2
F0.0056179775280898875
sg49
F0.05056179775280899
sg100
F0.033707865168539325
sS'firepower'
p124
F0.0898876404494382
sg3
F0.011235955056179775
sS'information'
p125
F0.08426966292134831
sg36
F0.011235955056179775
sg52
F0.016853932584269662
sg53
F0.028089887640449437
sg73
F0.03932584269662921
sg54
F0.033707865168539325
sg7
F0.056179775280898875
sg104
F0.0056179775280898875
sg78
F0.02247191011235955
sg56
F0.07303370786516854
sS'resources'
p126
F0.011235955056179775
sg24
F0.02247191011235955
sg16
F0.0449438202247191
sg81
F0.0056179775280898875
sS'preparations'
p127
F0.02247191011235955
sg31
F0.011235955056179775
sg42
F0.033707865168539325
sS'international'
p128
F0.0056179775280898875
sg84
F0.011235955056179775
sg14
F0.011235955056179775
sg15
F0.02247191011235955
sg58
F0.02247191011235955
sg62
F0.08426966292134831
sg113
F0.0449438202247191
sg87
F0.033707865168539325
sg88
F0.0056179775280898875
sg19
F0.0056179775280898875
sg121
F0.0056179775280898875
sg35
F0.0056179775280898875
sS'Taiwan'
p129
F0.0056179775280898875
ssI4
(dp130
g63
F0.026713124274099883
sg92
F0.012775842044134728
sg93
F0.006968641114982578
sg48
F0.006968641114982578
sg94
F0.010452961672473868
sS'human'
p131
F0.0011614401858304297
sg96
F0.004645760743321719
sg83
F0.010452961672473868
sg97
F0.017421602787456445
sg98
F0.004645760743321719
sg99
F0.003484320557491289
sg14
F0.016260162601626018
sg100
F0.011614401858304297
sg68
F0.006968641114982578
sg22
F0.008130081300813009
sg101
F0.017421602787456445
sg124
F0.0023228803716608595
sg23
F0.009291521486643438
sg50
F0.005807200929152149
sg102
F0.010452961672473868
sg7
F0.04994192799070848
sg26
F0.013937282229965157
sg20
F0.004645760743321719
sg126
F0.0011614401858304297
sg71
F0.003484320557491289
sg4
F0.004645760743321719
sg21
F0.003484320557491289
sg53
F0.029036004645760744
sS'high-tech_#1'
p132
F0.013937282229965157
sg73
F0.0011614401858304297
sg6
F0.004645760743321719
sg120
F0.005807200929152149
sS'strategy'
p133
F0.016260162601626018
sg8
F0.009291521486643438
sg41
F0.004645760743321719
sg33
F0.003484320557491289
sg62
F0.0023228803716608595
sg57
F0.012775842044134728
sg128
F0.0011614401858304297
sg69
F0.0429732868757259
sg78
F0.005807200929152149
sg28
F0.013937282229965157
sg119
F0.006968641114982578
sg79
F0.004645760743321719
sg19
F0.009291521486643438
sg80
F0.0011614401858304297
sg72
F0.0023228803716608595
sg106
F0.024390243902439025
sg24
F0.0023228803716608595
sg82
F0.011614401858304297
sg67
F0.008130081300813009
sg13
F0.027874564459930314
sg81
F0.010452961672473868
sg59
F0.04529616724738676
sg127
F0.009291521486643438
sg108
F0.010452961672473868
sg37
F0.010452961672473868
sg32
F0.0023228803716608595
sg61
F0.03716608594657375
sg34
F0.0011614401858304297
sg45
F0.1207897793263647
sg84
F0.006968641114982578
sg112
F0.006968641114982578
sg86
F0.020905923344947737
sg31
F0.003484320557491289
sg17
F0.0023228803716608595
sg56
F0.013937282229965157
sg115
F0.004645760743321719
sg18
F0.006968641114982578
sg10
F0.024390243902439025
sg116
F0.003484320557491289
sg52
F0.005807200929152149
sg87
F0.009291521486643438
sg64
F0.003484320557491289
sg5
F0.004645760743321719
sg65
F0.029036004645760744
sg88
F0.0023228803716608595
sg89
F0.005807200929152149
sg121
F0.003484320557491289
sg66
F0.009291521486643438
sg44
F0.022067363530778164
sg35
F0.017421602787456445
sg54
F0.004645760743321719
ssI5
(dp134
g80
F0.010050251256281407
sg48
F0.01256281407035176
sg21
F0.01507537688442211
sg97
F0.005025125628140704
sg98
F0.002512562814070352
sS'number'
p135
F0.017587939698492462
sg100
F0.01507537688442211
sg3
F0.02512562814070352
sg60
F0.02512562814070352
sg131
F0.002512562814070352
sg50
F0.005025125628140704
sg102
F0.01507537688442211
sS'foreign'
p136
F0.03015075376884422
sg69
F0.002512562814070352
sg125
F0.007537688442211055
sg126
F0.022613065326633167
sg73
F0.007537688442211055
sg6
F0.01507537688442211
sg103
F0.022613065326633167
sg8
F0.002512562814070352
sg7
F0.2135678391959799
sg75
F0.010050251256281407
sg55
F0.02512562814070352
sS'China'
p137
F0.0728643216080402
sg128
F0.03768844221105527
sg10
F0.002512562814070352
sg119
F0.010050251256281407
sg83
F0.01507537688442211
sS'WTO'
p138
F0.04522613065326633
sg29
F0.007537688442211055
sg81
F0.010050251256281407
sg107
F0.002512562814070352
sg82
F0.010050251256281407
sg12
F0.002512562814070352
sg127
F0.005025125628140704
sg37
F0.007537688442211055
sg61
F0.002512562814070352
sg104
F0.002512562814070352
sg84
F0.07788944723618091
sg85
F0.007537688442211055
sg31
F0.010050251256281407
sg56
F0.010050251256281407
sS'countries'
p139
F0.022613065326633167
sg39
F0.022613065326633167
sS'rights'
p140
F0.002512562814070352
sg64
F0.002512562814070352
sg65
F0.020100502512562814
sg43
F0.002512562814070352
sg68
F0.010050251256281407
sg121
F0.002512562814070352
sg35
F0.007537688442211055
sg129
F0.03015075376884422
sg47
F0.02512562814070352
sg54
F0.002512562814070352
ssI6
(dp141
g91
F0.028368794326241134
sg93
F0.014184397163120567
sg95
F0.0035460992907801418
sg21
F0.0070921985815602835
sg135
F0.010638297872340425
sg49
F0.0035460992907801418
sg68
F0.010638297872340425
sg60
F0.0035460992907801418
sg101
F0.0035460992907801418
sg131
F0.03546099290780142
sg23
F0.0035460992907801418
sg50
F0.0070921985815602835
sg51
F0.04964539007092199
sg70
F0.010638297872340425
sg14
F0.0035460992907801418
sg104
F0.014184397163120567
sg140
F0.05319148936170213
sg41
F0.0070921985815602835
sg26
F0.0070921985815602835
sg54
F0.01773049645390071
sg103
F0.02127659574468085
sg7
F0.09574468085106383
sg137
F0.01773049645390071
sg111
F0.024822695035460994
sg76
F0.08156028368794327
sg9
F0.0035460992907801418
sg128
F0.03900709219858156
sg69
F0.0070921985815602835
sg28
F0.0070921985815602835
sg79
F0.0070921985815602835
sg89
F0.0035460992907801418
sg92
F0.01773049645390071
sg107
F0.0070921985815602835
sg82
F0.0035460992907801418
sg12
F0.0070921985815602835
sg59
F0.0035460992907801418
sg127
F0.0070921985815602835
sg33
F0.0035460992907801418
sg34
F0.0035460992907801418
sg45
F0.0035460992907801418
sg84
F0.02127659574468085
sg85
F0.0035460992907801418
sg129
F0.0673758865248227
sg15
F0.02127659574468085
sg58
F0.0070921985815602835
sg113
F0.0070921985815602835
sg114
F0.04609929078014184
sg139
F0.0035460992907801418
sg18
F0.0070921985815602835
sg63
F0.0035460992907801418
sg115
F0.028368794326241134
sg87
F0.014184397163120567
sg22
F0.0035460992907801418
sg43
F0.014184397163120567
sS'independence'
p142
F0.0425531914893617
sg121
F0.03546099290780142
sg35
F0.010638297872340425
sg46
F0.0035460992907801418
ss.